0000: 50           ld   d,b
0001: a5           and  l
0002: 00           nop
0003: 00           nop
0004: 00           nop
0005: 00           nop
0006: 00           nop
0007: 00           nop
0008: 00           nop
0009: 00           nop
000a: 00           nop
000b: 00           nop
000c: 00           nop
000d: 00           nop
000e: 00           nop
000f: 00           nop
0010: 00           nop
0011: 00           nop
0012: 00           nop
0013: 00           nop
0014: 00           nop
0015: 00           nop
0016: 00           nop
0017: 00           nop
0018: 00           nop
0019: 00           nop
001a: 00           nop
001b: 00           nop
001c: 00           nop
001d: 00           nop
001e: 00           nop
001f: 00           nop
0020: 00           nop
0021: 00           nop
0022: 00           nop
0023: 00           nop
0024: 00           nop
0025: 00           nop
0026: 00           nop
0027: 00           nop
0028: 00           nop
0029: 00           nop
002a: 00           nop
002b: 00           nop
002c: 00           nop
002d: 00           nop
002e: 00           nop
002f: 00           nop
0030: 00           nop
0031: 00           nop
0032: 00           nop
0033: 00           nop
0034: 00           nop
0035: 00           nop
0036: 00           nop
0037: 00           nop
0038: 00           nop
0039: 00           nop
003a: 00           nop
003b: 00           nop
003c: 00           nop
003d: 00           nop
003e: 00           nop
003f: 00           nop
0040: 00           nop
0041: 00           nop
0042: 00           nop
0043: 00           nop
0044: 00           nop
0045: 00           nop
0046: 00           nop
0047: 00           nop
0048: 00           nop
0049: 00           nop
004a: 00           nop
004b: 00           nop
004c: 00           nop
004d: 00           nop
004e: 00           nop
004f: 00           nop
0050: 00           nop
0051: 00           nop
0052: 00           nop
0053: 00           nop
0054: 00           nop
0055: 00           nop
0056: 00           nop
0057: 00           nop
0058: 00           nop
0059: 00           nop
005a: 00           nop
005b: 00           nop
005c: 00           nop
005d: 00           nop
005e: 00           nop
005f: 00           nop
0060: 00           nop
0061: 00           nop
0062: 00           nop
0063: 00           nop
0064: 00           nop
0065: 00           nop
0066: 00           nop
0067: 00           nop
0068: 00           nop
0069: 00           nop
006a: 00           nop
006b: 00           nop
006c: 00           nop
006d: 00           nop
006e: 00           nop
006f: 00           nop
0070: 00           nop
0071: 00           nop
0072: 00           nop
0073: 00           nop
0074: 00           nop
0075: 00           nop
0076: 00           nop
0077: 00           nop
0078: 00           nop
0079: 00           nop
007a: 00           nop
007b: 00           nop
007c: 00           nop
007d: 00           nop
007e: 00           nop
007f: 00           nop
0080: 00           nop
0081: 00           nop
0082: 00           nop
0083: 00           nop
0084: 00           nop
0085: 00           nop
0086: 00           nop
0087: 00           nop
0088: 00           nop
0089: 00           nop
008a: 00           nop
008b: 00           nop
008c: 00           nop
008d: 00           nop
008e: 00           nop
008f: 00           nop
0090: 00           nop
0091: 00           nop
0092: 00           nop
0093: 00           nop
0094: 00           nop
0095: 00           nop
0096: 00           nop
0097: 00           nop
0098: 00           nop
0099: 00           nop
009a: 00           nop
009b: 00           nop
009c: 00           nop
009d: 00           nop
009e: 00           nop
009f: 00           nop
00a0: 00           nop
00a1: 00           nop
00a2: 00           nop
00a3: 00           nop
00a4: 00           nop
00a5: 00           nop
00a6: 00           nop
00a7: 00           nop
00a8: 00           nop
00a9: 00           nop
00aa: 00           nop
00ab: 00           nop
00ac: 00           nop
00ad: 00           nop
00ae: 00           nop
00af: 00           nop
00b0: 00           nop
00b1: 00           nop
00b2: 00           nop
00b3: 00           nop
00b4: 00           nop
00b5: 00           nop
00b6: 00           nop
00b7: 00           nop
00b8: 00           nop
00b9: 00           nop
00ba: 00           nop
00bb: 00           nop
00bc: 00           nop
00bd: 00           nop
00be: 00           nop
00bf: 00           nop
00c0: 00           nop
00c1: 00           nop
00c2: 00           nop
00c3: 00           nop
00c4: 00           nop
00c5: 00           nop
00c6: 00           nop
00c7: 00           nop
00c8: 00           nop
00c9: 00           nop
00ca: 00           nop
00cb: 00           nop
00cc: 00           nop
00cd: 00           nop
00ce: 00           nop
00cf: 00           nop
00d0: 00           nop
00d1: 00           nop
00d2: 00           nop
00d3: 00           nop
00d4: 00           nop
00d5: 00           nop
00d6: 00           nop
00d7: 00           nop
00d8: 00           nop
00d9: 00           nop
00da: 00           nop
00db: 00           nop
00dc: 00           nop
00dd: 00           nop
00de: 00           nop
00df: 00           nop
00e0: 00           nop
00e1: 00           nop
00e2: 00           nop
00e3: 00           nop
00e4: 00           nop
00e5: 00           nop
00e6: 00           nop
00e7: 00           nop
00e8: 00           nop
00e9: 00           nop
00ea: 00           nop
00eb: 00           nop
00ec: 00           nop
00ed: 00           nop
00ee: 00           nop
00ef: 00           nop
00f0: 00           nop
00f1: 00           nop
00f2: 00           nop
00f3: 00           nop
00f4: 00           nop
00f5: 00           nop
00f6: 00           nop
00f7: 00           nop
00f8: 00           nop
00f9: 00           nop
00fa: 00           nop
00fb: 00           nop
00fc: 00           nop
00fd: 00           nop
00fe: 00           nop
00ff: 00           nop
0100: c3 5c dd     jp   $DD5C
0103: c3 58 dd     jp   $DD58
0106: 7f           ld   a,a
0107: 00           nop
0108: 20 20        jr   nz,$012A
010a: 20 20        jr   nz,$012C
010c: 20 20        jr   nz,$012E
010e: 20 20        jr   nz,$0130
0110: 20 20        jr   nz,$0132
0112: 20 20        jr   nz,$0134
0114: 20 20        jr   nz,$0136
0116: 20 20        jr   nz,$0138
0118: 43           ld   b,e
0119: 4f           ld   c,a
011a: 50           ld   d,b
011b: 59           ld   e,c
011c: 52           ld   d,d
011d: 49           ld   c,c
011e: 47           ld   b,a
011f: 48           ld   c,b
0120: 54           ld   d,h
0121: 20 28        jr   nz,$014B
0123: 43           ld   b,e
0124: 29           add  hl,hl
0125: 20 31        jr   nz,$0158
0127: 39           add  hl,sp
0128: 37           scf
0129: 39           add  hl,sp
012a: 2c           inc  l
012b: 20 44        jr   nz,$0171
012d: 49           ld   c,c
012e: 47           ld   b,a
012f: 49           ld   c,c
0130: 54           ld   d,h
0131: 41           ld   b,c
0132: 4c           ld   c,h
0133: 20 52        jr   nz,$0187
0135: 45           ld   b,l
0136: 53           ld   d,e
0137: 45           ld   b,l
0138: 41           ld   b,c
0139: 52           ld   d,d
013a: 43           ld   b,e
013b: 48           ld   c,b
013c: 20 20        jr   nz,$015E
013e: 00           nop
013f: 00           nop
0140: 00           nop
0141: 00           nop
0142: 00           nop
0143: 00           nop
0144: 00           nop
0145: 00           nop
0146: 00           nop
0147: 00           nop
0148: 00           nop
0149: 00           nop
014a: 00           nop
014b: 00           nop
014c: 00           nop
014d: 00           nop
014e: 00           nop
014f: 00           nop
0150: 00           nop
0151: 00           nop
0152: 00           nop
0153: 00           nop
0154: 00           nop
0155: 00           nop
0156: 00           nop
0157: 00           nop
0158: 00           nop
0159: 00           nop
015a: 00           nop
015b: 00           nop
015c: 00           nop
015d: 00           nop
015e: 00           nop
015f: 00           nop
0160: 00           nop
0161: 00           nop
0162: 00           nop
0163: 00           nop
0164: 00           nop
0165: 00           nop
0166: 00           nop
0167: 00           nop
0168: 00           nop
0169: 00           nop
016a: 00           nop
016b: 00           nop
016c: 00           nop
016d: 00           nop
016e: 00           nop
016f: 00           nop
0170: 00           nop
0171: 00           nop
0172: 00           nop
0173: 00           nop
0174: 00           nop
0175: 00           nop
0176: 00           nop
0177: 00           nop
0178: 00           nop
0179: 00           nop
017a: 00           nop
017b: 00           nop
017c: 00           nop
017d: 00           nop
017e: 00           nop
017f: 00           nop
0180: 00           nop
0181: 00           nop
0182: 00           nop
0183: 00           nop
0184: 00           nop
0185: 00           nop
0186: 00           nop
0187: 00           nop
0188: 08           ex   af,af'
0189: da 00 00     jp   c,$0000
018c: 5f           ld   e,a
018d: 0e 02        ld   c,$02
018f: c3 05 00     jp   $0005
0192: c5           push bc
0193: cd 8c da     call $DA8C
0196: c1           pop  bc
0197: c9           ret
0198: 3e 0d        ld   a,$0D
019a: cd 92 da     call $DA92
019d: 3e 0a        ld   a,$0A
019f: c3 92 da     jp   $DA92
01a2: 3e 20        ld   a,$20
01a4: c3 92 da     jp   $DA92
01a7: c5           push bc
01a8: cd 98 da     call $DA98
01ab: e1           pop  hl
01ac: 7e           ld   a,(hl)
01ad: b7           or   a
01ae: c8           ret  z
01af: 23           inc  hl
01b0: e5           push hl
01b1: cd 8c da     call $DA8C
01b4: e1           pop  hl
01b5: c3 ac da     jp   $DAAC
01b8: 0e 0d        ld   c,$0D
01ba: c3 05 00     jp   $0005
01bd: 5f           ld   e,a
01be: 0e 0e        ld   c,$0E
01c0: c3 05 00     jp   $0005
01c3: cd 05 00     call $0005
01c6: 32 ee e1     ld   ($E1EE),a
01c9: 3c           inc  a
01ca: c9           ret
01cb: 0e 0f        ld   c,$0F
01cd: c3 c3 da     jp   $DAC3
01d0: af           xor  a
01d1: 32 ed e1     ld   ($E1ED),a
01d4: 11 cd e1     ld   de,$E1CD
01d7: c3 cb da     jp   $DACB
01da: 0e 10        ld   c,$10
01dc: c3 c3 da     jp   $DAC3
01df: 0e 11        ld   c,$11
01e1: c3 c3 da     jp   $DAC3
01e4: 0e 12        ld   c,$12
01e6: c3 c3 da     jp   $DAC3
01e9: 11 cd e1     ld   de,$E1CD
01ec: c3 df da     jp   $DADF
01ef: 0e 13        ld   c,$13
01f1: c3 05 00     jp   $0005
01f4: cd 05 00     call $0005
01f7: b7           or   a
01f8: c9           ret
01f9: 0e 14        ld   c,$14
01fb: c3 f4 da     jp   $DAF4
01fe: 11 cd e1     ld   de,$E1CD
0201: c3 f9 da     jp   $DAF9
0204: 0e 15        ld   c,$15
0206: c3 f4 da     jp   $DAF4
0209: 0e 16        ld   c,$16
020b: c3 c3 da     jp   $DAC3
020e: 0e 17        ld   c,$17
0210: c3 05 00     jp   $0005
0213: 1e ff        ld   e,$FF
0215: 0e 20        ld   c,$20
0217: c3 05 00     jp   $0005
021a: cd 13 db     call $DB13
021d: 87           add  a,a
021e: 87           add  a,a
021f: 87           add  a,a
0220: 87           add  a,a
0221: 21 ef e1     ld   hl,$E1EF
0224: b6           or   (hl)
0225: 32 04 00     ld   ($0004),a
0228: c9           ret
0229: 3a ef e1     ld   a,($E1EF)
022c: 32 04 00     ld   ($0004),a
022f: c9           ret
0230: fe 61        cp   $61
0232: d8           ret  c
0233: fe 7b        cp   $7B
0235: d0           ret  nc
0236: e6 5f        and  $5F
0238: c9           ret
0239: 3a ab e1     ld   a,($E1AB)
023c: b7           or   a
023d: ca 96 db     jp   z,$DB96
0240: 3a ef e1     ld   a,($E1EF)
0243: b7           or   a
0244: 3e 00        ld   a,$00
0246: c4 bd da     call nz,$DABD
0249: 11 ac e1     ld   de,$E1AC
024c: cd cb da     call $DACB
024f: ca 96 db     jp   z,$DB96
0252: 3a bb e1     ld   a,($E1BB)
0255: 3d           dec  a
0256: 32 cc e1     ld   ($E1CC),a
0259: 11 ac e1     ld   de,$E1AC
025c: cd f9 da     call $DAF9
025f: c2 96 db     jp   nz,$DB96
0262: 11 07 da     ld   de,$DA07
0265: 21 80 00     ld   hl,$0080
0268: 06 80        ld   b,$80
026a: cd 42 de     call $DE42
026d: 21 ba e1     ld   hl,$E1BA
0270: 36 00        ld   (hl),$00
0272: 23           inc  hl
0273: 35           dec  (hl)
0274: 11 ac e1     ld   de,$E1AC
0277: cd da da     call $DADA
027a: ca 96 db     jp   z,$DB96
027d: 3a ef e1     ld   a,($E1EF)
0280: b7           or   a
0281: c4 bd da     call nz,$DABD
0284: 21 08 da     ld   hl,$DA08
0287: cd ac da     call $DAAC
028a: cd c2 db     call $DBC2
028d: ca a7 db     jp   z,$DBA7
0290: cd dd db     call $DBDD
0293: c3 82 dd     jp   $DD82
0296: cd dd db     call $DBDD
0299: cd 1a db     call $DB1A
029c: 0e 0a        ld   c,$0A
029e: 11 06 da     ld   de,$DA06
02a1: cd 05 00     call $0005
02a4: cd 29 db     call $DB29
02a7: 21 07 da     ld   hl,$DA07
02aa: 46           ld   b,(hl)
02ab: 23           inc  hl
02ac: 78           ld   a,b
02ad: b7           or   a
02ae: ca ba db     jp   z,$DBBA
02b1: 7e           ld   a,(hl)
02b2: cd 30 db     call $DB30
02b5: 77           ld   (hl),a
02b6: 05           dec  b
02b7: c3 ab db     jp   $DBAB
02ba: 77           ld   (hl),a
02bb: 21 08 da     ld   hl,$DA08
02be: 22 88 da     ld   ($DA88),hl
02c1: c9           ret
02c2: 0e 0b        ld   c,$0B
02c4: cd 05 00     call $0005
02c7: b7           or   a
02c8: c8           ret  z
02c9: 0e 01        ld   c,$01
02cb: cd 05 00     call $0005
02ce: b7           or   a
02cf: c9           ret
02d0: 0e 19        ld   c,$19
02d2: c3 05 00     jp   $0005
02d5: 11 80 00     ld   de,$0080
02d8: 0e 1a        ld   c,$1A
02da: c3 05 00     jp   $0005
02dd: 21 ab e1     ld   hl,$E1AB
02e0: 7e           ld   a,(hl)
02e1: b7           or   a
02e2: c8           ret  z
02e3: 36 00        ld   (hl),$00
02e5: af           xor  a
02e6: cd bd da     call $DABD
02e9: 11 ac e1     ld   de,$E1AC
02ec: cd ef da     call $DAEF
02ef: 3a ef e1     ld   a,($E1EF)
02f2: c3 bd da     jp   $DABD
02f5: 11 28 dd     ld   de,$DD28
02f8: 21 00 e2     ld   hl,$E200
02fb: 06 06        ld   b,$06
02fd: 1a           ld   a,(de)
02fe: be           cp   (hl)
02ff: c2 cf dd     jp   nz,$DDCF
0302: 13           inc  de
0303: 23           inc  hl
0304: 05           dec  b
0305: c2 fd db     jp   nz,$DBFD
0308: c9           ret
0309: cd 98 da     call $DA98
030c: 2a 8a da     ld   hl,($DA8A)
030f: 7e           ld   a,(hl)
0310: fe 20        cp   $20
0312: ca 22 dc     jp   z,$DC22
0315: b7           or   a
0316: ca 22 dc     jp   z,$DC22
0319: e5           push hl
031a: cd 8c da     call $DA8C
031d: e1           pop  hl
031e: 23           inc  hl
031f: c3 0f dc     jp   $DC0F
0322: 3e 3f        ld   a,$3F
0324: cd 8c da     call $DA8C
0327: cd 98 da     call $DA98
032a: cd dd db     call $DBDD
032d: c3 82 dd     jp   $DD82
0330: 1a           ld   a,(de)
0331: b7           or   a
0332: c8           ret  z
0333: fe 20        cp   $20
0335: da 09 dc     jp   c,$DC09
0338: c8           ret  z
0339: fe 3d        cp   $3D
033b: c8           ret  z
033c: fe 5f        cp   $5F
033e: c8           ret  z
033f: fe 2e        cp   $2E
0341: c8           ret  z
0342: fe 3a        cp   $3A
0344: c8           ret  z
0345: fe 3b        cp   $3B
0347: c8           ret  z
0348: fe 3c        cp   $3C
034a: c8           ret  z
034b: fe 3e        cp   $3E
034d: c8           ret  z
034e: c9           ret
034f: 1a           ld   a,(de)
0350: b7           or   a
0351: c8           ret  z
0352: fe 20        cp   $20
0354: c0           ret  nz
0355: 13           inc  de
0356: c3 4f dc     jp   $DC4F
0359: 85           add  a,l
035a: 6f           ld   l,a
035b: d0           ret  nc
035c: 24           inc  h
035d: c9           ret
035e: 3e 00        ld   a,$00
0360: 21 cd e1     ld   hl,$E1CD
0363: cd 59 dc     call $DC59
0366: e5           push hl
0367: e5           push hl
0368: af           xor  a
0369: 32 f0 e1     ld   ($E1F0),a
036c: 2a 88 da     ld   hl,($DA88)
036f: eb           ex   de,hl
0370: cd 4f dc     call $DC4F
0373: eb           ex   de,hl
0374: 22 8a da     ld   ($DA8A),hl
0377: eb           ex   de,hl
0378: e1           pop  hl
0379: 1a           ld   a,(de)
037a: b7           or   a
037b: ca 89 dc     jp   z,$DC89
037e: de 40        sbc  a,$40
0380: 47           ld   b,a
0381: 13           inc  de
0382: 1a           ld   a,(de)
0383: fe 3a        cp   $3A
0385: ca 90 dc     jp   z,$DC90
0388: 1b           dec  de
0389: 3a ef e1     ld   a,($E1EF)
038c: 77           ld   (hl),a
038d: c3 96 dc     jp   $DC96
0390: 78           ld   a,b
0391: 32 f0 e1     ld   ($E1F0),a
0394: 70           ld   (hl),b
0395: 13           inc  de
0396: 06 08        ld   b,$08
0398: cd 30 dc     call $DC30
039b: ca b9 dc     jp   z,$DCB9
039e: 23           inc  hl
039f: fe 2a        cp   $2A
03a1: c2 a9 dc     jp   nz,$DCA9
03a4: 36 3f        ld   (hl),$3F
03a6: c3 ab dc     jp   $DCAB
03a9: 77           ld   (hl),a
03aa: 13           inc  de
03ab: 05           dec  b
03ac: c2 98 dc     jp   nz,$DC98
03af: cd 30 dc     call $DC30
03b2: ca c0 dc     jp   z,$DCC0
03b5: 13           inc  de
03b6: c3 af dc     jp   $DCAF
03b9: 23           inc  hl
03ba: 36 20        ld   (hl),$20
03bc: 05           dec  b
03bd: c2 b9 dc     jp   nz,$DCB9
03c0: 06 03        ld   b,$03
03c2: fe 2e        cp   $2E
03c4: c2 e9 dc     jp   nz,$DCE9
03c7: 13           inc  de
03c8: cd 30 dc     call $DC30
03cb: ca e9 dc     jp   z,$DCE9
03ce: 23           inc  hl
03cf: fe 2a        cp   $2A
03d1: c2 d9 dc     jp   nz,$DCD9
03d4: 36 3f        ld   (hl),$3F
03d6: c3 db dc     jp   $DCDB
03d9: 77           ld   (hl),a
03da: 13           inc  de
03db: 05           dec  b
03dc: c2 c8 dc     jp   nz,$DCC8
03df: cd 30 dc     call $DC30
03e2: ca f0 dc     jp   z,$DCF0
03e5: 13           inc  de
03e6: c3 df dc     jp   $DCDF
03e9: 23           inc  hl
03ea: 36 20        ld   (hl),$20
03ec: 05           dec  b
03ed: c2 e9 dc     jp   nz,$DCE9
03f0: 06 03        ld   b,$03
03f2: 23           inc  hl
03f3: 36 00        ld   (hl),$00
03f5: 05           dec  b
03f6: c2 f2 dc     jp   nz,$DCF2
03f9: eb           ex   de,hl
03fa: 22 88 da     ld   ($DA88),hl
03fd: e1           pop  hl
03fe: 01 0b 00     ld   bc,$000B
0401: 23           inc  hl
0402: 7e           ld   a,(hl)
0403: fe 3f        cp   $3F
0405: c2 09 dd     jp   nz,$DD09
0408: 04           inc  b
0409: 0d           dec  c
040a: c2 01 dd     jp   nz,$DD01
040d: 78           ld   a,b
040e: b7           or   a
040f: c9           ret
0410: 44           ld   b,h
0411: 49           ld   c,c
0412: 52           ld   d,d
0413: 20 45        jr   nz,$045A
0415: 52           ld   d,d
0416: 41           ld   b,c
0417: 20 54        jr   nz,$046D
0419: 59           ld   e,c
041a: 50           ld   d,b
041b: 45           ld   b,l
041c: 53           ld   d,e
041d: 41           ld   b,c
041e: 56           ld   d,(hl)
041f: 45           ld   b,l
0420: 52           ld   d,d
0421: 45           ld   b,l
0422: 4e           ld   c,(hl)
0423: 20 55        jr   nz,$047A
0425: 53           ld   d,e
0426: 45           ld   b,l
0427: 52           ld   d,d
0428: a8           xor  b
0429: 16 00        ld   d,$00
042b: 01 34 ef     ld   bc,$EF34
042e: 21 10 dd     ld   hl,$DD10
0431: 0e 00        ld   c,$00
0433: 79           ld   a,c
0434: fe 06        cp   $06
0436: d0           ret  nc
0437: 11 ce e1     ld   de,$E1CE
043a: 06 04        ld   b,$04
043c: 1a           ld   a,(de)
043d: be           cp   (hl)
043e: c2 4f dd     jp   nz,$DD4F
0441: 13           inc  de
0442: 23           inc  hl
0443: 05           dec  b
0444: c2 3c dd     jp   nz,$DD3C
0447: 1a           ld   a,(de)
0448: fe 20        cp   $20
044a: c2 54 dd     jp   nz,$DD54
044d: 79           ld   a,c
044e: c9           ret
044f: 23           inc  hl
0450: 05           dec  b
0451: c2 4f dd     jp   nz,$DD4F
0454: 0c           inc  c
0455: c3 33 dd     jp   $DD33
0458: af           xor  a
0459: 32 07 da     ld   ($DA07),a
045c: 31 ab e1     ld   sp,$E1AB
045f: c5           push bc
0460: 79           ld   a,c
0461: 1f           rra
0462: 1f           rra
0463: 1f           rra
0464: 1f           rra
0465: e6 0f        and  $0F
0467: 5f           ld   e,a
0468: cd 15 db     call $DB15
046b: cd b8 da     call $DAB8
046e: 32 ab e1     ld   ($E1AB),a
0471: c1           pop  bc
0472: 79           ld   a,c
0473: e6 0f        and  $0F
0475: 32 ef e1     ld   ($E1EF),a
0478: cd bd da     call $DABD
047b: 3a 07 da     ld   a,($DA07)
047e: b7           or   a
047f: c2 98 dd     jp   nz,$DD98
0482: 31 ab e1     ld   sp,$E1AB
0485: cd 98 da     call $DA98
0488: cd d0 db     call $DBD0
048b: c6 41        add  a,$41
048d: cd 8c da     call $DA8C
0490: 3e 3e        ld   a,$3E
0492: cd 8c da     call $DA8C
0495: cd 39 db     call $DB39
0498: 11 80 00     ld   de,$0080
049b: cd d8 db     call $DBD8
049e: cd d0 db     call $DBD0
04a1: 32 ef e1     ld   ($E1EF),a
04a4: cd 5e dc     call $DC5E
04a7: c4 09 dc     call nz,$DC09
04aa: 3a f0 e1     ld   a,($E1F0)
04ad: b7           or   a
04ae: c2 a5 e0     jp   nz,$E0A5
04b1: cd 2e dd     call $DD2E
04b4: 21 c1 dd     ld   hl,$DDC1
04b7: 5f           ld   e,a
04b8: 16 00        ld   d,$00
04ba: 19           add  hl,de
04bb: 19           add  hl,de
04bc: 7e           ld   a,(hl)
04bd: 23           inc  hl
04be: 66           ld   h,(hl)
04bf: 6f           ld   l,a
04c0: e9           jp   (hl)
04c1: 77           ld   (hl),a
04c2: de 1f        sbc  a,$1F
04c4: df           rst  $18
04c5: 5d           ld   e,l
04c6: df           rst  $18
04c7: ad           xor  l
04c8: df           rst  $18
04c9: 10 e0        djnz $04AB
04cb: 8e           adc  a,(hl)
04cc: e0           ret  po
04cd: a5           and  l
04ce: e0           ret  po
04cf: 21 f3 76     ld   hl,$76F3
04d2: 22 00 da     ld   ($DA00),hl
04d5: 21 00 da     ld   hl,$DA00
04d8: e9           jp   (hl)
04d9: 01 df dd     ld   bc,$DDDF
04dc: c3 a7 da     jp   $DAA7
04df: 52           ld   d,d
04e0: 45           ld   b,l
04e1: 41           ld   b,c
04e2: 44           ld   b,h
04e3: 20 45        jr   nz,$052A
04e5: 52           ld   d,d
04e6: 52           ld   d,d
04e7: 4f           ld   c,a
04e8: 52           ld   d,d
04e9: 00           nop
04ea: 01 f0 dd     ld   bc,$DDF0
04ed: c3 a7 da     jp   $DAA7
04f0: 4e           ld   c,(hl)
04f1: 4f           ld   c,a
04f2: 20 46        jr   nz,$053A
04f4: 49           ld   c,c
04f5: 4c           ld   c,h
04f6: 45           ld   b,l
04f7: 00           nop
04f8: cd 5e dc     call $DC5E
04fb: 3a f0 e1     ld   a,($E1F0)
04fe: b7           or   a
04ff: c2 09 dc     jp   nz,$DC09
0502: 21 ce e1     ld   hl,$E1CE
0505: 01 0b 00     ld   bc,$000B
0508: 7e           ld   a,(hl)
0509: fe 20        cp   $20
050b: ca 33 de     jp   z,$DE33
050e: 23           inc  hl
050f: d6 30        sub  $30
0511: fe 0a        cp   $0A
0513: d2 09 dc     jp   nc,$DC09
0516: 57           ld   d,a
0517: 78           ld   a,b
0518: e6 e0        and  $E0
051a: c2 09 dc     jp   nz,$DC09
051d: 78           ld   a,b
051e: 07           rlca
051f: 07           rlca
0520: 07           rlca
0521: 80           add  a,b
0522: da 09 dc     jp   c,$DC09
0525: 80           add  a,b
0526: da 09 dc     jp   c,$DC09
0529: 82           add  a,d
052a: da 09 dc     jp   c,$DC09
052d: 47           ld   b,a
052e: 0d           dec  c
052f: c2 08 de     jp   nz,$DE08
0532: c9           ret
0533: 7e           ld   a,(hl)
0534: fe 20        cp   $20
0536: c2 09 dc     jp   nz,$DC09
0539: 23           inc  hl
053a: 0d           dec  c
053b: c2 33 de     jp   nz,$DE33
053e: 78           ld   a,b
053f: c9           ret
0540: 06 03        ld   b,$03
0542: 7e           ld   a,(hl)
0543: 12           ld   (de),a
0544: 23           inc  hl
0545: 13           inc  de
0546: 05           dec  b
0547: c2 42 de     jp   nz,$DE42
054a: c9           ret
054b: 21 80 00     ld   hl,$0080
054e: 81           add  a,c
054f: cd 59 dc     call $DC59
0552: 7e           ld   a,(hl)
0553: c9           ret
0554: af           xor  a
0555: 32 cd e1     ld   ($E1CD),a
0558: 3a f0 e1     ld   a,($E1F0)
055b: b7           or   a
055c: c8           ret  z
055d: 3d           dec  a
055e: 21 ef e1     ld   hl,$E1EF
0561: be           cp   (hl)
0562: c8           ret  z
0563: c3 bd da     jp   $DABD
0566: 3a f0 e1     ld   a,($E1F0)
0569: b7           or   a
056a: c8           ret  z
056b: 3d           dec  a
056c: 21 ef e1     ld   hl,$E1EF
056f: be           cp   (hl)
0570: c8           ret  z
0571: 3a ef e1     ld   a,($E1EF)
0574: c3 bd da     jp   $DABD
0577: cd 5e dc     call $DC5E
057a: cd 54 de     call $DE54
057d: 21 ce e1     ld   hl,$E1CE
0580: 7e           ld   a,(hl)
0581: fe 20        cp   $20
0583: c2 8f de     jp   nz,$DE8F
0586: 06 0b        ld   b,$0B
0588: 36 3f        ld   (hl),$3F
058a: 23           inc  hl
058b: 05           dec  b
058c: c2 88 de     jp   nz,$DE88
058f: 1e 00        ld   e,$00
0591: d5           push de
0592: cd e9 da     call $DAE9
0595: cc ea dd     call z,$DDEA
0598: ca 1b df     jp   z,$DF1B
059b: 3a ee e1     ld   a,($E1EE)
059e: 0f           rrca
059f: 0f           rrca
05a0: 0f           rrca
05a1: e6 60        and  $60
05a3: 4f           ld   c,a
05a4: 3e 0a        ld   a,$0A
05a6: cd 4b de     call $DE4B
05a9: 17           rla
05aa: da 0f df     jp   c,$DF0F
05ad: d1           pop  de
05ae: 7b           ld   a,e
05af: 1c           inc  e
05b0: d5           push de
05b1: e6 03        and  $03
05b3: f5           push af
05b4: c2 cc de     jp   nz,$DECC
05b7: cd 98 da     call $DA98
05ba: c5           push bc
05bb: cd d0 db     call $DBD0
05be: c1           pop  bc
05bf: c6 41        add  a,$41
05c1: cd 92 da     call $DA92
05c4: 3e 3a        ld   a,$3A
05c6: cd 92 da     call $DA92
05c9: c3 d4 de     jp   $DED4
05cc: cd a2 da     call $DAA2
05cf: 3e 3a        ld   a,$3A
05d1: cd 92 da     call $DA92
05d4: cd a2 da     call $DAA2
05d7: 06 01        ld   b,$01
05d9: 78           ld   a,b
05da: cd 4b de     call $DE4B
05dd: e6 7f        and  $7F
05df: fe 20        cp   $20
05e1: c2 f9 de     jp   nz,$DEF9
05e4: f1           pop  af
05e5: f5           push af
05e6: fe 03        cp   $03
05e8: c2 f7 de     jp   nz,$DEF7
05eb: 3e 09        ld   a,$09
05ed: cd 4b de     call $DE4B
05f0: e6 7f        and  $7F
05f2: fe 20        cp   $20
05f4: ca 0e df     jp   z,$DF0E
05f7: 3e 20        ld   a,$20
05f9: cd 92 da     call $DA92
05fc: 04           inc  b
05fd: 78           ld   a,b
05fe: fe 0c        cp   $0C
0600: d2 0e df     jp   nc,$DF0E
0603: fe 09        cp   $09
0605: c2 d9 de     jp   nz,$DED9
0608: cd a2 da     call $DAA2
060b: c3 d9 de     jp   $DED9
060e: f1           pop  af
060f: cd c2 db     call $DBC2
0612: c2 1b df     jp   nz,$DF1B
0615: cd e4 da     call $DAE4
0618: c3 98 de     jp   $DE98
061b: d1           pop  de
061c: c3 86 e1     jp   $E186
061f: cd 5e dc     call $DC5E
0622: fe 0b        cp   $0B
0624: c2 42 df     jp   nz,$DF42
0627: 01 52 df     ld   bc,$DF52
062a: cd a7 da     call $DAA7
062d: cd 39 db     call $DB39
0630: 21 07 da     ld   hl,$DA07
0633: 35           dec  (hl)
0634: c2 82 dd     jp   nz,$DD82
0637: 23           inc  hl
0638: 7e           ld   a,(hl)
0639: fe 59        cp   $59
063b: c2 82 dd     jp   nz,$DD82
063e: 23           inc  hl
063f: 22 88 da     ld   ($DA88),hl
0642: cd 54 de     call $DE54
0645: 11 cd e1     ld   de,$E1CD
0648: cd ef da     call $DAEF
064b: 3c           inc  a
064c: cc ea dd     call z,$DDEA
064f: c3 86 e1     jp   $E186
0652: 41           ld   b,c
0653: 4c           ld   c,h
0654: 4c           ld   c,h
0655: 20 28        jr   nz,$067F
0657: 59           ld   e,c
0658: 2f           cpl
0659: 4e           ld   c,(hl)
065a: 29           add  hl,hl
065b: 3f           ccf
065c: 00           nop
065d: cd 5e dc     call $DC5E
0660: c2 09 dc     jp   nz,$DC09
0663: cd 54 de     call $DE54
0666: cd d0 da     call $DAD0
0669: ca a7 df     jp   z,$DFA7
066c: cd 98 da     call $DA98
066f: 21 f1 e1     ld   hl,$E1F1
0672: 36 ff        ld   (hl),$FF
0674: 21 f1 e1     ld   hl,$E1F1
0677: 7e           ld   a,(hl)
0678: fe 80        cp   $80
067a: da 87 df     jp   c,$DF87
067d: e5           push hl
067e: cd fe da     call $DAFE
0681: e1           pop  hl
0682: c2 a0 df     jp   nz,$DFA0
0685: af           xor  a
0686: 77           ld   (hl),a
0687: 34           inc  (hl)
0688: 21 80 00     ld   hl,$0080
068b: cd 59 dc     call $DC59
068e: 7e           ld   a,(hl)
068f: fe 1a        cp   $1A
0691: ca 86 e1     jp   z,$E186
0694: cd 8c da     call $DA8C
0697: cd c2 db     call $DBC2
069a: c2 86 e1     jp   nz,$E186
069d: c3 74 df     jp   $DF74
06a0: 3d           dec  a
06a1: ca 86 e1     jp   z,$E186
06a4: cd d9 dd     call $DDD9
06a7: cd 66 de     call $DE66
06aa: c3 09 dc     jp   $DC09
06ad: cd f8 dd     call $DDF8
06b0: f5           push af
06b1: cd 5e dc     call $DC5E
06b4: c2 09 dc     jp   nz,$DC09
06b7: cd 54 de     call $DE54
06ba: 11 cd e1     ld   de,$E1CD
06bd: d5           push de
06be: cd ef da     call $DAEF
06c1: d1           pop  de
06c2: cd 09 db     call $DB09
06c5: ca fb df     jp   z,$DFFB
06c8: af           xor  a
06c9: 32 ed e1     ld   ($E1ED),a
06cc: f1           pop  af
06cd: 6f           ld   l,a
06ce: 26 00        ld   h,$00
06d0: 29           add  hl,hl
06d1: 11 00 01     ld   de,$0100
06d4: 7c           ld   a,h
06d5: b5           or   l
06d6: ca f1 df     jp   z,$DFF1
06d9: 2b           dec  hl
06da: e5           push hl
06db: 21 80 00     ld   hl,$0080
06de: 19           add  hl,de
06df: e5           push hl
06e0: cd d8 db     call $DBD8
06e3: 11 cd e1     ld   de,$E1CD
06e6: cd 04 db     call $DB04
06e9: d1           pop  de
06ea: e1           pop  hl
06eb: c2 fb df     jp   nz,$DFFB
06ee: c3 d4 df     jp   $DFD4
06f1: 11 cd e1     ld   de,$E1CD
06f4: cd da da     call $DADA
06f7: 3c           inc  a
06f8: c2 01 e0     jp   nz,$E001
06fb: 01 07 e0     ld   bc,$E007
06fe: cd a7 da     call $DAA7
0701: cd d5 db     call $DBD5
0704: c3 86 e1     jp   $E186
0707: 4e           ld   c,(hl)
0708: 4f           ld   c,a
0709: 20 53        jr   nz,$075E
070b: 50           ld   d,b
070c: 41           ld   b,c
070d: 43           ld   b,e
070e: 45           ld   b,l
070f: 00           nop
0710: cd 5e dc     call $DC5E
0713: c2 09 dc     jp   nz,$DC09
0716: 3a f0 e1     ld   a,($E1F0)
0719: f5           push af
071a: cd 54 de     call $DE54
071d: cd e9 da     call $DAE9
0720: c2 79 e0     jp   nz,$E079
0723: 21 cd e1     ld   hl,$E1CD
0726: 11 dd e1     ld   de,$E1DD
0729: 06 10        ld   b,$10
072b: cd 42 de     call $DE42
072e: 2a 88 da     ld   hl,($DA88)
0731: eb           ex   de,hl
0732: cd 4f dc     call $DC4F
0735: fe 3d        cp   $3D
0737: ca 3f e0     jp   z,$E03F
073a: fe 5f        cp   $5F
073c: c2 73 e0     jp   nz,$E073
073f: eb           ex   de,hl
0740: 23           inc  hl
0741: 22 88 da     ld   ($DA88),hl
0744: cd 5e dc     call $DC5E
0747: c2 73 e0     jp   nz,$E073
074a: f1           pop  af
074b: 47           ld   b,a
074c: 21 f0 e1     ld   hl,$E1F0
074f: 7e           ld   a,(hl)
0750: b7           or   a
0751: ca 59 e0     jp   z,$E059
0754: b8           cp   b
0755: 70           ld   (hl),b
0756: c2 73 e0     jp   nz,$E073
0759: 70           ld   (hl),b
075a: af           xor  a
075b: 32 cd e1     ld   ($E1CD),a
075e: cd e9 da     call $DAE9
0761: ca 6d e0     jp   z,$E06D
0764: 11 cd e1     ld   de,$E1CD
0767: cd 0e db     call $DB0E
076a: c3 86 e1     jp   $E186
076d: cd ea dd     call $DDEA
0770: c3 86 e1     jp   $E186
0773: cd 66 de     call $DE66
0776: c3 09 dc     jp   $DC09
0779: 01 82 e0     ld   bc,$E082
077c: cd a7 da     call $DAA7
077f: c3 86 e1     jp   $E186
0782: 46           ld   b,(hl)
0783: 49           ld   c,c
0784: 4c           ld   c,h
0785: 45           ld   b,l
0786: 20 45        jr   nz,$07CD
0788: 58           ld   e,b
0789: 49           ld   c,c
078a: 53           ld   d,e
078b: 54           ld   d,h
078c: 53           ld   d,e
078d: 00           nop
078e: cd f8 dd     call $DDF8
0791: fe 10        cp   $10
0793: d2 09 dc     jp   nc,$DC09
0796: 5f           ld   e,a
0797: 3a ce e1     ld   a,($E1CE)
079a: fe 20        cp   $20
079c: ca 09 dc     jp   z,$DC09
079f: cd 15 db     call $DB15
07a2: c3 89 e1     jp   $E189
07a5: cd f5 db     call $DBF5
07a8: 3a ce e1     ld   a,($E1CE)
07ab: fe 20        cp   $20
07ad: c2 c4 e0     jp   nz,$E0C4
07b0: 3a f0 e1     ld   a,($E1F0)
07b3: b7           or   a
07b4: ca 89 e1     jp   z,$E189
07b7: 3d           dec  a
07b8: 32 ef e1     ld   ($E1EF),a
07bb: cd 29 db     call $DB29
07be: cd bd da     call $DABD
07c1: c3 89 e1     jp   $E189
07c4: 11 d6 e1     ld   de,$E1D6
07c7: 1a           ld   a,(de)
07c8: fe 20        cp   $20
07ca: c2 09 dc     jp   nz,$DC09
07cd: d5           push de
07ce: cd 54 de     call $DE54
07d1: d1           pop  de
07d2: 21 83 e1     ld   hl,$E183
07d5: cd 40 de     call $DE40
07d8: cd d0 da     call $DAD0
07db: ca 6b e1     jp   z,$E16B
07de: 21 00 01     ld   hl,$0100
07e1: e5           push hl
07e2: eb           ex   de,hl
07e3: cd d8 db     call $DBD8
07e6: 11 cd e1     ld   de,$E1CD
07e9: cd f9 da     call $DAF9
07ec: c2 01 e1     jp   nz,$E101
07ef: e1           pop  hl
07f0: 11 80 00     ld   de,$0080
07f3: 19           add  hl,de
07f4: 11 00 da     ld   de,$DA00
07f7: 7d           ld   a,l
07f8: 93           sub  e
07f9: 7c           ld   a,h
07fa: 9a           sbc  a,d
07fb: d2 71 e1     jp   nc,$E171
07fe: c3 e1 e0     jp   $E0E1
0801: e1           pop  hl
0802: 3d           dec  a
0803: c2 71 e1     jp   nz,$E171
0806: cd 66 de     call $DE66
0809: cd 5e dc     call $DC5E
080c: 21 f0 e1     ld   hl,$E1F0
080f: e5           push hl
0810: 7e           ld   a,(hl)
0811: 32 cd e1     ld   ($E1CD),a
0814: 3e 10        ld   a,$10
0816: cd 60 dc     call $DC60
0819: e1           pop  hl
081a: 7e           ld   a,(hl)
081b: 32 dd e1     ld   ($E1DD),a
081e: af           xor  a
081f: 32 ed e1     ld   ($E1ED),a
0822: 11 5c 00     ld   de,$005C
0825: 21 cd e1     ld   hl,$E1CD
0828: 06 21        ld   b,$21
082a: cd 42 de     call $DE42
082d: 21 08 da     ld   hl,$DA08
0830: 7e           ld   a,(hl)
0831: b7           or   a
0832: ca 3e e1     jp   z,$E13E
0835: fe 20        cp   $20
0837: ca 3e e1     jp   z,$E13E
083a: 23           inc  hl
083b: c3 30 e1     jp   $E130
083e: 06 00        ld   b,$00
0840: 11 81 00     ld   de,$0081
0843: 7e           ld   a,(hl)
0844: 12           ld   (de),a
0845: b7           or   a
0846: ca 4f e1     jp   z,$E14F
0849: 04           inc  b
084a: 23           inc  hl
084b: 13           inc  de
084c: c3 43 e1     jp   $E143
084f: 78           ld   a,b
0850: 32 80 00     ld   ($0080),a
0853: cd 98 da     call $DA98
0856: cd d5 db     call $DBD5
0859: cd 1a db     call $DB1A
085c: cd 00 01     call $0100
085f: 31 ab e1     ld   sp,$E1AB
0862: cd 29 db     call $DB29
0865: cd bd da     call $DABD
0868: c3 82 dd     jp   $DD82
086b: cd 66 de     call $DE66
086e: c3 09 dc     jp   $DC09
0871: 01 7a e1     ld   bc,$E17A
0874: cd a7 da     call $DAA7
0877: c3 86 e1     jp   $E186
087a: 42           ld   b,d
087b: 41           ld   b,c
087c: 44           ld   b,h
087d: 20 4c        jr   nz,$08CB
087f: 4f           ld   c,a
0880: 41           ld   b,c
0881: 44           ld   b,h
0882: 00           nop
0883: 43           ld   b,e
0884: 4f           ld   c,a
0885: 4d           ld   c,l
0886: cd 66 de     call $DE66
0889: cd 5e dc     call $DC5E
088c: 3a ce e1     ld   a,($E1CE)
088f: d6 20        sub  $20
0891: 21 f0 e1     ld   hl,$E1F0
0894: b6           or   (hl)
0895: c2 09 dc     jp   nz,$DC09
0898: c3 82 dd     jp   $DD82
089b: 00           nop
089c: 00           nop
089d: 00           nop
089e: 00           nop
089f: 00           nop
08a0: 00           nop
08a1: 00           nop
08a2: 00           nop
08a3: 00           nop
08a4: 00           nop
08a5: 00           nop
08a6: 00           nop
08a7: 00           nop
08a8: 00           nop
08a9: 00           nop
08aa: 00           nop
08ab: 00           nop
08ac: 00           nop
08ad: 24           inc  h
08ae: 24           inc  h
08af: 24           inc  h
08b0: 20 20        jr   nz,$08D2
08b2: 20 20        jr   nz,$08D4
08b4: 20 53        jr   nz,$0909
08b6: 55           ld   d,l
08b7: 42           ld   b,d
08b8: 00           nop
08b9: 00           nop
08ba: 00           nop
08bb: 00           nop
08bc: 00           nop
08bd: 00           nop
08be: 00           nop
08bf: 00           nop
08c0: 00           nop
08c1: 00           nop
08c2: 00           nop
08c3: 00           nop
08c4: 00           nop
08c5: 00           nop
08c6: 00           nop
08c7: 00           nop
08c8: 00           nop
08c9: 00           nop
08ca: 00           nop
08cb: 00           nop
08cc: 00           nop
08cd: 00           nop
08ce: 00           nop
08cf: 00           nop
08d0: 00           nop
08d1: 00           nop
08d2: 00           nop
08d3: 00           nop
08d4: 00           nop
08d5: 00           nop
08d6: 00           nop
08d7: 00           nop
08d8: 00           nop
08d9: 00           nop
08da: 00           nop
08db: 00           nop
08dc: 00           nop
08dd: 00           nop
08de: 00           nop
08df: 00           nop
08e0: 00           nop
08e1: 00           nop
08e2: 00           nop
08e3: 00           nop
08e4: 00           nop
08e5: 00           nop
08e6: 00           nop
08e7: 00           nop
08e8: 00           nop
08e9: 00           nop
08ea: 00           nop
08eb: 00           nop
08ec: 00           nop
08ed: 00           nop
08ee: 00           nop
08ef: 00           nop
08f0: 00           nop
08f1: 00           nop
08f2: 00           nop
08f3: 00           nop
08f4: 00           nop
08f5: 00           nop
08f6: 00           nop
08f7: 00           nop
08f8: 00           nop
08f9: 00           nop
08fa: 00           nop
08fb: 00           nop
08fc: 00           nop
08fd: 00           nop
08fe: 00           nop
08ff: 00           nop
0900: a8           xor  b
0901: 16 00        ld   d,$00
0903: 01 34 ef     ld   bc,$EF34
0906: c3 11 e2     jp   $E211
0909: 99           sbc  a,c
090a: e2 a5 e2     jp   po,$E2A5
090d: ab           xor  e
090e: e2 b1 e2     jp   po,$E2B1
0911: eb           ex   de,hl
0912: 22 43 e5     ld   ($E543),hl
0915: eb           ex   de,hl
0916: 7b           ld   a,e
0917: 32 d6 ef     ld   ($EFD6),a
091a: 21 00 00     ld   hl,$0000
091d: 22 45 e5     ld   ($E545),hl
0920: 39           add  hl,sp
0921: 22 0f e5     ld   ($E50F),hl
0924: 31 41 e5     ld   sp,$E541
0927: af           xor  a
0928: 32 e0 ef     ld   ($EFE0),a
092b: 32 de ef     ld   ($EFDE),a
092e: 21 74 ef     ld   hl,$EF74
0931: e5           push hl
0932: 79           ld   a,c
0933: fe 29        cp   $29
0935: d0           ret  nc
0936: 4b           ld   c,e
0937: 21 47 e2     ld   hl,$E247
093a: 5f           ld   e,a
093b: 16 00        ld   d,$00
093d: 19           add  hl,de
093e: 19           add  hl,de
093f: 5e           ld   e,(hl)
0940: 23           inc  hl
0941: 56           ld   d,(hl)
0942: 2a 43 e5     ld   hl,($E543)
0945: eb           ex   de,hl
0946: e9           jp   (hl)
0947: 03           inc  bc
0948: f0           ret  p
0949: c8           ret  z
094a: e4 90 e3     call po,$E390
094d: ce e4        adc  a,$E4
094f: 12           ld   (de),a
0950: f0           ret  p
0951: 0f           rrca
0952: f0           ret  p
0953: d4 e4 ed     call nc,$EDE4
0956: e4 f3 e4     call po,$E4F3
0959: f8           ret  m
095a: e4 e1 e3     call po,$E3E1
095d: fe e4        cp   $E4
095f: 7e           ld   a,(hl)
0960: ee 83        xor  $83
0962: ee 45        xor  $45
0964: ee 9c        xor  $9C
0966: ee a5        xor  $A5
0968: ee ab        xor  $AB
096a: ee c8        xor  $C8
096c: ee d7        xor  $D7
096e: ee e0        xor  $E0
0970: ee e6        xor  $E6
0972: ee ec        xor  $EC
0974: ee f5        xor  $F5
0976: ee fe        xor  $FE
0978: ee 04        xor  $04
097a: ef           rst  $28
097b: 0a           ld   a,(bc)
097c: ef           rst  $28
097d: 11 ef 2c     ld   de,$2CEF
0980: e7           rst  $20
0981: 17           rla
0982: ef           rst  $28
0983: 1d           dec  e
0984: ef           rst  $28
0985: 26 ef        ld   h,$EF
0987: 2d           dec  l
0988: ef           rst  $28
0989: 41           ld   b,c
098a: ef           rst  $28
098b: 47           ld   b,a
098c: ef           rst  $28
098d: 4d           ld   c,l
098e: ef           rst  $28
098f: 0e ee        ld   c,$EE
0991: 53           ld   d,e
0992: ef           rst  $28
0993: 04           inc  b
0994: e5           push hl
0995: 04           inc  b
0996: e5           push hl
0997: 9b           sbc  a,e
0998: ef           rst  $28
0999: 21 ca e2     ld   hl,$E2CA
099c: cd e5 e2     call $E2E5
099f: fe 03        cp   $03
09a1: ca 00 00     jp   z,$0000
09a4: c9           ret
09a5: 21 d5 e2     ld   hl,$E2D5
09a8: c3 b4 e2     jp   $E2B4
09ab: 21 e1 e2     ld   hl,$E2E1
09ae: c3 b4 e2     jp   $E2B4
09b1: 21 dc e2     ld   hl,$E2DC
09b4: cd e5 e2     call $E2E5
09b7: c3 00 00     jp   $0000
09ba: 42           ld   b,d
09bb: 64           ld   h,h
09bc: 6f           ld   l,a
09bd: 73           ld   (hl),e
09be: 20 45        jr   nz,$0A05
09c0: 72           ld   (hl),d
09c1: 72           ld   (hl),d
09c2: 20 4f        jr   nz,$0A13
09c4: 6e           ld   l,(hl)
09c5: 20 20        jr   nz,$09E7
09c7: 3a 20 24     ld   a,($2420)
09ca: 42           ld   b,d
09cb: 61           ld   h,c
09cc: 64           ld   h,h
09cd: 20 53        jr   nz,$0A22
09cf: 65           ld   h,l
09d0: 63           ld   h,e
09d1: 74           ld   (hl),h
09d2: 6f           ld   l,a
09d3: 72           ld   (hl),d
09d4: 24           inc  h
09d5: 53           ld   d,e
09d6: 65           ld   h,l
09d7: 6c           ld   l,h
09d8: 65           ld   h,l
09d9: 63           ld   h,e
09da: 74           ld   (hl),h
09db: 24           inc  h
09dc: 46           ld   b,(hl)
09dd: 69           ld   l,c
09de: 6c           ld   l,h
09df: 65           ld   h,l
09e0: 20 52        jr   nz,$0A34
09e2: 2f           cpl
09e3: 4f           ld   c,a
09e4: 24           inc  h
09e5: e5           push hl
09e6: cd c9 e3     call $E3C9
09e9: 3a 42 e5     ld   a,($E542)
09ec: c6 41        add  a,$41
09ee: 32 c6 e2     ld   ($E2C6),a
09f1: 01 ba e2     ld   bc,$E2BA
09f4: cd d3 e3     call $E3D3
09f7: c1           pop  bc
09f8: cd d3 e3     call $E3D3
09fb: 21 0e e5     ld   hl,$E50E
09fe: 7e           ld   a,(hl)
09ff: 36 00        ld   (hl),$00
0a01: b7           or   a
0a02: c0           ret  nz
0a03: c3 09 f0     jp   $F009
0a06: cd fb e2     call $E2FB
0a09: cd 14 e3     call $E314
0a0c: d8           ret  c
0a0d: f5           push af
0a0e: 4f           ld   c,a
0a0f: cd 90 e3     call $E390
0a12: f1           pop  af
0a13: c9           ret
0a14: fe 0d        cp   $0D
0a16: c8           ret  z
0a17: fe 0a        cp   $0A
0a19: c8           ret  z
0a1a: fe 09        cp   $09
0a1c: c8           ret  z
0a1d: fe 08        cp   $08
0a1f: c8           ret  z
0a20: fe 20        cp   $20
0a22: c9           ret
0a23: 3a 0e e5     ld   a,($E50E)
0a26: b7           or   a
0a27: c2 45 e3     jp   nz,$E345
0a2a: cd 06 f0     call $F006
0a2d: e6 01        and  $01
0a2f: c8           ret  z
0a30: cd 09 f0     call $F009
0a33: fe 13        cp   $13
0a35: c2 42 e3     jp   nz,$E342
0a38: cd 09 f0     call $F009
0a3b: fe 03        cp   $03
0a3d: ca 00 00     jp   z,$0000
0a40: af           xor  a
0a41: c9           ret
0a42: 32 0e e5     ld   ($E50E),a
0a45: 3e 01        ld   a,$01
0a47: c9           ret
0a48: 3a 0a e5     ld   a,($E50A)
0a4b: b7           or   a
0a4c: c2 62 e3     jp   nz,$E362
0a4f: c5           push bc
0a50: cd 23 e3     call $E323
0a53: c1           pop  bc
0a54: c5           push bc
0a55: cd 0c f0     call $F00C
0a58: c1           pop  bc
0a59: c5           push bc
0a5a: 3a 0d e5     ld   a,($E50D)
0a5d: b7           or   a
0a5e: c4 0f f0     call nz,$F00F
0a61: c1           pop  bc
0a62: 79           ld   a,c
0a63: 21 0c e5     ld   hl,$E50C
0a66: fe 7f        cp   $7F
0a68: c8           ret  z
0a69: 34           inc  (hl)
0a6a: fe 20        cp   $20
0a6c: d0           ret  nc
0a6d: 35           dec  (hl)
0a6e: 7e           ld   a,(hl)
0a6f: b7           or   a
0a70: c8           ret  z
0a71: 79           ld   a,c
0a72: fe 08        cp   $08
0a74: c2 79 e3     jp   nz,$E379
0a77: 35           dec  (hl)
0a78: c9           ret
0a79: fe 0a        cp   $0A
0a7b: c0           ret  nz
0a7c: 36 00        ld   (hl),$00
0a7e: c9           ret
0a7f: 79           ld   a,c
0a80: cd 14 e3     call $E314
0a83: d2 90 e3     jp   nc,$E390
0a86: f5           push af
0a87: 0e 5e        ld   c,$5E
0a89: cd 48 e3     call $E348
0a8c: f1           pop  af
0a8d: f6 40        or   $40
0a8f: 4f           ld   c,a
0a90: 79           ld   a,c
0a91: fe 09        cp   $09
0a93: c2 48 e3     jp   nz,$E348
0a96: 0e 20        ld   c,$20
0a98: cd 48 e3     call $E348
0a9b: 3a 0c e5     ld   a,($E50C)
0a9e: e6 07        and  $07
0aa0: c2 96 e3     jp   nz,$E396
0aa3: c9           ret
0aa4: cd ac e3     call $E3AC
0aa7: 0e 20        ld   c,$20
0aa9: cd 0c f0     call $F00C
0aac: 0e 08        ld   c,$08
0aae: c3 0c f0     jp   $F00C
0ab1: 0e 23        ld   c,$23
0ab3: cd 48 e3     call $E348
0ab6: cd c9 e3     call $E3C9
0ab9: 3a 0c e5     ld   a,($E50C)
0abc: 21 0b e5     ld   hl,$E50B
0abf: be           cp   (hl)
0ac0: d0           ret  nc
0ac1: 0e 20        ld   c,$20
0ac3: cd 48 e3     call $E348
0ac6: c3 b9 e3     jp   $E3B9
0ac9: 0e 0d        ld   c,$0D
0acb: cd 48 e3     call $E348
0ace: 0e 0a        ld   c,$0A
0ad0: c3 48 e3     jp   $E348
0ad3: 0a           ld   a,(bc)
0ad4: fe 24        cp   $24
0ad6: c8           ret  z
0ad7: 03           inc  bc
0ad8: c5           push bc
0ad9: 4f           ld   c,a
0ada: cd 90 e3     call $E390
0add: c1           pop  bc
0ade: c3 d3 e3     jp   $E3D3
0ae1: 3a 0c e5     ld   a,($E50C)
0ae4: 32 0b e5     ld   ($E50B),a
0ae7: 2a 43 e5     ld   hl,($E543)
0aea: 4e           ld   c,(hl)
0aeb: 23           inc  hl
0aec: e5           push hl
0aed: 06 00        ld   b,$00
0aef: c5           push bc
0af0: e5           push hl
0af1: cd fb e2     call $E2FB
0af4: e6 7f        and  $7F
0af6: e1           pop  hl
0af7: c1           pop  bc
0af8: fe 0d        cp   $0D
0afa: ca c1 e4     jp   z,$E4C1
0afd: fe 0a        cp   $0A
0aff: ca c1 e4     jp   z,$E4C1
0b02: fe 08        cp   $08
0b04: c2 16 e4     jp   nz,$E416
0b07: 78           ld   a,b
0b08: b7           or   a
0b09: ca ef e3     jp   z,$E3EF
0b0c: 05           dec  b
0b0d: 3a 0c e5     ld   a,($E50C)
0b10: 32 0a e5     ld   ($E50A),a
0b13: c3 70 e4     jp   $E470
0b16: fe 7f        cp   $7F
0b18: c2 26 e4     jp   nz,$E426
0b1b: 78           ld   a,b
0b1c: b7           or   a
0b1d: ca ef e3     jp   z,$E3EF
0b20: 7e           ld   a,(hl)
0b21: 05           dec  b
0b22: 2b           dec  hl
0b23: c3 a9 e4     jp   $E4A9
0b26: fe 05        cp   $05
0b28: c2 37 e4     jp   nz,$E437
0b2b: c5           push bc
0b2c: e5           push hl
0b2d: cd c9 e3     call $E3C9
0b30: af           xor  a
0b31: 32 0b e5     ld   ($E50B),a
0b34: c3 f1 e3     jp   $E3F1
0b37: fe 10        cp   $10
0b39: c2 48 e4     jp   nz,$E448
0b3c: e5           push hl
0b3d: 21 0d e5     ld   hl,$E50D
0b40: 3e 01        ld   a,$01
0b42: 96           sub  (hl)
0b43: 77           ld   (hl),a
0b44: e1           pop  hl
0b45: c3 ef e3     jp   $E3EF
0b48: fe 18        cp   $18
0b4a: c2 5f e4     jp   nz,$E45F
0b4d: e1           pop  hl
0b4e: 3a 0b e5     ld   a,($E50B)
0b51: 21 0c e5     ld   hl,$E50C
0b54: be           cp   (hl)
0b55: d2 e1 e3     jp   nc,$E3E1
0b58: 35           dec  (hl)
0b59: cd a4 e3     call $E3A4
0b5c: c3 4e e4     jp   $E44E
0b5f: fe 15        cp   $15
0b61: c2 6b e4     jp   nz,$E46B
0b64: cd b1 e3     call $E3B1
0b67: e1           pop  hl
0b68: c3 e1 e3     jp   $E3E1
0b6b: fe 12        cp   $12
0b6d: c2 a6 e4     jp   nz,$E4A6
0b70: c5           push bc
0b71: cd b1 e3     call $E3B1
0b74: c1           pop  bc
0b75: e1           pop  hl
0b76: e5           push hl
0b77: c5           push bc
0b78: 78           ld   a,b
0b79: b7           or   a
0b7a: ca 8a e4     jp   z,$E48A
0b7d: 23           inc  hl
0b7e: 4e           ld   c,(hl)
0b7f: 05           dec  b
0b80: c5           push bc
0b81: e5           push hl
0b82: cd 7f e3     call $E37F
0b85: e1           pop  hl
0b86: c1           pop  bc
0b87: c3 78 e4     jp   $E478
0b8a: e5           push hl
0b8b: 3a 0a e5     ld   a,($E50A)
0b8e: b7           or   a
0b8f: ca f1 e3     jp   z,$E3F1
0b92: 21 0c e5     ld   hl,$E50C
0b95: 96           sub  (hl)
0b96: 32 0a e5     ld   ($E50A),a
0b99: cd a4 e3     call $E3A4
0b9c: 21 0a e5     ld   hl,$E50A
0b9f: 35           dec  (hl)
0ba0: c2 99 e4     jp   nz,$E499
0ba3: c3 f1 e3     jp   $E3F1
0ba6: 23           inc  hl
0ba7: 77           ld   (hl),a
0ba8: 04           inc  b
0ba9: c5           push bc
0baa: e5           push hl
0bab: 4f           ld   c,a
0bac: cd 7f e3     call $E37F
0baf: e1           pop  hl
0bb0: c1           pop  bc
0bb1: 7e           ld   a,(hl)
0bb2: fe 03        cp   $03
0bb4: 78           ld   a,b
0bb5: c2 bd e4     jp   nz,$E4BD
0bb8: fe 01        cp   $01
0bba: ca 00 00     jp   z,$0000
0bbd: b9           cp   c
0bbe: da ef e3     jp   c,$E3EF
0bc1: e1           pop  hl
0bc2: 70           ld   (hl),b
0bc3: 0e 0d        ld   c,$0D
0bc5: c3 48 e3     jp   $E348
0bc8: cd 06 e3     call $E306
0bcb: c3 01 e5     jp   $E501
0bce: cd 15 f0     call $F015
0bd1: c3 01 e5     jp   $E501
0bd4: 79           ld   a,c
0bd5: 3c           inc  a
0bd6: ca e0 e4     jp   z,$E4E0
0bd9: 3c           inc  a
0bda: ca 06 f0     jp   z,$F006
0bdd: c3 0c f0     jp   $F00C
0be0: cd 06 f0     call $F006
0be3: b7           or   a
0be4: ca 91 ef     jp   z,$EF91
0be7: cd 09 f0     call $F009
0bea: c3 01 e5     jp   $E501
0bed: 3a 03 00     ld   a,($0003)
0bf0: c3 01 e5     jp   $E501
0bf3: 21 03 00     ld   hl,$0003
0bf6: 71           ld   (hl),c
0bf7: c9           ret
0bf8: eb           ex   de,hl
0bf9: 4d           ld   c,l
0bfa: 44           ld   b,h
0bfb: c3 d3 e3     jp   $E3D3
0bfe: cd 23 e3     call $E323
0c01: 32 45 e5     ld   ($E545),a
0c04: c9           ret
0c05: 3e 01        ld   a,$01
0c07: c3 01 e5     jp   $E501
0c0a: 00           nop
0c0b: 00           nop
0c0c: 00           nop
0c0d: 00           nop
0c0e: 00           nop
0c0f: 00           nop
0c10: 00           nop
0c11: 00           nop
0c12: 00           nop
0c13: 00           nop
0c14: 00           nop
0c15: 00           nop
0c16: 00           nop
0c17: 00           nop
0c18: 00           nop
0c19: 00           nop
0c1a: 00           nop
0c1b: 00           nop
0c1c: 00           nop
0c1d: 00           nop
0c1e: 00           nop
0c1f: 00           nop
0c20: 00           nop
0c21: 00           nop
0c22: 00           nop
0c23: 00           nop
0c24: 00           nop
0c25: 00           nop
0c26: 00           nop
0c27: 00           nop
0c28: 00           nop
0c29: 00           nop
0c2a: 00           nop
0c2b: 00           nop
0c2c: 00           nop
0c2d: 00           nop
0c2e: 00           nop
0c2f: 00           nop
0c30: 00           nop
0c31: 00           nop
0c32: 00           nop
0c33: 00           nop
0c34: 00           nop
0c35: 00           nop
0c36: 00           nop
0c37: 00           nop
0c38: 00           nop
0c39: 00           nop
0c3a: 00           nop
0c3b: 00           nop
0c3c: 00           nop
0c3d: 00           nop
0c3e: 00           nop
0c3f: 00           nop
0c40: 00           nop
0c41: 00           nop
0c42: 00           nop
0c43: 00           nop
0c44: 00           nop
0c45: 00           nop
0c46: 00           nop
0c47: 21 0b e2     ld   hl,$E20B
0c4a: 5e           ld   e,(hl)
0c4b: 23           inc  hl
0c4c: 56           ld   d,(hl)
0c4d: eb           ex   de,hl
0c4e: e9           jp   (hl)
0c4f: 0c           inc  c
0c50: 0d           dec  c
0c51: c8           ret  z
0c52: 1a           ld   a,(de)
0c53: 77           ld   (hl),a
0c54: 13           inc  de
0c55: 23           inc  hl
0c56: c3 50 e5     jp   $E550
0c59: 3a 42 e5     ld   a,($E542)
0c5c: 4f           ld   c,a
0c5d: cd 1b f0     call $F01B
0c60: 7c           ld   a,h
0c61: b5           or   l
0c62: c8           ret  z
0c63: 5e           ld   e,(hl)
0c64: 23           inc  hl
0c65: 56           ld   d,(hl)
0c66: 23           inc  hl
0c67: 22 b3 ef     ld   ($EFB3),hl
0c6a: 23           inc  hl
0c6b: 23           inc  hl
0c6c: 22 b5 ef     ld   ($EFB5),hl
0c6f: 23           inc  hl
0c70: 23           inc  hl
0c71: 22 b7 ef     ld   ($EFB7),hl
0c74: 23           inc  hl
0c75: 23           inc  hl
0c76: eb           ex   de,hl
0c77: 22 d0 ef     ld   ($EFD0),hl
0c7a: 21 b9 ef     ld   hl,$EFB9
0c7d: 0e 08        ld   c,$08
0c7f: cd 4f e5     call $E54F
0c82: 2a bb ef     ld   hl,($EFBB)
0c85: eb           ex   de,hl
0c86: 21 c1 ef     ld   hl,$EFC1
0c89: 0e 0f        ld   c,$0F
0c8b: cd 4f e5     call $E54F
0c8e: 2a c6 ef     ld   hl,($EFC6)
0c91: 7c           ld   a,h
0c92: 21 dd ef     ld   hl,$EFDD
0c95: 36 ff        ld   (hl),$FF
0c97: b7           or   a
0c98: ca 9d e5     jp   z,$E59D
0c9b: 36 00        ld   (hl),$00
0c9d: 3e ff        ld   a,$FF
0c9f: b7           or   a
0ca0: c9           ret
0ca1: cd 18 f0     call $F018
0ca4: af           xor  a
0ca5: 2a b5 ef     ld   hl,($EFB5)
0ca8: 77           ld   (hl),a
0ca9: 23           inc  hl
0caa: 77           ld   (hl),a
0cab: 2a b7 ef     ld   hl,($EFB7)
0cae: 77           ld   (hl),a
0caf: 23           inc  hl
0cb0: 77           ld   (hl),a
0cb1: c9           ret
0cb2: cd 27 f0     call $F027
0cb5: c3 bb e5     jp   $E5BB
0cb8: cd 2a f0     call $F02A
0cbb: b7           or   a
0cbc: c8           ret  z
0cbd: 21 09 e2     ld   hl,$E209
0cc0: c3 4a e5     jp   $E54A
0cc3: 2a ea ef     ld   hl,($EFEA)
0cc6: 0e 02        ld   c,$02
0cc8: cd ea e6     call $E6EA
0ccb: 22 e5 ef     ld   ($EFE5),hl
0cce: 22 ec ef     ld   ($EFEC),hl
0cd1: 21 e5 ef     ld   hl,$EFE5
0cd4: 4e           ld   c,(hl)
0cd5: 23           inc  hl
0cd6: 46           ld   b,(hl)
0cd7: 2a b7 ef     ld   hl,($EFB7)
0cda: 5e           ld   e,(hl)
0cdb: 23           inc  hl
0cdc: 56           ld   d,(hl)
0cdd: 2a b5 ef     ld   hl,($EFB5)
0ce0: 7e           ld   a,(hl)
0ce1: 23           inc  hl
0ce2: 66           ld   h,(hl)
0ce3: 6f           ld   l,a
0ce4: 79           ld   a,c
0ce5: 93           sub  e
0ce6: 78           ld   a,b
0ce7: 9a           sbc  a,d
0ce8: d2 fa e5     jp   nc,$E5FA
0ceb: e5           push hl
0cec: 2a c1 ef     ld   hl,($EFC1)
0cef: 7b           ld   a,e
0cf0: 95           sub  l
0cf1: 5f           ld   e,a
0cf2: 7a           ld   a,d
0cf3: 9c           sbc  a,h
0cf4: 57           ld   d,a
0cf5: e1           pop  hl
0cf6: 2b           dec  hl
0cf7: c3 e4 e5     jp   $E5E4
0cfa: e5           push hl
0cfb: 2a c1 ef     ld   hl,($EFC1)
0cfe: 19           add  hl,de
0cff: da 0f e6     jp   c,$E60F
0d02: 79           ld   a,c
0d03: 95           sub  l
0d04: 78           ld   a,b
0d05: 9c           sbc  a,h
0d06: da 0f e6     jp   c,$E60F
0d09: eb           ex   de,hl
0d0a: e1           pop  hl
0d0b: 23           inc  hl
0d0c: c3 fa e5     jp   $E5FA
0d0f: e1           pop  hl
0d10: c5           push bc
0d11: d5           push de
0d12: e5           push hl
0d13: eb           ex   de,hl
0d14: 2a ce ef     ld   hl,($EFCE)
0d17: 19           add  hl,de
0d18: 44           ld   b,h
0d19: 4d           ld   c,l
0d1a: cd 1e f0     call $F01E
0d1d: d1           pop  de
0d1e: 2a b5 ef     ld   hl,($EFB5)
0d21: 73           ld   (hl),e
0d22: 23           inc  hl
0d23: 72           ld   (hl),d
0d24: d1           pop  de
0d25: 2a b7 ef     ld   hl,($EFB7)
0d28: 73           ld   (hl),e
0d29: 23           inc  hl
0d2a: 72           ld   (hl),d
0d2b: c1           pop  bc
0d2c: 79           ld   a,c
0d2d: 93           sub  e
0d2e: 4f           ld   c,a
0d2f: 78           ld   a,b
0d30: 9a           sbc  a,d
0d31: 47           ld   b,a
0d32: 2a d0 ef     ld   hl,($EFD0)
0d35: eb           ex   de,hl
0d36: cd 30 f0     call $F030
0d39: 4d           ld   c,l
0d3a: 44           ld   b,h
0d3b: c3 21 f0     jp   $F021
0d3e: 21 c3 ef     ld   hl,$EFC3
0d41: 4e           ld   c,(hl)
0d42: 3a e3 ef     ld   a,($EFE3)
0d45: b7           or   a
0d46: 1f           rra
0d47: 0d           dec  c
0d48: c2 45 e6     jp   nz,$E645
0d4b: 47           ld   b,a
0d4c: 3e 08        ld   a,$08
0d4e: 96           sub  (hl)
0d4f: 4f           ld   c,a
0d50: 3a e2 ef     ld   a,($EFE2)
0d53: 0d           dec  c
0d54: ca 5c e6     jp   z,$E65C
0d57: b7           or   a
0d58: 17           rla
0d59: c3 53 e6     jp   $E653
0d5c: 80           add  a,b
0d5d: c9           ret
0d5e: 2a 43 e5     ld   hl,($E543)
0d61: 11 10 00     ld   de,$0010
0d64: 19           add  hl,de
0d65: 09           add  hl,bc
0d66: 3a dd ef     ld   a,($EFDD)
0d69: b7           or   a
0d6a: ca 71 e6     jp   z,$E671
0d6d: 6e           ld   l,(hl)
0d6e: 26 00        ld   h,$00
0d70: c9           ret
0d71: 09           add  hl,bc
0d72: 5e           ld   e,(hl)
0d73: 23           inc  hl
0d74: 56           ld   d,(hl)
0d75: eb           ex   de,hl
0d76: c9           ret
0d77: cd 3e e6     call $E63E
0d7a: 4f           ld   c,a
0d7b: 06 00        ld   b,$00
0d7d: cd 5e e6     call $E65E
0d80: 22 e5 ef     ld   ($EFE5),hl
0d83: c9           ret
0d84: 2a e5 ef     ld   hl,($EFE5)
0d87: 7d           ld   a,l
0d88: b4           or   h
0d89: c9           ret
0d8a: 3a c3 ef     ld   a,($EFC3)
0d8d: 2a e5 ef     ld   hl,($EFE5)
0d90: 29           add  hl,hl
0d91: 3d           dec  a
0d92: c2 90 e6     jp   nz,$E690
0d95: 22 e7 ef     ld   ($EFE7),hl
0d98: 3a c4 ef     ld   a,($EFC4)
0d9b: 4f           ld   c,a
0d9c: 3a e3 ef     ld   a,($EFE3)
0d9f: a1           and  c
0da0: b5           or   l
0da1: 6f           ld   l,a
0da2: 22 e5 ef     ld   ($EFE5),hl
0da5: c9           ret
0da6: 2a 43 e5     ld   hl,($E543)
0da9: 11 0c 00     ld   de,$000C
0dac: 19           add  hl,de
0dad: c9           ret
0dae: 2a 43 e5     ld   hl,($E543)
0db1: 11 0f 00     ld   de,$000F
0db4: 19           add  hl,de
0db5: eb           ex   de,hl
0db6: 21 11 00     ld   hl,$0011
0db9: 19           add  hl,de
0dba: c9           ret
0dbb: cd ae e6     call $E6AE
0dbe: 7e           ld   a,(hl)
0dbf: 32 e3 ef     ld   ($EFE3),a
0dc2: eb           ex   de,hl
0dc3: 7e           ld   a,(hl)
0dc4: 32 e1 ef     ld   ($EFE1),a
0dc7: cd a6 e6     call $E6A6
0dca: 3a c5 ef     ld   a,($EFC5)
0dcd: a6           and  (hl)
0dce: 32 e2 ef     ld   ($EFE2),a
0dd1: c9           ret
0dd2: cd ae e6     call $E6AE
0dd5: 3a d5 ef     ld   a,($EFD5)
0dd8: fe 02        cp   $02
0dda: c2 de e6     jp   nz,$E6DE
0ddd: af           xor  a
0dde: 4f           ld   c,a
0ddf: 3a e3 ef     ld   a,($EFE3)
0de2: 81           add  a,c
0de3: 77           ld   (hl),a
0de4: eb           ex   de,hl
0de5: 3a e1 ef     ld   a,($EFE1)
0de8: 77           ld   (hl),a
0de9: c9           ret
0dea: 0c           inc  c
0deb: 0d           dec  c
0dec: c8           ret  z
0ded: 7c           ld   a,h
0dee: b7           or   a
0def: 1f           rra
0df0: 67           ld   h,a
0df1: 7d           ld   a,l
0df2: 1f           rra
0df3: 6f           ld   l,a
0df4: c3 eb e6     jp   $E6EB
0df7: 0e 80        ld   c,$80
0df9: 2a b9 ef     ld   hl,($EFB9)
0dfc: af           xor  a
0dfd: 86           add  a,(hl)
0dfe: 23           inc  hl
0dff: 0d           dec  c
0e00: c2 fd e6     jp   nz,$E6FD
0e03: c9           ret
0e04: 0c           inc  c
0e05: 0d           dec  c
0e06: c8           ret  z
0e07: 29           add  hl,hl
0e08: c3 05 e7     jp   $E705
0e0b: c5           push bc
0e0c: 3a 42 e5     ld   a,($E542)
0e0f: 4f           ld   c,a
0e10: 21 01 00     ld   hl,$0001
0e13: cd 04 e7     call $E704
0e16: c1           pop  bc
0e17: 79           ld   a,c
0e18: b5           or   l
0e19: 6f           ld   l,a
0e1a: 78           ld   a,b
0e1b: b4           or   h
0e1c: 67           ld   h,a
0e1d: c9           ret
0e1e: 2a ad ef     ld   hl,($EFAD)
0e21: 3a 42 e5     ld   a,($E542)
0e24: 4f           ld   c,a
0e25: cd ea e6     call $E6EA
0e28: 7d           ld   a,l
0e29: e6 01        and  $01
0e2b: c9           ret
0e2c: 21 ad ef     ld   hl,$EFAD
0e2f: 4e           ld   c,(hl)
0e30: 23           inc  hl
0e31: 46           ld   b,(hl)
0e32: cd 0b e7     call $E70B
0e35: 22 ad ef     ld   ($EFAD),hl
0e38: 2a c8 ef     ld   hl,($EFC8)
0e3b: 23           inc  hl
0e3c: eb           ex   de,hl
0e3d: 2a b3 ef     ld   hl,($EFB3)
0e40: 73           ld   (hl),e
0e41: 23           inc  hl
0e42: 72           ld   (hl),d
0e43: c9           ret
0e44: cd 5e e7     call $E75E
0e47: 11 09 00     ld   de,$0009
0e4a: 19           add  hl,de
0e4b: 7e           ld   a,(hl)
0e4c: 17           rla
0e4d: d0           ret  nc
0e4e: 21 0f e2     ld   hl,$E20F
0e51: c3 4a e5     jp   $E54A
0e54: cd 1e e7     call $E71E
0e57: c8           ret  z
0e58: 21 0d e2     ld   hl,$E20D
0e5b: c3 4a e5     jp   $E54A
0e5e: 2a b9 ef     ld   hl,($EFB9)
0e61: 3a e9 ef     ld   a,($EFE9)
0e64: 85           add  a,l
0e65: 6f           ld   l,a
0e66: d0           ret  nc
0e67: 24           inc  h
0e68: c9           ret
0e69: 2a 43 e5     ld   hl,($E543)
0e6c: 11 0e 00     ld   de,$000E
0e6f: 19           add  hl,de
0e70: 7e           ld   a,(hl)
0e71: c9           ret
0e72: cd 69 e7     call $E769
0e75: 36 00        ld   (hl),$00
0e77: c9           ret
0e78: cd 69 e7     call $E769
0e7b: f6 80        or   $80
0e7d: 77           ld   (hl),a
0e7e: c9           ret
0e7f: 2a ea ef     ld   hl,($EFEA)
0e82: eb           ex   de,hl
0e83: 2a b3 ef     ld   hl,($EFB3)
0e86: 7b           ld   a,e
0e87: 96           sub  (hl)
0e88: 23           inc  hl
0e89: 7a           ld   a,d
0e8a: 9e           sbc  a,(hl)
0e8b: c9           ret
0e8c: cd 7f e7     call $E77F
0e8f: d8           ret  c
0e90: 13           inc  de
0e91: 72           ld   (hl),d
0e92: 2b           dec  hl
0e93: 73           ld   (hl),e
0e94: c9           ret
0e95: 7b           ld   a,e
0e96: 95           sub  l
0e97: 6f           ld   l,a
0e98: 7a           ld   a,d
0e99: 9c           sbc  a,h
0e9a: 67           ld   h,a
0e9b: c9           ret
0e9c: 0e ff        ld   c,$FF
0e9e: 2a ec ef     ld   hl,($EFEC)
0ea1: eb           ex   de,hl
0ea2: 2a cc ef     ld   hl,($EFCC)
0ea5: cd 95 e7     call $E795
0ea8: d0           ret  nc
0ea9: c5           push bc
0eaa: cd f7 e6     call $E6F7
0ead: 2a bd ef     ld   hl,($EFBD)
0eb0: eb           ex   de,hl
0eb1: 2a ec ef     ld   hl,($EFEC)
0eb4: 19           add  hl,de
0eb5: c1           pop  bc
0eb6: 0c           inc  c
0eb7: ca c4 e7     jp   z,$E7C4
0eba: be           cp   (hl)
0ebb: c8           ret  z
0ebc: cd 7f e7     call $E77F
0ebf: d0           ret  nc
0ec0: cd 2c e7     call $E72C
0ec3: c9           ret
0ec4: 77           ld   (hl),a
0ec5: c9           ret
0ec6: cd 9c e7     call $E79C
0ec9: cd e0 e7     call $E7E0
0ecc: 0e 01        ld   c,$01
0ece: cd b8 e5     call $E5B8
0ed1: c3 da e7     jp   $E7DA
0ed4: cd e0 e7     call $E7E0
0ed7: cd b2 e5     call $E5B2
0eda: 21 b1 ef     ld   hl,$EFB1
0edd: c3 e3 e7     jp   $E7E3
0ee0: 21 b9 ef     ld   hl,$EFB9
0ee3: 4e           ld   c,(hl)
0ee4: 23           inc  hl
0ee5: 46           ld   b,(hl)
0ee6: c3 24 f0     jp   $F024
0ee9: 2a b9 ef     ld   hl,($EFB9)
0eec: eb           ex   de,hl
0eed: 2a b1 ef     ld   hl,($EFB1)
0ef0: 0e 80        ld   c,$80
0ef2: c3 4f e5     jp   $E54F
0ef5: 21 ea ef     ld   hl,$EFEA
0ef8: 7e           ld   a,(hl)
0ef9: 23           inc  hl
0efa: be           cp   (hl)
0efb: c0           ret  nz
0efc: 3c           inc  a
0efd: c9           ret
0efe: 21 ff ff     ld   hl,$FFFF
0f01: 22 ea ef     ld   ($EFEA),hl
0f04: c9           ret
0f05: 2a c8 ef     ld   hl,($EFC8)
0f08: eb           ex   de,hl
0f09: 2a ea ef     ld   hl,($EFEA)
0f0c: 23           inc  hl
0f0d: 22 ea ef     ld   ($EFEA),hl
0f10: cd 95 e7     call $E795
0f13: d2 19 e8     jp   nc,$E819
0f16: c3 fe e7     jp   $E7FE
0f19: 3a ea ef     ld   a,($EFEA)
0f1c: e6 03        and  $03
0f1e: 06 05        ld   b,$05
0f20: 87           add  a,a
0f21: 05           dec  b
0f22: c2 20 e8     jp   nz,$E820
0f25: 32 e9 ef     ld   ($EFE9),a
0f28: b7           or   a
0f29: c0           ret  nz
0f2a: c5           push bc
0f2b: cd c3 e5     call $E5C3
0f2e: cd d4 e7     call $E7D4
0f31: c1           pop  bc
0f32: c3 9e e7     jp   $E79E
0f35: 79           ld   a,c
0f36: e6 07        and  $07
0f38: 3c           inc  a
0f39: 5f           ld   e,a
0f3a: 57           ld   d,a
0f3b: 79           ld   a,c
0f3c: 0f           rrca
0f3d: 0f           rrca
0f3e: 0f           rrca
0f3f: e6 1f        and  $1F
0f41: 4f           ld   c,a
0f42: 78           ld   a,b
0f43: 87           add  a,a
0f44: 87           add  a,a
0f45: 87           add  a,a
0f46: 87           add  a,a
0f47: 87           add  a,a
0f48: b1           or   c
0f49: 4f           ld   c,a
0f4a: 78           ld   a,b
0f4b: 0f           rrca
0f4c: 0f           rrca
0f4d: 0f           rrca
0f4e: e6 1f        and  $1F
0f50: 47           ld   b,a
0f51: 2a bf ef     ld   hl,($EFBF)
0f54: 09           add  hl,bc
0f55: 7e           ld   a,(hl)
0f56: 07           rlca
0f57: 1d           dec  e
0f58: c2 56 e8     jp   nz,$E856
0f5b: c9           ret
0f5c: d5           push de
0f5d: cd 35 e8     call $E835
0f60: e6 fe        and  $FE
0f62: c1           pop  bc
0f63: b1           or   c
0f64: 0f           rrca
0f65: 15           dec  d
0f66: c2 64 e8     jp   nz,$E864
0f69: 77           ld   (hl),a
0f6a: c9           ret
0f6b: cd 5e e7     call $E75E
0f6e: 11 10 00     ld   de,$0010
0f71: 19           add  hl,de
0f72: c5           push bc
0f73: 0e 11        ld   c,$11
0f75: d1           pop  de
0f76: 0d           dec  c
0f77: c8           ret  z
0f78: d5           push de
0f79: 3a dd ef     ld   a,($EFDD)
0f7c: b7           or   a
0f7d: ca 88 e8     jp   z,$E888
0f80: c5           push bc
0f81: e5           push hl
0f82: 4e           ld   c,(hl)
0f83: 06 00        ld   b,$00
0f85: c3 8e e8     jp   $E88E
0f88: 0d           dec  c
0f89: c5           push bc
0f8a: 4e           ld   c,(hl)
0f8b: 23           inc  hl
0f8c: 46           ld   b,(hl)
0f8d: e5           push hl
0f8e: 79           ld   a,c
0f8f: b0           or   b
0f90: ca 9d e8     jp   z,$E89D
0f93: 2a c6 ef     ld   hl,($EFC6)
0f96: 7d           ld   a,l
0f97: 91           sub  c
0f98: 7c           ld   a,h
0f99: 98           sbc  a,b
0f9a: d4 5c e8     call nc,$E85C
0f9d: e1           pop  hl
0f9e: 23           inc  hl
0f9f: c1           pop  bc
0fa0: c3 75 e8     jp   $E875
0fa3: 2a c6 ef     ld   hl,($EFC6)
0fa6: 0e 03        ld   c,$03
0fa8: cd ea e6     call $E6EA
0fab: 23           inc  hl
0fac: 44           ld   b,h
0fad: 4d           ld   c,l
0fae: 2a bf ef     ld   hl,($EFBF)
0fb1: 36 00        ld   (hl),$00
0fb3: 23           inc  hl
0fb4: 0b           dec  bc
0fb5: 78           ld   a,b
0fb6: b1           or   c
0fb7: c2 b1 e8     jp   nz,$E8B1
0fba: 2a ca ef     ld   hl,($EFCA)
0fbd: eb           ex   de,hl
0fbe: 2a bf ef     ld   hl,($EFBF)
0fc1: 73           ld   (hl),e
0fc2: 23           inc  hl
0fc3: 72           ld   (hl),d
0fc4: cd a1 e5     call $E5A1
0fc7: 2a b3 ef     ld   hl,($EFB3)
0fca: 36 03        ld   (hl),$03
0fcc: 23           inc  hl
0fcd: 36 00        ld   (hl),$00
0fcf: cd fe e7     call $E7FE
0fd2: 0e ff        ld   c,$FF
0fd4: cd 05 e8     call $E805
0fd7: cd f5 e7     call $E7F5
0fda: c8           ret  z
0fdb: cd 5e e7     call $E75E
0fde: 3e e5        ld   a,$E5
0fe0: be           cp   (hl)
0fe1: ca d2 e8     jp   z,$E8D2
0fe4: 3a 41 e5     ld   a,($E541)
0fe7: be           cp   (hl)
0fe8: c2 f6 e8     jp   nz,$E8F6
0feb: 23           inc  hl
0fec: 7e           ld   a,(hl)
0fed: d6 24        sub  $24
0fef: c2 f6 e8     jp   nz,$E8F6
0ff2: 3d           dec  a
0ff3: 32 45 e5     ld   ($E545),a
0ff6: 0e 01        ld   c,$01
0ff8: cd 6b e8     call $E86B
0ffb: cd 8c e7     call $E78C
0ffe: c3 d2 e8     jp   $E8D2
1001: 3a d4 ef     ld   a,($EFD4)
1004: c3 01 e5     jp   $E501
1007: c5           push bc
1008: f5           push af
1009: 3a c5 ef     ld   a,($EFC5)
100c: 2f           cpl
100d: 47           ld   b,a
100e: 79           ld   a,c
100f: a0           and  b
1010: 4f           ld   c,a
1011: f1           pop  af
1012: a0           and  b
1013: 91           sub  c
1014: e6 1f        and  $1F
1016: c1           pop  bc
1017: c9           ret
1018: 3e ff        ld   a,$FF
101a: 32 d4 ef     ld   ($EFD4),a
101d: 21 d8 ef     ld   hl,$EFD8
1020: 71           ld   (hl),c
1021: 2a 43 e5     ld   hl,($E543)
1024: 22 d9 ef     ld   ($EFD9),hl
1027: cd fe e7     call $E7FE
102a: cd a1 e5     call $E5A1
102d: 0e 00        ld   c,$00
102f: cd 05 e8     call $E805
1032: cd f5 e7     call $E7F5
1035: ca 94 e9     jp   z,$E994
1038: 2a d9 ef     ld   hl,($EFD9)
103b: eb           ex   de,hl
103c: 1a           ld   a,(de)
103d: fe e5        cp   $E5
103f: ca 4a e9     jp   z,$E94A
1042: d5           push de
1043: cd 7f e7     call $E77F
1046: d1           pop  de
1047: d2 94 e9     jp   nc,$E994
104a: cd 5e e7     call $E75E
104d: 3a d8 ef     ld   a,($EFD8)
1050: 4f           ld   c,a
1051: 06 00        ld   b,$00
1053: 79           ld   a,c
1054: b7           or   a
1055: ca 83 e9     jp   z,$E983
1058: 1a           ld   a,(de)
1059: fe 3f        cp   $3F
105b: ca 7c e9     jp   z,$E97C
105e: 78           ld   a,b
105f: fe 0d        cp   $0D
1061: ca 7c e9     jp   z,$E97C
1064: fe 0c        cp   $0C
1066: 1a           ld   a,(de)
1067: ca 73 e9     jp   z,$E973
106a: 96           sub  (hl)
106b: e6 7f        and  $7F
106d: c2 2d e9     jp   nz,$E92D
1070: c3 7c e9     jp   $E97C
1073: c5           push bc
1074: 4e           ld   c,(hl)
1075: cd 07 e9     call $E907
1078: c1           pop  bc
1079: c2 2d e9     jp   nz,$E92D
107c: 13           inc  de
107d: 23           inc  hl
107e: 04           inc  b
107f: 0d           dec  c
1080: c3 53 e9     jp   $E953
1083: 3a ea ef     ld   a,($EFEA)
1086: e6 03        and  $03
1088: 32 45 e5     ld   ($E545),a
108b: 21 d4 ef     ld   hl,$EFD4
108e: 7e           ld   a,(hl)
108f: 17           rla
1090: d0           ret  nc
1091: af           xor  a
1092: 77           ld   (hl),a
1093: c9           ret
1094: cd fe e7     call $E7FE
1097: 3e ff        ld   a,$FF
1099: c3 01 e5     jp   $E501
109c: cd 54 e7     call $E754
109f: 0e 0c        ld   c,$0C
10a1: cd 18 e9     call $E918
10a4: cd f5 e7     call $E7F5
10a7: c8           ret  z
10a8: cd 44 e7     call $E744
10ab: cd 5e e7     call $E75E
10ae: 36 e5        ld   (hl),$E5
10b0: 0e 00        ld   c,$00
10b2: cd 6b e8     call $E86B
10b5: cd c6 e7     call $E7C6
10b8: cd 2d e9     call $E92D
10bb: c3 a4 e9     jp   $E9A4
10be: 50           ld   d,b
10bf: 59           ld   e,c
10c0: 79           ld   a,c
10c1: b0           or   b
10c2: ca d1 e9     jp   z,$E9D1
10c5: 0b           dec  bc
10c6: d5           push de
10c7: c5           push bc
10c8: cd 35 e8     call $E835
10cb: 1f           rra
10cc: d2 ec e9     jp   nc,$E9EC
10cf: c1           pop  bc
10d0: d1           pop  de
10d1: 2a c6 ef     ld   hl,($EFC6)
10d4: 7b           ld   a,e
10d5: 95           sub  l
10d6: 7a           ld   a,d
10d7: 9c           sbc  a,h
10d8: d2 f4 e9     jp   nc,$E9F4
10db: 13           inc  de
10dc: c5           push bc
10dd: d5           push de
10de: 42           ld   b,d
10df: 4b           ld   c,e
10e0: cd 35 e8     call $E835
10e3: 1f           rra
10e4: d2 ec e9     jp   nc,$E9EC
10e7: d1           pop  de
10e8: c1           pop  bc
10e9: c3 c0 e9     jp   $E9C0
10ec: 17           rla
10ed: 3c           inc  a
10ee: cd 64 e8     call $E864
10f1: e1           pop  hl
10f2: d1           pop  de
10f3: c9           ret
10f4: 79           ld   a,c
10f5: b0           or   b
10f6: c2 c0 e9     jp   nz,$E9C0
10f9: 21 00 00     ld   hl,$0000
10fc: c9           ret
10fd: 0e 00        ld   c,$00
10ff: 1e 20        ld   e,$20
1101: d5           push de
1102: 06 00        ld   b,$00
1104: 2a 43 e5     ld   hl,($E543)
1107: 09           add  hl,bc
1108: eb           ex   de,hl
1109: cd 5e e7     call $E75E
110c: c1           pop  bc
110d: cd 4f e5     call $E54F
1110: cd c3 e5     call $E5C3
1113: c3 c6 e7     jp   $E7C6
1116: cd 54 e7     call $E754
1119: 0e 0c        ld   c,$0C
111b: cd 18 e9     call $E918
111e: 2a 43 e5     ld   hl,($E543)
1121: 7e           ld   a,(hl)
1122: 11 10 00     ld   de,$0010
1125: 19           add  hl,de
1126: 77           ld   (hl),a
1127: cd f5 e7     call $E7F5
112a: c8           ret  z
112b: cd 44 e7     call $E744
112e: 0e 10        ld   c,$10
1130: 1e 0c        ld   e,$0C
1132: cd 01 ea     call $EA01
1135: cd 2d e9     call $E92D
1138: c3 27 ea     jp   $EA27
113b: 0e 0c        ld   c,$0C
113d: cd 18 e9     call $E918
1140: cd f5 e7     call $E7F5
1143: c8           ret  z
1144: 0e 00        ld   c,$00
1146: 1e 0c        ld   e,$0C
1148: cd 01 ea     call $EA01
114b: cd 2d e9     call $E92D
114e: c3 40 ea     jp   $EA40
1151: 0e 0f        ld   c,$0F
1153: cd 18 e9     call $E918
1156: cd f5 e7     call $E7F5
1159: c8           ret  z
115a: cd a6 e6     call $E6A6
115d: 7e           ld   a,(hl)
115e: f5           push af
115f: e5           push hl
1160: cd 5e e7     call $E75E
1163: eb           ex   de,hl
1164: 2a 43 e5     ld   hl,($E543)
1167: 0e 20        ld   c,$20
1169: d5           push de
116a: cd 4f e5     call $E54F
116d: cd 78 e7     call $E778
1170: d1           pop  de
1171: 21 0c 00     ld   hl,$000C
1174: 19           add  hl,de
1175: 4e           ld   c,(hl)
1176: 21 0f 00     ld   hl,$000F
1179: 19           add  hl,de
117a: 46           ld   b,(hl)
117b: e1           pop  hl
117c: f1           pop  af
117d: 77           ld   (hl),a
117e: 79           ld   a,c
117f: be           cp   (hl)
1180: 78           ld   a,b
1181: ca 8b ea     jp   z,$EA8B
1184: 3e 00        ld   a,$00
1186: da 8b ea     jp   c,$EA8B
1189: 3e 80        ld   a,$80
118b: 2a 43 e5     ld   hl,($E543)
118e: 11 0f 00     ld   de,$000F
1191: 19           add  hl,de
1192: 77           ld   (hl),a
1193: c9           ret
1194: 7e           ld   a,(hl)
1195: 23           inc  hl
1196: b6           or   (hl)
1197: 2b           dec  hl
1198: c0           ret  nz
1199: 1a           ld   a,(de)
119a: 77           ld   (hl),a
119b: 13           inc  de
119c: 23           inc  hl
119d: 1a           ld   a,(de)
119e: 77           ld   (hl),a
119f: 1b           dec  de
11a0: 2b           dec  hl
11a1: c9           ret
11a2: af           xor  a
11a3: 32 45 e5     ld   ($E545),a
11a6: 32 ea ef     ld   ($EFEA),a
11a9: 32 eb ef     ld   ($EFEB),a
11ac: cd 1e e7     call $E71E
11af: c0           ret  nz
11b0: cd 69 e7     call $E769
11b3: e6 80        and  $80
11b5: c0           ret  nz
11b6: 0e 0f        ld   c,$0F
11b8: cd 18 e9     call $E918
11bb: cd f5 e7     call $E7F5
11be: c8           ret  z
11bf: 01 10 00     ld   bc,$0010
11c2: cd 5e e7     call $E75E
11c5: 09           add  hl,bc
11c6: eb           ex   de,hl
11c7: 2a 43 e5     ld   hl,($E543)
11ca: 09           add  hl,bc
11cb: 0e 10        ld   c,$10
11cd: 3a dd ef     ld   a,($EFDD)
11d0: b7           or   a
11d1: ca e8 ea     jp   z,$EAE8
11d4: 7e           ld   a,(hl)
11d5: b7           or   a
11d6: 1a           ld   a,(de)
11d7: c2 db ea     jp   nz,$EADB
11da: 77           ld   (hl),a
11db: b7           or   a
11dc: c2 e1 ea     jp   nz,$EAE1
11df: 7e           ld   a,(hl)
11e0: 12           ld   (de),a
11e1: be           cp   (hl)
11e2: c2 1f eb     jp   nz,$EB1F
11e5: c3 fd ea     jp   $EAFD
11e8: cd 94 ea     call $EA94
11eb: eb           ex   de,hl
11ec: cd 94 ea     call $EA94
11ef: eb           ex   de,hl
11f0: 1a           ld   a,(de)
11f1: be           cp   (hl)
11f2: c2 1f eb     jp   nz,$EB1F
11f5: 13           inc  de
11f6: 23           inc  hl
11f7: 1a           ld   a,(de)
11f8: be           cp   (hl)
11f9: c2 1f eb     jp   nz,$EB1F
11fc: 0d           dec  c
11fd: 13           inc  de
11fe: 23           inc  hl
11ff: 0d           dec  c
1200: c2 cd ea     jp   nz,$EACD
1203: 01 ec ff     ld   bc,$FFEC
1206: 09           add  hl,bc
1207: eb           ex   de,hl
1208: 09           add  hl,bc
1209: 1a           ld   a,(de)
120a: be           cp   (hl)
120b: da 17 eb     jp   c,$EB17
120e: 77           ld   (hl),a
120f: 01 03 00     ld   bc,$0003
1212: 09           add  hl,bc
1213: eb           ex   de,hl
1214: 09           add  hl,bc
1215: 7e           ld   a,(hl)
1216: 12           ld   (de),a
1217: 3e ff        ld   a,$FF
1219: 32 d2 ef     ld   ($EFD2),a
121c: c3 10 ea     jp   $EA10
121f: 21 45 e5     ld   hl,$E545
1222: 35           dec  (hl)
1223: c9           ret
1224: cd 54 e7     call $E754
1227: 2a 43 e5     ld   hl,($E543)
122a: e5           push hl
122b: 21 ac ef     ld   hl,$EFAC
122e: 22 43 e5     ld   ($E543),hl
1231: 0e 01        ld   c,$01
1233: cd 18 e9     call $E918
1236: cd f5 e7     call $E7F5
1239: e1           pop  hl
123a: 22 43 e5     ld   ($E543),hl
123d: c8           ret  z
123e: eb           ex   de,hl
123f: 21 0f 00     ld   hl,$000F
1242: 19           add  hl,de
1243: 0e 11        ld   c,$11
1245: af           xor  a
1246: 77           ld   (hl),a
1247: 23           inc  hl
1248: 0d           dec  c
1249: c2 46 eb     jp   nz,$EB46
124c: 21 0d 00     ld   hl,$000D
124f: 19           add  hl,de
1250: 77           ld   (hl),a
1251: cd 8c e7     call $E78C
1254: cd fd e9     call $E9FD
1257: c3 78 e7     jp   $E778
125a: af           xor  a
125b: 32 d2 ef     ld   ($EFD2),a
125e: cd a2 ea     call $EAA2
1261: cd f5 e7     call $E7F5
1264: c8           ret  z
1265: 2a 43 e5     ld   hl,($E543)
1268: 01 0c 00     ld   bc,$000C
126b: 09           add  hl,bc
126c: 7e           ld   a,(hl)
126d: 3c           inc  a
126e: e6 1f        and  $1F
1270: 77           ld   (hl),a
1271: ca 83 eb     jp   z,$EB83
1274: 47           ld   b,a
1275: 3a c5 ef     ld   a,($EFC5)
1278: a0           and  b
1279: 21 d2 ef     ld   hl,$EFD2
127c: a6           and  (hl)
127d: ca 8e eb     jp   z,$EB8E
1280: c3 ac eb     jp   $EBAC
1283: 01 02 00     ld   bc,$0002
1286: 09           add  hl,bc
1287: 34           inc  (hl)
1288: 7e           ld   a,(hl)
1289: e6 0f        and  $0F
128b: ca b6 eb     jp   z,$EBB6
128e: 0e 0f        ld   c,$0F
1290: cd 18 e9     call $E918
1293: cd f5 e7     call $E7F5
1296: c2 ac eb     jp   nz,$EBAC
1299: 3a d3 ef     ld   a,($EFD3)
129c: 3c           inc  a
129d: ca b6 eb     jp   z,$EBB6
12a0: cd 24 eb     call $EB24
12a3: cd f5 e7     call $E7F5
12a6: ca b6 eb     jp   z,$EBB6
12a9: c3 af eb     jp   $EBAF
12ac: cd 5a ea     call $EA5A
12af: cd bb e6     call $E6BB
12b2: af           xor  a
12b3: c3 01 e5     jp   $E501
12b6: cd 05 e5     call $E505
12b9: c3 78 e7     jp   $E778
12bc: 3e 01        ld   a,$01
12be: 32 d5 ef     ld   ($EFD5),a
12c1: 3e ff        ld   a,$FF
12c3: 32 d3 ef     ld   ($EFD3),a
12c6: cd bb e6     call $E6BB
12c9: 3a e3 ef     ld   a,($EFE3)
12cc: 21 e1 ef     ld   hl,$EFE1
12cf: be           cp   (hl)
12d0: da e6 eb     jp   c,$EBE6
12d3: fe 80        cp   $80
12d5: c2 fb eb     jp   nz,$EBFB
12d8: cd 5a eb     call $EB5A
12db: af           xor  a
12dc: 32 e3 ef     ld   ($EFE3),a
12df: 3a 45 e5     ld   a,($E545)
12e2: b7           or   a
12e3: c2 fb eb     jp   nz,$EBFB
12e6: cd 77 e6     call $E677
12e9: cd 84 e6     call $E684
12ec: ca fb eb     jp   z,$EBFB
12ef: cd 8a e6     call $E68A
12f2: cd d1 e5     call $E5D1
12f5: cd b2 e5     call $E5B2
12f8: c3 d2 e6     jp   $E6D2
12fb: c3 05 e5     jp   $E505
12fe: 3e 01        ld   a,$01
1300: 32 d5 ef     ld   ($EFD5),a
1303: 3e 00        ld   a,$00
1305: 32 d3 ef     ld   ($EFD3),a
1308: cd 54 e7     call $E754
130b: 2a 43 e5     ld   hl,($E543)
130e: cd 47 e7     call $E747
1311: cd bb e6     call $E6BB
1314: 3a e3 ef     ld   a,($EFE3)
1317: fe 80        cp   $80
1319: d2 05 e5     jp   nc,$E505
131c: cd 77 e6     call $E677
131f: cd 84 e6     call $E684
1322: 0e 00        ld   c,$00
1324: c2 6e ec     jp   nz,$EC6E
1327: cd 3e e6     call $E63E
132a: 32 d7 ef     ld   ($EFD7),a
132d: 01 00 00     ld   bc,$0000
1330: b7           or   a
1331: ca 3b ec     jp   z,$EC3B
1334: 4f           ld   c,a
1335: 0b           dec  bc
1336: cd 5e e6     call $E65E
1339: 44           ld   b,h
133a: 4d           ld   c,l
133b: cd be e9     call $E9BE
133e: 7d           ld   a,l
133f: b4           or   h
1340: c2 48 ec     jp   nz,$EC48
1343: 3e 02        ld   a,$02
1345: c3 01 e5     jp   $E501
1348: 22 e5 ef     ld   ($EFE5),hl
134b: eb           ex   de,hl
134c: 2a 43 e5     ld   hl,($E543)
134f: 01 10 00     ld   bc,$0010
1352: 09           add  hl,bc
1353: 3a dd ef     ld   a,($EFDD)
1356: b7           or   a
1357: 3a d7 ef     ld   a,($EFD7)
135a: ca 64 ec     jp   z,$EC64
135d: cd 64 e7     call $E764
1360: 73           ld   (hl),e
1361: c3 6c ec     jp   $EC6C
1364: 4f           ld   c,a
1365: 06 00        ld   b,$00
1367: 09           add  hl,bc
1368: 09           add  hl,bc
1369: 73           ld   (hl),e
136a: 23           inc  hl
136b: 72           ld   (hl),d
136c: 0e 02        ld   c,$02
136e: 3a 45 e5     ld   a,($E545)
1371: b7           or   a
1372: c0           ret  nz
1373: c5           push bc
1374: cd 8a e6     call $E68A
1377: 3a d5 ef     ld   a,($EFD5)
137a: 3d           dec  a
137b: 3d           dec  a
137c: c2 bb ec     jp   nz,$ECBB
137f: c1           pop  bc
1380: c5           push bc
1381: 79           ld   a,c
1382: 3d           dec  a
1383: 3d           dec  a
1384: c2 bb ec     jp   nz,$ECBB
1387: e5           push hl
1388: 2a b9 ef     ld   hl,($EFB9)
138b: 57           ld   d,a
138c: 77           ld   (hl),a
138d: 23           inc  hl
138e: 14           inc  d
138f: f2 8c ec     jp   p,$EC8C
1392: cd e0 e7     call $E7E0
1395: 2a e7 ef     ld   hl,($EFE7)
1398: 0e 02        ld   c,$02
139a: 22 e5 ef     ld   ($EFE5),hl
139d: c5           push bc
139e: cd d1 e5     call $E5D1
13a1: c1           pop  bc
13a2: cd b8 e5     call $E5B8
13a5: 2a e5 ef     ld   hl,($EFE5)
13a8: 0e 00        ld   c,$00
13aa: 3a c4 ef     ld   a,($EFC4)
13ad: 47           ld   b,a
13ae: a5           and  l
13af: b8           cp   b
13b0: 23           inc  hl
13b1: c2 9a ec     jp   nz,$EC9A
13b4: e1           pop  hl
13b5: 22 e5 ef     ld   ($EFE5),hl
13b8: cd da e7     call $E7DA
13bb: cd d1 e5     call $E5D1
13be: c1           pop  bc
13bf: c5           push bc
13c0: cd b8 e5     call $E5B8
13c3: c1           pop  bc
13c4: 3a e3 ef     ld   a,($EFE3)
13c7: 21 e1 ef     ld   hl,$EFE1
13ca: be           cp   (hl)
13cb: da d2 ec     jp   c,$ECD2
13ce: 77           ld   (hl),a
13cf: 34           inc  (hl)
13d0: 0e 02        ld   c,$02
13d2: 00           nop
13d3: 00           nop
13d4: 21 00 da     ld   hl,$DA00
13d7: f5           push af
13d8: cd 69 e7     call $E769
13db: e6 7f        and  $7F
13dd: 77           ld   (hl),a
13de: f1           pop  af
13df: fe 7f        cp   $7F
13e1: c2 00 ed     jp   nz,$ED00
13e4: 3a d5 ef     ld   a,($EFD5)
13e7: fe 01        cp   $01
13e9: c2 00 ed     jp   nz,$ED00
13ec: cd d2 e6     call $E6D2
13ef: cd 5a eb     call $EB5A
13f2: 21 45 e5     ld   hl,$E545
13f5: 7e           ld   a,(hl)
13f6: b7           or   a
13f7: c2 fe ec     jp   nz,$ECFE
13fa: 3d           dec  a
13fb: 32 e3 ef     ld   ($EFE3),a
13fe: 36 00        ld   (hl),$00
1400: c3 d2 e6     jp   $E6D2
1403: af           xor  a
1404: 32 d5 ef     ld   ($EFD5),a
1407: c5           push bc
1408: 2a 43 e5     ld   hl,($E543)
140b: eb           ex   de,hl
140c: 21 21 00     ld   hl,$0021
140f: 19           add  hl,de
1410: 7e           ld   a,(hl)
1411: e6 7f        and  $7F
1413: f5           push af
1414: 7e           ld   a,(hl)
1415: 17           rla
1416: 23           inc  hl
1417: 7e           ld   a,(hl)
1418: 17           rla
1419: e6 1f        and  $1F
141b: 4f           ld   c,a
141c: 7e           ld   a,(hl)
141d: 1f           rra
141e: 1f           rra
141f: 1f           rra
1420: 1f           rra
1421: e6 0f        and  $0F
1423: 47           ld   b,a
1424: f1           pop  af
1425: 23           inc  hl
1426: 6e           ld   l,(hl)
1427: 2c           inc  l
1428: 2d           dec  l
1429: 2e 06        ld   l,$06
142b: c2 8b ed     jp   nz,$ED8B
142e: 21 20 00     ld   hl,$0020
1431: 19           add  hl,de
1432: 77           ld   (hl),a
1433: 21 0c 00     ld   hl,$000C
1436: 19           add  hl,de
1437: 79           ld   a,c
1438: 96           sub  (hl)
1439: c2 47 ed     jp   nz,$ED47
143c: 21 0e 00     ld   hl,$000E
143f: 19           add  hl,de
1440: 78           ld   a,b
1441: 96           sub  (hl)
1442: e6 7f        and  $7F
1444: ca 7f ed     jp   z,$ED7F
1447: c5           push bc
1448: d5           push de
1449: cd a2 ea     call $EAA2
144c: d1           pop  de
144d: c1           pop  bc
144e: 2e 03        ld   l,$03
1450: 3a 45 e5     ld   a,($E545)
1453: 3c           inc  a
1454: ca 84 ed     jp   z,$ED84
1457: 21 0c 00     ld   hl,$000C
145a: 19           add  hl,de
145b: 71           ld   (hl),c
145c: 21 0e 00     ld   hl,$000E
145f: 19           add  hl,de
1460: 70           ld   (hl),b
1461: cd 51 ea     call $EA51
1464: 3a 45 e5     ld   a,($E545)
1467: 3c           inc  a
1468: c2 7f ed     jp   nz,$ED7F
146b: c1           pop  bc
146c: c5           push bc
146d: 2e 04        ld   l,$04
146f: 0c           inc  c
1470: ca 84 ed     jp   z,$ED84
1473: cd 24 eb     call $EB24
1476: 2e 05        ld   l,$05
1478: 3a 45 e5     ld   a,($E545)
147b: 3c           inc  a
147c: ca 84 ed     jp   z,$ED84
147f: c1           pop  bc
1480: af           xor  a
1481: c3 01 e5     jp   $E501
1484: e5           push hl
1485: cd 69 e7     call $E769
1488: 36 c0        ld   (hl),$C0
148a: e1           pop  hl
148b: c1           pop  bc
148c: 7d           ld   a,l
148d: 32 45 e5     ld   ($E545),a
1490: c3 78 e7     jp   $E778
1493: 0e ff        ld   c,$FF
1495: cd 03 ed     call $ED03
1498: cc c1 eb     call z,$EBC1
149b: c9           ret
149c: 0e 00        ld   c,$00
149e: cd 03 ed     call $ED03
14a1: cc 03 ec     call z,$EC03
14a4: c9           ret
14a5: eb           ex   de,hl
14a6: 19           add  hl,de
14a7: 4e           ld   c,(hl)
14a8: 06 00        ld   b,$00
14aa: 21 0c 00     ld   hl,$000C
14ad: 19           add  hl,de
14ae: 7e           ld   a,(hl)
14af: 0f           rrca
14b0: e6 80        and  $80
14b2: 81           add  a,c
14b3: 4f           ld   c,a
14b4: 3e 00        ld   a,$00
14b6: 88           adc  a,b
14b7: 47           ld   b,a
14b8: 7e           ld   a,(hl)
14b9: 0f           rrca
14ba: e6 0f        and  $0F
14bc: 80           add  a,b
14bd: 47           ld   b,a
14be: 21 0e 00     ld   hl,$000E
14c1: 19           add  hl,de
14c2: 7e           ld   a,(hl)
14c3: 87           add  a,a
14c4: 87           add  a,a
14c5: 87           add  a,a
14c6: 87           add  a,a
14c7: f5           push af
14c8: 80           add  a,b
14c9: 47           ld   b,a
14ca: f5           push af
14cb: e1           pop  hl
14cc: 7d           ld   a,l
14cd: e1           pop  hl
14ce: b5           or   l
14cf: e6 01        and  $01
14d1: c9           ret
14d2: 0e 0c        ld   c,$0C
14d4: cd 18 e9     call $E918
14d7: 2a 43 e5     ld   hl,($E543)
14da: 11 21 00     ld   de,$0021
14dd: 19           add  hl,de
14de: e5           push hl
14df: 72           ld   (hl),d
14e0: 23           inc  hl
14e1: 72           ld   (hl),d
14e2: 23           inc  hl
14e3: 72           ld   (hl),d
14e4: cd f5 e7     call $E7F5
14e7: ca 0c ee     jp   z,$EE0C
14ea: cd 5e e7     call $E75E
14ed: 11 0f 00     ld   de,$000F
14f0: cd a5 ed     call $EDA5
14f3: e1           pop  hl
14f4: e5           push hl
14f5: 5f           ld   e,a
14f6: 79           ld   a,c
14f7: 96           sub  (hl)
14f8: 23           inc  hl
14f9: 78           ld   a,b
14fa: 9e           sbc  a,(hl)
14fb: 23           inc  hl
14fc: 7b           ld   a,e
14fd: 9e           sbc  a,(hl)
14fe: da 06 ee     jp   c,$EE06
1501: 73           ld   (hl),e
1502: 2b           dec  hl
1503: 70           ld   (hl),b
1504: 2b           dec  hl
1505: 71           ld   (hl),c
1506: cd 2d e9     call $E92D
1509: c3 e4 ed     jp   $EDE4
150c: e1           pop  hl
150d: c9           ret
150e: 2a 43 e5     ld   hl,($E543)
1511: 11 20 00     ld   de,$0020
1514: cd a5 ed     call $EDA5
1517: 21 21 00     ld   hl,$0021
151a: 19           add  hl,de
151b: 71           ld   (hl),c
151c: 23           inc  hl
151d: 70           ld   (hl),b
151e: 23           inc  hl
151f: 77           ld   (hl),a
1520: c9           ret
1521: 2a af ef     ld   hl,($EFAF)
1524: 3a 42 e5     ld   a,($E542)
1527: 4f           ld   c,a
1528: cd ea e6     call $E6EA
152b: e5           push hl
152c: eb           ex   de,hl
152d: cd 59 e5     call $E559
1530: e1           pop  hl
1531: cc 47 e5     call z,$E547
1534: 7d           ld   a,l
1535: 1f           rra
1536: d8           ret  c
1537: 2a af ef     ld   hl,($EFAF)
153a: 4d           ld   c,l
153b: 44           ld   b,h
153c: cd 0b e7     call $E70B
153f: 22 af ef     ld   ($EFAF),hl
1542: c3 a3 e8     jp   $E8A3
1545: 3a d6 ef     ld   a,($EFD6)
1548: 21 42 e5     ld   hl,$E542
154b: be           cp   (hl)
154c: c8           ret  z
154d: 77           ld   (hl),a
154e: c3 21 ee     jp   $EE21
1551: 3e ff        ld   a,$FF
1553: 32 de ef     ld   ($EFDE),a
1556: 2a 43 e5     ld   hl,($E543)
1559: 7e           ld   a,(hl)
155a: e6 1f        and  $1F
155c: 3d           dec  a
155d: 32 d6 ef     ld   ($EFD6),a
1560: fe 1e        cp   $1E
1562: d2 75 ee     jp   nc,$EE75
1565: 3a 42 e5     ld   a,($E542)
1568: 32 df ef     ld   ($EFDF),a
156b: 7e           ld   a,(hl)
156c: 32 e0 ef     ld   ($EFE0),a
156f: e6 e0        and  $E0
1571: 77           ld   (hl),a
1572: cd 45 ee     call $EE45
1575: 3a 41 e5     ld   a,($E541)
1578: 2a 43 e5     ld   hl,($E543)
157b: b6           or   (hl)
157c: 77           ld   (hl),a
157d: c9           ret
157e: 3e 22        ld   a,$22
1580: c3 01 e5     jp   $E501
1583: 21 00 00     ld   hl,$0000
1586: 22 ad ef     ld   ($EFAD),hl
1589: 22 af ef     ld   ($EFAF),hl
158c: af           xor  a
158d: 32 42 e5     ld   ($E542),a
1590: 21 80 00     ld   hl,$0080
1593: 22 b1 ef     ld   ($EFB1),hl
1596: cd da e7     call $E7DA
1599: c3 21 ee     jp   $EE21
159c: cd 72 e7     call $E772
159f: cd 51 ee     call $EE51
15a2: c3 51 ea     jp   $EA51
15a5: cd 51 ee     call $EE51
15a8: c3 a2 ea     jp   $EAA2
15ab: 0e 00        ld   c,$00
15ad: eb           ex   de,hl
15ae: 7e           ld   a,(hl)
15af: fe 3f        cp   $3F
15b1: ca c2 ee     jp   z,$EEC2
15b4: cd a6 e6     call $E6A6
15b7: 7e           ld   a,(hl)
15b8: fe 3f        cp   $3F
15ba: c4 72 e7     call nz,$E772
15bd: cd 51 ee     call $EE51
15c0: 0e 0f        ld   c,$0F
15c2: cd 18 e9     call $E918
15c5: c3 e9 e7     jp   $E7E9
15c8: 2a d9 ef     ld   hl,($EFD9)
15cb: 22 43 e5     ld   ($E543),hl
15ce: cd 51 ee     call $EE51
15d1: cd 2d e9     call $E92D
15d4: c3 e9 e7     jp   $E7E9
15d7: cd 51 ee     call $EE51
15da: cd 9c e9     call $E99C
15dd: c3 01 e9     jp   $E901
15e0: cd 51 ee     call $EE51
15e3: c3 bc eb     jp   $EBBC
15e6: cd 51 ee     call $EE51
15e9: c3 fe eb     jp   $EBFE
15ec: cd 72 e7     call $E772
15ef: cd 51 ee     call $EE51
15f2: c3 24 eb     jp   $EB24
15f5: cd 51 ee     call $EE51
15f8: cd 16 ea     call $EA16
15fb: c3 01 e9     jp   $E901
15fe: 2a af ef     ld   hl,($EFAF)
1601: c3 29 ef     jp   $EF29
1604: 3a 42 e5     ld   a,($E542)
1607: c3 01 e5     jp   $E501
160a: eb           ex   de,hl
160b: 22 b1 ef     ld   ($EFB1),hl
160e: c3 da e7     jp   $E7DA
1611: 2a bf ef     ld   hl,($EFBF)
1614: c3 29 ef     jp   $EF29
1617: 2a ad ef     ld   hl,($EFAD)
161a: c3 29 ef     jp   $EF29
161d: cd 51 ee     call $EE51
1620: cd 3b ea     call $EA3B
1623: c3 01 e9     jp   $E901
1626: 2a bb ef     ld   hl,($EFBB)
1629: 22 45 e5     ld   ($E545),hl
162c: c9           ret
162d: 3a d6 ef     ld   a,($EFD6)
1630: fe ff        cp   $FF
1632: c2 3b ef     jp   nz,$EF3B
1635: 3a 41 e5     ld   a,($E541)
1638: c3 01 e5     jp   $E501
163b: e6 1f        and  $1F
163d: 32 41 e5     ld   ($E541),a
1640: c9           ret
1641: cd 51 ee     call $EE51
1644: c3 93 ed     jp   $ED93
1647: cd 51 ee     call $EE51
164a: c3 9c ed     jp   $ED9C
164d: cd 51 ee     call $EE51
1650: c3 d2 ed     jp   $EDD2
1653: 2a 43 e5     ld   hl,($E543)
1656: 7d           ld   a,l
1657: 2f           cpl
1658: 5f           ld   e,a
1659: 7c           ld   a,h
165a: 2f           cpl
165b: 2a af ef     ld   hl,($EFAF)
165e: a4           and  h
165f: 57           ld   d,a
1660: 7d           ld   a,l
1661: a3           and  e
1662: 5f           ld   e,a
1663: 2a ad ef     ld   hl,($EFAD)
1666: eb           ex   de,hl
1667: 22 af ef     ld   ($EFAF),hl
166a: 7d           ld   a,l
166b: a3           and  e
166c: 6f           ld   l,a
166d: 7c           ld   a,h
166e: a2           and  d
166f: 67           ld   h,a
1670: 22 ad ef     ld   ($EFAD),hl
1673: c9           ret
1674: 3a de ef     ld   a,($EFDE)
1677: b7           or   a
1678: ca 91 ef     jp   z,$EF91
167b: 2a 43 e5     ld   hl,($E543)
167e: 36 00        ld   (hl),$00
1680: 3a e0 ef     ld   a,($EFE0)
1683: b7           or   a
1684: ca 91 ef     jp   z,$EF91
1687: 77           ld   (hl),a
1688: 3a df ef     ld   a,($EFDF)
168b: 32 d6 ef     ld   ($EFD6),a
168e: cd 45 ee     call $EE45
1691: 2a 0f e5     ld   hl,($E50F)
1694: f9           ld   sp,hl
1695: 2a 45 e5     ld   hl,($E545)
1698: 7d           ld   a,l
1699: 44           ld   b,h
169a: c9           ret
169b: cd 51 ee     call $EE51
169e: 3e 02        ld   a,$02
16a0: 32 d5 ef     ld   ($EFD5),a
16a3: 0e 00        ld   c,$00
16a5: cd 07 ed     call $ED07
16a8: cc 03 ec     call z,$EC03
16ab: c9           ret
16ac: e5           push hl
16ad: 00           nop
16ae: 00           nop
16af: 00           nop
16b0: 00           nop
16b1: 80           add  a,b
16b2: 00           nop
16b3: 00           nop
16b4: 00           nop
16b5: 00           nop
16b6: 00           nop
16b7: 00           nop
16b8: 00           nop
16b9: 00           nop
16ba: 00           nop
16bb: 00           nop
16bc: 00           nop
16bd: 00           nop
16be: 00           nop
16bf: 00           nop
16c0: 00           nop
16c1: 00           nop
16c2: 00           nop
16c3: 00           nop
16c4: 00           nop
16c5: 00           nop
16c6: 00           nop
16c7: 00           nop
16c8: 00           nop
16c9: 00           nop
16ca: 00           nop
16cb: 00           nop
16cc: 00           nop
16cd: 00           nop
16ce: 00           nop
16cf: 00           nop
16d0: 00           nop
16d1: 00           nop
16d2: 00           nop
16d3: 00           nop
16d4: 00           nop
16d5: 00           nop
16d6: 00           nop
16d7: 00           nop
16d8: 00           nop
16d9: 00           nop
16da: 00           nop
16db: 00           nop
16dc: 00           nop
16dd: 00           nop
16de: 00           nop
16df: 00           nop
16e0: 00           nop
16e1: 00           nop
16e2: 00           nop
16e3: 00           nop
16e4: 00           nop
16e5: 00           nop
16e6: 00           nop
16e7: 00           nop
16e8: 00           nop
16e9: 00           nop
16ea: 00           nop
16eb: 00           nop
16ec: 00           nop
16ed: 00           nop
16ee: 00           nop
16ef: 00           nop
16f0: 00           nop
16f1: 00           nop
16f2: 00           nop
16f3: 00           nop
16f4: 00           nop
16f5: 00           nop
16f6: 00           nop
16f7: 00           nop
16f8: 00           nop
16f9: 00           nop
16fa: 00           nop
16fb: 00           nop
16fc: 00           nop
16fd: 00           nop
16fe: 00           nop
16ff: 00           nop
1700: c3 0c 9c     jp   $9C0C
1703: c3 01 f1     jp   $F101
1706: c3 08 f1     jp   $F108
1709: c3 0f f1     jp   $F10F
170c: c3 1b f1     jp   $F11B
170f: c3 22 f1     jp   $F122
1712: c3 29 f1     jp   $F129
1715: c3 30 f1     jp   $F130
1718: c3 37 f1     jp   $F137
171b: c3 3e f1     jp   $F13E
171e: c3 45 f1     jp   $F145
1721: c3 4c f1     jp   $F14C
1724: c3 53 f1     jp   $F153
1727: c3 5a f1     jp   $F15A
172a: c3 61 f1     jp   $F161
172d: c3 68 f1     jp   $F168
1730: c3 6f f1     jp   $F16F
1733: c3 76 f1     jp   $F176
1736: c3 63 f0     jp   $F063
1739: c3 63 f0     jp   $F063
173c: c3 63 f0     jp   $F063
173f: c3 63 f0     jp   $F063
1742: c3 63 f0     jp   $F063
1745: c3 63 f0     jp   $F063
1748: c3 63 f0     jp   $F063
174b: c3 63 f0     jp   $F063
174e: c3 63 f0     jp   $F063
1751: c3 63 f0     jp   $F063
1754: c3 63 f0     jp   $F063
1757: c3 63 f0     jp   $F063
175a: c3 63 f0     jp   $F063
175d: c3 7d f1     jp   $F17D
1760: 5d           ld   e,l
1761: 00           nop
1762: 21 03 00     ld   hl,$0003
1765: 11 00 f0     ld   de,$F000
1768: ed 4b 60 00  ld   bc,($0060)
176c: ed b0        ldir
176e: 31 00 00     ld   sp,$0000
1771: cd f2 94     call $94F2
1774: 21 ff ff     ld   hl,$FFFF
1777: 22 30 98     ld   ($9830),hl
177a: 3e ff        ld   a,$FF
177c: 32 b6 f4     ld   ($F4B6),a
177f: 32 b7 f4     ld   ($F4B7),a
1782: af           xor  a
1783: 32 8d 19     ld   ($198D),a
1786: 32 26 98     ld   ($9826),a
1789: 32 28 98     ld   ($9828),a
178c: 3d           dec  a
178d: 32 3d 98     ld   ($983D),a
1790: 1e 00        ld   e,$00
1792: cd 54 92     call $9254
1795: 1e 01        ld   e,$01
1797: cd 54 92     call $9254
179a: 3a 66 f0     ld   a,($F066)
179d: e6 04        and  $04
179f: 28 02        jr   z,$17A3
17a1: cb cf        set  1,a
17a3: 32 66 f0     ld   ($F066),a
17a6: 3e 8f        ld   a,$8F
17a8: 32 d5 38     ld   ($38D5),a
17ab: cd dd 12     call $12DD
17ae: 0e 1b        ld   c,$1B
17b0: cd d7 12     call $12D7
17b3: 0e 58        ld   c,$58
17b5: cd d7 12     call $12D7
17b8: 0e 45        ld   c,$45
17ba: cd d7 12     call $12D7
17bd: cd b3 f5     call $F5B3
17c0: cd d6 00     call $00D6
17c3: af           xor  a
17c4: 32 69 16     ld   ($1669),a
17c7: cd 62 07     call $0762
17ca: 01 80 00     ld   bc,$0080
17cd: cd 5e 90     call $905E
17d0: cd 20 f3     call $F320
17d3: c3 96 f4     jp   $F496
17d6: 01 03 01     ld   bc,$0103
17d9: cd 9b f3     call $F39B
17dc: 21 00 d8     ld   hl,$D800
17df: 11 00 da     ld   de,$DA00
17e2: 01 00 08     ld   bc,$0800
17e5: cd a5 f3     call $F3A5
17e8: 01 01 01     ld   bc,$0101
17eb: cd 9b f3     call $F39B
17ee: 01 06 00     ld   bc,$0006
17f1: 11 00 e2     ld   de,$E200
17f4: 21 28 dd     ld   hl,$DD28
17f7: cd a5 f3     call $F3A5
17fa: c9           ret
17fb: 08           ex   af,af'
17fc: 3a 17 02     ld   a,($0217)
17ff: b9           cp   c
1800: da 15 01     jp   c,$0115
1803: 79           ld   a,c
1804: 81           add  a,c
1805: d9           exx
1806: 5f           ld   e,a
1807: 16 00        ld   d,$00
1809: 21 17 01     ld   hl,$0117
180c: 19           add  hl,de
180d: 7e           ld   a,(hl)
180e: 23           inc  hl
180f: 66           ld   h,(hl)
1810: 6f           ld   l,a
1811: e5           push hl
1812: d9           exx
1813: 08           ex   af,af'
1814: c9           ret
1815: af           xor  a
1816: c9           ret
1817: 18 02        jr   $181B
1819: f2 94 ba     jp   p,$BA94
181c: 02           ld   (bc),a
181d: d7           rst  $10
181e: 02           ld   (bc),a
181f: db 02        in   a,($02)
1821: f0           ret  p
1822: 02           ld   (bc),a
1823: 03           inc  bc
1824: 03           inc  bc
1825: b8           cp   b
1826: 03           inc  bc
1827: f2 03 0d     jp   p,$0D03
182a: 04           inc  b
182b: 26 04        ld   h,$04
182d: 2f           cpl
182e: 04           inc  b
182f: 59           ld   e,c
1830: 04           inc  b
1831: 5d           ld   e,l
1832: 04           inc  b
1833: 72           ld   (hl),d
1834: 04           inc  b
1835: 79           ld   a,c
1836: 04           inc  b
1837: b5           or   l
1838: 04           inc  b
1839: b9           cp   c
183a: 04           inc  b
183b: c0           ret  nz
183c: 04           inc  b
183d: d0           ret  nc
183e: 04           inc  b
183f: 4d           ld   c,l
1840: 05           dec  b
1841: 60           ld   h,b
1842: 05           dec  b
1843: 74           ld   (hl),h
1844: 05           dec  b
1845: 8c           adc  a,h
1846: 05           dec  b
1847: a4           and  h
1848: 05           dec  b
1849: a9           xor  c
184a: 05           dec  b
184b: c2 05 25     jp   nz,$2505
184e: 06 29        ld   b,$29
1850: 06 2d        ld   b,$2D
1852: 06 32        ld   b,$32
1854: 06 52        ld   b,$52
1856: 06 65        ld   b,$65
1858: 06 7c        ld   b,$7C
185a: 06 8f        ld   b,$8F
185c: 06 a4        ld   b,$A4
185e: 06 bc        ld   b,$BC
1860: 06 d5        ld   b,$D5
1862: 06 e8        ld   b,$E8
1864: 06 19        ld   b,$19
1866: 07           rlca
1867: 1f           rra
1868: 07           rlca
1869: 30 07        jr   nc,$1872
186b: 57           ld   d,a
186c: 07           rlca
186d: 5b           ld   e,e
186e: 07           rlca
186f: 62           ld   h,d
1870: 07           rlca
1871: 88           adc  a,b
1872: 07           rlca
1873: 8d           adc  a,l
1874: 07           rlca
1875: ca 07 0f     jp   z,$0F07
1878: 08           ex   af,af'
1879: f0           ret  p
187a: f4 f0 f4     call p,$F4F0
187d: 66           ld   h,(hl)
187e: 08           ex   af,af'
187f: 92           sub  d
1880: 08           ex   af,af'
1881: fd 09        add  iy,bc
1883: 4c           ld   c,h
1884: 49           ld   c,c
1885: 00           nop
1886: 52           ld   d,d
1887: 11 69 1f     ld   de,$1F69
188a: 0b           dec  bc
188b: 23           inc  hl
188c: 0b           dec  bc
188d: fd 09        add  iy,bc
188f: 99           sbc  a,c
1890: 08           ex   af,af'
1891: e0           ret  po
1892: 08           ex   af,af'
1893: ea 08 f5     jp   pe,$F508
1896: 08           ex   af,af'
1897: 16 09        ld   d,$09
1899: 3e 09        ld   a,$09
189b: 3e 09        ld   a,$09
189d: 3e 09        ld   a,$09
189f: fd 09        add  iy,bc
18a1: fd 09        add  iy,bc
18a3: 63           ld   h,e
18a4: 32 00 44     ld   ($4400),a
18a7: a7           and  a
18a8: 09           add  hl,bc
18a9: ab           xor  e
18aa: 09           add  hl,bc
18ab: af           xor  a
18ac: 09           add  hl,bc
18ad: fd 09        add  iy,bc
18af: fd 09        add  iy,bc
18b1: fd 09        add  iy,bc
18b3: fd 09        add  iy,bc
18b5: fd 09        add  iy,bc
18b7: 46           ld   b,(hl)
18b8: 92           sub  d
18b9: 54           ld   d,h
18ba: 92           sub  d
18bb: 62           ld   h,d
18bc: 92           sub  d
18bd: fd 09        add  iy,bc
18bf: fd 09        add  iy,bc
18c1: fd 09        add  iy,bc
18c3: fd 09        add  iy,bc
18c5: fd 09        add  iy,bc
18c7: fd 09        add  iy,bc
18c9: fd 09        add  iy,bc
18cb: fd 09        add  iy,bc
18cd: c4 09 e7     call nz,$E709
18d0: 09           add  hl,bc
18d1: fd 09        add  iy,bc
18d3: fd 09        add  iy,bc
18d5: fd 09        add  iy,bc
18d7: fd 09        add  iy,bc
18d9: fd 09        add  iy,bc
18db: fd 09        add  iy,bc
18dd: fd 09        add  iy,bc
18df: fd 09        add  iy,bc
18e1: fd 09        add  iy,bc
18e3: fd 09        add  iy,bc
18e5: fd 09        add  iy,bc
18e7: fd 09        add  iy,bc
18e9: fd 09        add  iy,bc
18eb: fd 09        add  iy,bc
18ed: fd 09        add  iy,bc
18ef: fd 09        add  iy,bc
18f1: fd 09        add  iy,bc
18f3: fd 09        add  iy,bc
18f5: fd 09        add  iy,bc
18f7: fd 09        add  iy,bc
18f9: fd 09        add  iy,bc
18fb: fd 09        add  iy,bc
18fd: fd 09        add  iy,bc
18ff: fd 09        add  iy,bc
1901: fd 09        add  iy,bc
1903: fd 09        add  iy,bc
1905: fd 09        add  iy,bc
1907: fd 09        add  iy,bc
1909: fd 09        add  iy,bc
190b: fd 09        add  iy,bc
190d: fd 09        add  iy,bc
190f: fd 09        add  iy,bc
1911: fd 09        add  iy,bc
1913: fd 09        add  iy,bc
1915: fd 09        add  iy,bc
1917: 7f           ld   a,a
1918: 32 a6 02     ld   ($02A6),a
191b: 01 06 00     ld   bc,$0006
191e: cd a7 02     call $02A7
1921: 3a 81 0a     ld   a,($0A81)
1924: fe 05        cp   $05
1926: 30 7d        jr   nc,$19A5
1928: fe 03        cp   $03
192a: 20 07        jr   nz,$1933
192c: 3e fe        ld   a,$FE
192e: 32 7f 0a     ld   ($0A7F),a
1931: 18 30        jr   $1963
1933: fe 01        cp   $01
1935: 20 07        jr   nz,$193E
1937: 3e ff        ld   a,$FF
1939: 32 7f 0a     ld   ($0A7F),a
193c: 18 25        jr   $1963
193e: fe 00        cp   $00
1940: 28 21        jr   z,$1963
1942: 3a 65 f0     ld   a,($F065)
1945: 4f           ld   c,a
1946: 06 00        ld   b,$00
1948: cd 9b f3     call $F39B
194b: 11 70 fd     ld   de,$FD70
194e: 2a 84 0a     ld   hl,($0A84)
1951: 3a 81 0a     ld   a,($0A81)
1954: fe 04        cp   $04
1956: 20 05        jr   nz,$195D
1958: 01 00 01     ld   bc,$0100
195b: 18 03        jr   $1960
195d: 01 00 02     ld   bc,$0200
1960: cd a5 f3     call $F3A5
1963: ed 4b 80 0a  ld   bc,($0A80)
1967: ed 5b 82 0a  ld   de,($0A82)
196b: 21 70 fd     ld   hl,$FD70
196e: 3a a6 02     ld   a,($02A6)
1971: cd f9 94     call $94F9
1974: b7           or   a
1975: c2 a5 02     jp   nz,$02A5
1978: 3a 7f 0a     ld   a,($0A7F)
197b: b7           or   a
197c: ca a5 02     jp   z,$02A5
197f: 3a 65 f0     ld   a,($F065)
1982: 47           ld   b,a
1983: 0e 00        ld   c,$00
1985: cd 9b f3     call $F39B
1988: ed 5b 84 0a  ld   de,($0A84)
198c: 21 70 fd     ld   hl,$FD70
198f: 3a 7f 0a     ld   a,($0A7F)
1992: fe ff        cp   $FF
1994: 28 05        jr   z,$199B
1996: 01 00 01     ld   bc,$0100
1999: 18 03        jr   $199E
199b: 01 00 02     ld   bc,$0200
199e: cd a5 f3     call $F3A5
19a1: af           xor  a
19a2: 32 7f 0a     ld   ($0A7F),a
19a5: c9           ret
19a6: 00           nop
19a7: c5           push bc
19a8: 3a 65 f0     ld   a,($F065)
19ab: 4f           ld   c,a
19ac: 06 00        ld   b,$00
19ae: cd 9b f3     call $F39B
19b1: 21 80 0a     ld   hl,$0A80
19b4: eb           ex   de,hl
19b5: c1           pop  bc
19b6: cd a5 f3     call $F3A5
19b9: c9           ret
19ba: fe 03        cp   $03
19bc: 38 15        jr   c,$19D3
19be: fe 06        cp   $06
19c0: 30 11        jr   nc,$19D3
19c2: f5           push af
19c3: 78           ld   a,b
19c4: fe 10        cp   $10
19c6: 30 0a        jr   nc,$19D2
19c8: 3e 01        ld   a,$01
19ca: 32 d6 02     ld   ($02D6),a
19cd: f1           pop  af
19ce: cd 9e 90     call $909E
19d1: c9           ret
19d2: f1           pop  af
19d3: 3e ff        ld   a,$FF
19d5: c9           ret
19d6: 00           nop
19d7: 11 1f f6     ld   de,$F61F
19da: c9           ret
19db: d5           push de
19dc: 3a 65 f0     ld   a,($F065)
19df: 4f           ld   c,a
19e0: 06 00        ld   b,$00
19e2: cd 9b f3     call $F39B
19e5: e1           pop  hl
19e6: 11 95 f6     ld   de,$F695
19e9: 01 1b 00     ld   bc,$001B
19ec: cd a5 f3     call $F3A5
19ef: c9           ret
19f0: 3a 65 f0     ld   a,($F065)
19f3: 47           ld   b,a
19f4: 0e 00        ld   c,$00
19f6: cd 9b f3     call $F39B
19f9: 21 0a 27     ld   hl,$270A
19fc: 01 80 00     ld   bc,$0080
19ff: cd a5 f3     call $F3A5
1a02: c9           ret
1a03: 3a 3c 27     ld   a,($273C)
1a06: 32 1d 0b     ld   ($0B1D),a
1a09: 3a 35 27     ld   a,($2735)
1a0c: 32 1c 0b     ld   ($0B1C),a
1a0f: 3a 65 f0     ld   a,($F065)
1a12: 4f           ld   c,a
1a13: 06 00        ld   b,$00
1a15: cd 9b f3     call $F39B
1a18: 21 19 00     ld   hl,$0019
1a1b: 19           add  hl,de
1a1c: 11 23 27     ld   de,$2723
1a1f: 01 67 00     ld   bc,$0067
1a22: cd a5 f3     call $F3A5
1a25: 3a 1d 0b     ld   a,($0B1D)
1a28: 32 3c 27     ld   ($273C),a
1a2b: 3a 34 27     ld   a,($2734)
1a2e: cd 32 06     call $0632
1a31: 3a 1c 0b     ld   a,($0B1C)
1a34: 47           ld   b,a
1a35: 3a 35 27     ld   a,($2735)
1a38: b8           cp   b
1a39: 28 3c        jr   z,$1A77
1a3b: b7           or   a
1a3c: 28 05        jr   z,$1A43
1a3e: cd 12 f7     call $F712
1a41: 18 34        jr   $1A77
1a43: 3a 65 9b     ld   a,($9B65)
1a46: b7           or   a
1a47: 28 2e        jr   z,$1A77
1a49: 21 a3 0a     ld   hl,$0AA3
1a4c: 3e 0b        ld   a,$0B
1a4e: 0e 00        ld   c,$00
1a50: cd ec 12     call $12EC
1a53: cd 6a 16     call $166A
1a56: cd 69 12     call $1269
1a59: f5           push af
1a5a: 3e 01        ld   a,$01
1a5c: cd ef 12     call $12EF
1a5f: f1           pop  af
1a60: e6 df        and  $DF
1a62: fe 41        cp   $41
1a64: ca 72 03     jp   z,$0372
1a67: fe 43        cp   $43
1a69: c2 43 03     jp   nz,$0343
1a6c: af           xor  a
1a6d: 32 65 9b     ld   ($9B65),a
1a70: 18 05        jr   $1A77
1a72: 3e 01        ld   a,$01
1a74: 32 35 27     ld   ($2735),a
1a77: cd 4f f3     call $F34F
1a7a: 32 2a 27     ld   ($272A),a
1a7d: 06 44        ld   b,$44
1a7f: 21 d4 38     ld   hl,$38D4
1a82: 3a 27 27     ld   a,($2727)
1a85: b7           or   a
1a86: 20 02        jr   nz,$1A8A
1a88: 06 64        ld   b,$64
1a8a: 70           ld   (hl),b
1a8b: cd dd 12     call $12DD
1a8e: 06 05        ld   b,$05
1a90: 21 1e 98     ld   hl,$981E
1a93: 3a 23 27     ld   a,($2723)
1a96: b7           or   a
1a97: 20 02        jr   nz,$1A9B
1a99: 06 01        ld   b,$01
1a9b: 70           ld   (hl),b
1a9c: cd d6 13     call $13D6
1a9f: cd bd 14     call $14BD
1aa2: 3e ff        ld   a,$FF
1aa4: 32 59 12     ld   ($1259),a
1aa7: 3a 25 27     ld   a,($2725)
1aaa: b7           or   a
1aab: 20 0a        jr   nz,$1AB7
1aad: 3e 34        ld   a,$34
1aaf: 0e 40        ld   c,$40
1ab1: 21 94 0a     ld   hl,$0A94
1ab4: cd ec 12     call $12EC
1ab7: c9           ret
1ab8: 3a 3d 27     ld   a,($273D)
1abb: f5           push af
1abc: af           xor  a
1abd: 32 3d 27     ld   ($273D),a
1ac0: 3a 3c 27     ld   a,($273C)
1ac3: b7           or   a
1ac4: 20 0f        jr   nz,$1AD5
1ac6: 11 00 01     ld   de,$0100
1ac9: 01 00 04     ld   bc,$0400
1acc: 21 0a 27     ld   hl,$270A
1acf: af           xor  a
1ad0: cd f9 94     call $94F9
1ad3: 18 17        jr   $1AEC
1ad5: af           xor  a
1ad6: 21 01 00     ld   hl,$0001
1ad9: cd 48 98     call $9848
1adc: eb           ex   de,hl
1add: 21 0a 27     ld   hl,$270A
1ae0: 01 80 00     ld   bc,$0080
1ae3: ed b0        ldir
1ae5: af           xor  a
1ae6: 21 01 00     ld   hl,$0001
1ae9: cd 59 98     call $9859
1aec: f1           pop  af
1aed: 32 3d 27     ld   ($273D),a
1af0: af           xor  a
1af1: c9           ret
1af2: d5           push de
1af3: 21 dc f7     ld   hl,$F7DC
1af6: cd f9 11     call $11F9
1af9: 3a 65 f0     ld   a,($F065)
1afc: 47           ld   b,a
1afd: 0e 00        ld   c,$00
1aff: cd 9b f3     call $F39B
1b02: d1           pop  de
1b03: 21 dc f7     ld   hl,$F7DC
1b06: 01 07 00     ld   bc,$0007
1b09: cd a5 f3     call $F3A5
1b0c: c9           ret
1b0d: 3a 65 f0     ld   a,($F065)
1b10: 4f           ld   c,a
1b11: 06 00        ld   b,$00
1b13: cd 9b f3     call $F39B
1b16: 21 dc f7     ld   hl,$F7DC
1b19: eb           ex   de,hl
1b1a: 01 07 00     ld   bc,$0007
1b1d: cd a5 f3     call $F3A5
1b20: 21 dc f7     ld   hl,$F7DC
1b23: c3 07 12     jp   $1207
1b26: 16 42        ld   d,$42
1b28: 1e 32        ld   e,$32
1b2a: 26 32        ld   h,$32
1b2c: 2e 37        ld   l,$37
1b2e: c9           ret
1b2f: 3a 65 f0     ld   a,($F065)
1b32: 4f           ld   c,a
1b33: 06 00        ld   b,$00
1b35: cd 9b f3     call $F39B
1b38: 11 dc f7     ld   de,$F7DC
1b3b: 01 50 00     ld   bc,$0050
1b3e: cd a5 f3     call $F3A5
1b41: 21 dc f7     ld   hl,$F7DC
1b44: 3e 03        ld   a,$03
1b46: 0e 00        ld   c,$00
1b48: cd ec 12     call $12EC
1b4b: cd 6a 16     call $166A
1b4e: cd 69 12     call $1269
1b51: f5           push af
1b52: 3e 01        ld   a,$01
1b54: cd ef 12     call $12EF
1b57: f1           pop  af
1b58: c9           ret
1b59: 3a 14 98     ld   a,($9814)
1b5c: c9           ret
1b5d: 3a 65 f0     ld   a,($F065)
1b60: 4f           ld   c,a
1b61: 06 00        ld   b,$00
1b63: cd 9b f3     call $F39B
1b66: 21 00 d2     ld   hl,$D200
1b69: eb           ex   de,hl
1b6a: ed 4b 79 0a  ld   bc,($0A79)
1b6e: cd a5 f3     call $F3A5
1b71: c9           ret
1b72: 32 9a 4f     ld   ($4F9A),a
1b75: cd 59 40     call $4059
1b78: c9           ret
1b79: af           xor  a
1b7a: 32 3f 27     ld   ($273F),a
1b7d: f5           push af
1b7e: 3a 3c 27     ld   a,($273C)
1b81: b7           or   a
1b82: 20 0f        jr   nz,$1B93
1b84: f1           pop  af
1b85: 06 0c        ld   b,$0C
1b87: 21 00 d2     ld   hl,$D200
1b8a: 11 14 01     ld   de,$0114
1b8d: cd fe 09     call $09FE
1b90: f5           push af
1b91: 18 13        jr   $1BA6
1b93: f1           pop  af
1b94: 06 06        ld   b,$06
1b96: 11 00 d2     ld   de,$D200
1b99: 21 01 00     ld   hl,$0001
1b9c: b7           or   a
1b9d: 3e 0a        ld   a,$0A
1b9f: c2 36 0a     jp   nz,$0A36
1ba2: cd 22 0a     call $0A22
1ba5: f5           push af
1ba6: 21 11 5b     ld   hl,$5B11
1ba9: 36 00        ld   (hl),$00
1bab: 11 12 5b     ld   de,$5B12
1bae: 01 ff 01     ld   bc,$01FF
1bb1: ed b0        ldir
1bb3: f1           pop  af
1bb4: c9           ret
1bb5: 3e 01        ld   a,$01
1bb7: 18 c4        jr   $1B7D
1bb9: 3a 9a 4f     ld   a,($4F9A)
1bbc: 32 cf 04     ld   ($04CF),a
1bbf: c9           ret
1bc0: 3a cf 04     ld   a,($04CF)
1bc3: fe ff        cp   $FF
1bc5: c8           ret  z
1bc6: 32 9a 4f     ld   ($4F9A),a
1bc9: 3e ff        ld   a,$FF
1bcb: 32 cf 04     ld   ($04CF),a
1bce: c9           ret
1bcf: ff           rst  $38
1bd0: f5           push af
1bd1: 3e 01        ld   a,$01
1bd3: 32 3f 27     ld   ($273F),a
1bd6: 3a 3c 27     ld   a,($273C)
1bd9: b7           or   a
1bda: 20 12        jr   nz,$1BEE
1bdc: f1           pop  af
1bdd: f5           push af
1bde: 06 08        ld   b,$08
1be0: 11 09 00     ld   de,$0009
1be3: 21 00 d2     ld   hl,$D200
1be6: cd fe 09     call $09FE
1be9: f1           pop  af
1bea: b7           or   a
1beb: c0           ret  nz
1bec: 18 50        jr   $1C3E
1bee: 3e 04        ld   a,$04
1bf0: 21 00 00     ld   hl,$0000
1bf3: cd 48 98     call $9848
1bf6: 24           inc  h
1bf7: 11 00 d2     ld   de,$D200
1bfa: 01 00 01     ld   bc,$0100
1bfd: f1           pop  af
1bfe: b7           or   a
1bff: 28 31        jr   z,$1C32
1c01: eb           ex   de,hl
1c02: ed b0        ldir
1c04: 3e 04        ld   a,$04
1c06: 21 00 00     ld   hl,$0000
1c09: cd 59 98     call $9859
1c0c: 06 03        ld   b,$03
1c0e: 3e 05        ld   a,$05
1c10: 11 00 d3     ld   de,$D300
1c13: 21 00 00     ld   hl,$0000
1c16: cd 36 0a     call $0A36
1c19: 3e 08        ld   a,$08
1c1b: 21 00 00     ld   hl,$0000
1c1e: cd 48 98     call $9848
1c21: 21 bc d4     ld   hl,$D4BC
1c24: 01 00 01     ld   bc,$0100
1c27: ed b0        ldir
1c29: 3e 08        ld   a,$08
1c2b: 21 00 00     ld   hl,$0000
1c2e: cd 59 98     call $9859
1c31: c9           ret
1c32: ed b0        ldir
1c34: 06 04        ld   b,$04
1c36: 3e 05        ld   a,$05
1c38: 21 00 00     ld   hl,$0000
1c3b: cd 22 0a     call $0A22
1c3e: 3a 9a 4f     ld   a,($4F9A)
1c41: fe 04        cp   $04
1c43: 38 04        jr   c,$1C49
1c45: af           xor  a
1c46: 32 9a 4f     ld   ($4F9A),a
1c49: cd 59 40     call $4059
1c4c: c9           ret
1c4d: 3a 65 f0     ld   a,($F065)
1c50: 47           ld   b,a
1c51: 0e 00        ld   c,$00
1c53: cd 9b f3     call $F39B
1c56: 21 00 bc     ld   hl,$BC00
1c59: 01 00 03     ld   bc,$0300
1c5c: cd a5 f3     call $F3A5
1c5f: c9           ret
1c60: 3a 65 f0     ld   a,($F065)
1c63: 4f           ld   c,a
1c64: 06 00        ld   b,$00
1c66: cd 9b f3     call $F39B
1c69: eb           ex   de,hl
1c6a: 11 00 bc     ld   de,$BC00
1c6d: 01 00 03     ld   bc,$0300
1c70: cd a5 f3     call $F3A5
1c73: c9           ret
1c74: 01 00 03     ld   bc,$0300
1c77: cd 9b f3     call $F39B
1c7a: 21 00 bc     ld   hl,$BC00
1c7d: 11 00 d5     ld   de,$D500
1c80: 01 00 03     ld   bc,$0300
1c83: cd a5 f3     call $F3A5
1c86: 3e ff        ld   a,$FF
1c88: 32 67 0a     ld   ($0A67),a
1c8b: c9           ret
1c8c: 3a 67 0a     ld   a,($0A67)
1c8f: b7           or   a
1c90: c8           ret  z
1c91: 01 03 00     ld   bc,$0003
1c94: cd 9b f3     call $F39B
1c97: 21 00 d5     ld   hl,$D500
1c9a: 11 00 bc     ld   de,$BC00
1c9d: 01 00 03     ld   bc,$0300
1ca0: cd a5 f3     call $F3A5
1ca3: c9           ret
1ca4: cd b0 05     call $05B0
1ca7: 7e           ld   a,(hl)
1ca8: c9           ret
1ca9: f5           push af
1caa: cd b0 05     call $05B0
1cad: f1           pop  af
1cae: 77           ld   (hl),a
1caf: c9           ret
1cb0: d5           push de
1cb1: 26 00        ld   h,$00
1cb3: 6a           ld   l,d
1cb4: 29           add  hl,hl
1cb5: 11 69 0a     ld   de,$0A69
1cb8: 19           add  hl,de
1cb9: 7e           ld   a,(hl)
1cba: 23           inc  hl
1cbb: 66           ld   h,(hl)
1cbc: 6f           ld   l,a
1cbd: d1           pop  de
1cbe: 16 00        ld   d,$00
1cc0: 19           add  hl,de
1cc1: c9           ret
1cc2: af           xor  a
1cc3: f5           push af
1cc4: 3a 3c 27     ld   a,($273C)
1cc7: b7           or   a
1cc8: 20 0d        jr   nz,$1CD7
1cca: f1           pop  af
1ccb: 06 03        ld   b,$03
1ccd: 21 00 bc     ld   hl,$BC00
1cd0: 11 11 00     ld   de,$0011
1cd3: cd fe 09     call $09FE
1cd6: c9           ret
1cd7: f1           pop  af
1cd8: b7           or   a
1cd9: 20 1c        jr   nz,$1CF7
1cdb: 3e 08        ld   a,$08
1cdd: 21 00 00     ld   hl,$0000
1ce0: cd 48 98     call $9848
1ce3: 24           inc  h
1ce4: 11 00 bc     ld   de,$BC00
1ce7: 01 00 01     ld   bc,$0100
1cea: ed b0        ldir
1cec: 06 01        ld   b,$01
1cee: 3e 09        ld   a,$09
1cf0: 21 00 00     ld   hl,$0000
1cf3: cd 22 0a     call $0A22
1cf6: c9           ret
1cf7: 3e 08        ld   a,$08
1cf9: 21 00 00     ld   hl,$0000
1cfc: cd 48 98     call $9848
1cff: 21 00 bc     ld   hl,$BC00
1d02: 11 00 df     ld   de,$DF00
1d05: 01 00 01     ld   bc,$0100
1d08: ed b0        ldir
1d0a: e5           push hl
1d0b: 21 00 00     ld   hl,$0000
1d0e: 3e 08        ld   a,$08
1d10: cd 59 98     call $9859
1d13: e1           pop  hl
1d14: 11 00 de     ld   de,$DE00
1d17: 01 00 02     ld   bc,$0200
1d1a: ed b0        ldir
1d1c: 21 00 00     ld   hl,$0000
1d1f: 3e 09        ld   a,$09
1d21: cd 59 98     call $9859
1d24: c9           ret
1d25: 3e 01        ld   a,$01
1d27: 18 9a        jr   $1CC3
1d29: 32 8d 19     ld   ($198D),a
1d2c: c9           ret
1d2d: 32 31 06     ld   ($0631),a
1d30: c9           ret
1d31: 00           nop
1d32: fe 03        cp   $03
1d34: d0           ret  nc
1d35: 32 34 27     ld   ($2734),a
1d38: 87           add  a,a
1d39: 87           add  a,a
1d3a: 21 55 0a     ld   hl,$0A55
1d3d: 5f           ld   e,a
1d3e: 16 00        ld   d,$00
1d40: 19           add  hl,de
1d41: 5e           ld   e,(hl)
1d42: 23           inc  hl
1d43: 56           ld   d,(hl)
1d44: 23           inc  hl
1d45: ed 53 51 0a  ld   ($0A51),de
1d49: 5e           ld   e,(hl)
1d4a: 23           inc  hl
1d4b: 56           ld   d,(hl)
1d4c: ed 53 53 0a  ld   ($0A53),de
1d50: af           xor  a
1d51: c9           ret
1d52: 2a 51 0a     ld   hl,($0A51)
1d55: 22 61 0a     ld   ($0A61),hl
1d58: 2a 53 0a     ld   hl,($0A53)
1d5b: 22 63 0a     ld   ($0A63),hl
1d5e: 2a 34 27     ld   hl,($2734)
1d61: 22 65 0a     ld   ($0A65),hl
1d64: c9           ret
1d65: 2a 61 0a     ld   hl,($0A61)
1d68: 7c           ld   a,h
1d69: fe ff        cp   $FF
1d6b: c8           ret  z
1d6c: 22 51 0a     ld   ($0A51),hl
1d6f: 2a 63 0a     ld   hl,($0A63)
1d72: 22 53 0a     ld   ($0A53),hl
1d75: 2a 65 0a     ld   hl,($0A65)
1d78: 22 34 27     ld   ($2734),hl
1d7b: c9           ret
1d7c: 3a 65 f0     ld   a,($F065)
1d7f: 47           ld   b,a
1d80: 0e 00        ld   c,$00
1d82: cd 9b f3     call $F39B
1d85: 2a 51 0a     ld   hl,($0A51)
1d88: 01 00 04     ld   bc,$0400
1d8b: cd a5 f3     call $F3A5
1d8e: c9           ret
1d8f: 3a 65 f0     ld   a,($F065)
1d92: 4f           ld   c,a
1d93: 06 00        ld   b,$00
1d95: cd 9b f3     call $F39B
1d98: eb           ex   de,hl
1d99: ed 5b 51 0a  ld   de,($0A51)
1d9d: 01 00 04     ld   bc,$0400
1da0: cd a5 f3     call $F3A5
1da3: c9           ret
1da4: 01 00 03     ld   bc,$0300
1da7: cd 9b f3     call $F39B
1daa: 2a 51 0a     ld   hl,($0A51)
1dad: 11 00 d1     ld   de,$D100
1db0: 01 00 04     ld   bc,$0400
1db3: cd a5 f3     call $F3A5
1db6: 3e ff        ld   a,$FF
1db8: 32 68 0a     ld   ($0A68),a
1dbb: c9           ret
1dbc: 3a 68 0a     ld   a,($0A68)
1dbf: b7           or   a
1dc0: c8           ret  z
1dc1: 01 03 00     ld   bc,$0003
1dc4: cd 9b f3     call $F39B
1dc7: 21 00 d1     ld   hl,$D100
1dca: ed 5b 51 0a  ld   de,($0A51)
1dce: 01 00 04     ld   bc,$0400
1dd1: cd a5 f3     call $F3A5
1dd4: c9           ret
1dd5: cd fc 06     call $06FC
1dd8: 3a 65 f0     ld   a,($F065)
1ddb: 47           ld   b,a
1ddc: 0e 00        ld   c,$00
1dde: cd 9b f3     call $F39B
1de1: 01 19 00     ld   bc,$0019
1de4: cd a5 f3     call $F3A5
1de7: c9           ret
1de8: cd fc 06     call $06FC
1deb: eb           ex   de,hl
1dec: 3a 65 f0     ld   a,($F065)
1def: 4f           ld   c,a
1df0: 06 00        ld   b,$00
1df2: cd 9b f3     call $F39B
1df5: 01 19 00     ld   bc,$0019
1df8: cd a5 f3     call $F3A5
1dfb: c9           ret
1dfc: d5           push de
1dfd: 87           add  a,a
1dfe: 87           add  a,a
1dff: 5f           ld   e,a
1e00: 16 00        ld   d,$00
1e02: 21 51 0a     ld   hl,$0A51
1e05: 7e           ld   a,(hl)
1e06: 23           inc  hl
1e07: 66           ld   h,(hl)
1e08: 6f           ld   l,a
1e09: 19           add  hl,de
1e0a: 23           inc  hl
1e0b: 23           inc  hl
1e0c: 5e           ld   e,(hl)
1e0d: 23           inc  hl
1e0e: 56           ld   d,(hl)
1e0f: 21 53 0a     ld   hl,$0A53
1e12: 7e           ld   a,(hl)
1e13: 23           inc  hl
1e14: 66           ld   h,(hl)
1e15: 6f           ld   l,a
1e16: 19           add  hl,de
1e17: d1           pop  de
1e18: c9           ret
1e19: cd 25 07     call $0725
1e1c: cb fe        set  7,(hl)
1e1e: c9           ret
1e1f: cd 25 07     call $0725
1e22: cb be        res  7,(hl)
1e24: c9           ret
1e25: 87           add  a,a
1e26: 87           add  a,a
1e27: 5f           ld   e,a
1e28: 16 00        ld   d,$00
1e2a: 21 f5 18     ld   hl,$18F5
1e2d: 19           add  hl,de
1e2e: 23           inc  hl
1e2f: c9           ret
1e30: af           xor  a
1e31: f5           push af
1e32: 3a 3c 27     ld   a,($273C)
1e35: b7           or   a
1e36: 20 0d        jr   nz,$1E45
1e38: f1           pop  af
1e39: 06 04        ld   b,$04
1e3b: 21 93 21     ld   hl,$2193
1e3e: 11 1c 00     ld   de,$001C
1e41: cd fe 09     call $09FE
1e44: c9           ret
1e45: f1           pop  af
1e46: 06 02        ld   b,$02
1e48: 11 93 21     ld   de,$2193
1e4b: 21 00 00     ld   hl,$0000
1e4e: b7           or   a
1e4f: 3e 0e        ld   a,$0E
1e51: c2 36 0a     jp   nz,$0A36
1e54: c3 22 0a     jp   $0A22
1e57: 3e 01        ld   a,$01
1e59: 18 d6        jr   $1E31
1e5b: 3e ff        ld   a,$FF
1e5d: 32 61 07     ld   ($0761),a
1e60: c9           ret
1e61: 00           nop
1e62: 3a 61 07     ld   a,($0761)
1e65: b7           or   a
1e66: 28 09        jr   z,$1E71
1e68: cd 8c 05     call $058C
1e6b: cd bc 06     call $06BC
1e6e: cd 65 06     call $0665
1e71: af           xor  a
1e72: 32 61 07     ld   ($0761),a
1e75: 32 67 0a     ld   ($0A67),a
1e78: 32 68 0a     ld   ($0A68),a
1e7b: 32 31 06     ld   ($0631),a
1e7e: 32 8d 19     ld   ($198D),a
1e81: 21 ff ff     ld   hl,$FFFF
1e84: 22 61 0a     ld   ($0A61),hl
1e87: c9           ret
1e88: af           xor  a
1e89: 32 61 07     ld   ($0761),a
1e8c: c9           ret
1e8d: 32 c9 07     ld   ($07C9),a
1e90: fe 01        cp   $01
1e92: c8           ret  z
1e93: fe 02        cp   $02
1e95: 38 2f        jr   c,$1EC6
1e97: fe 04        cp   $04
1e99: 30 2b        jr   nc,$1EC6
1e9b: 3a 35 27     ld   a,($2735)
1e9e: b7           or   a
1e9f: ca b4 07     jp   z,$07B4
1ea2: 3a 65 9b     ld   a,($9B65)
1ea5: b7           or   a
1ea6: 28 03        jr   z,$1EAB
1ea8: 3e 02        ld   a,$02
1eaa: c9           ret
1eab: af           xor  a
1eac: 32 35 27     ld   ($2735),a
1eaf: 3e ff        ld   a,$FF
1eb1: 32 1e 0b     ld   ($0B1E),a
1eb4: 3a c9 07     ld   a,($07C9)
1eb7: fe 02        cp   $02
1eb9: ca c1 07     jp   z,$07C1
1ebc: 32 b7 f4     ld   ($F4B7),a
1ebf: af           xor  a
1ec0: c9           ret
1ec1: 32 b6 f4     ld   ($F4B6),a
1ec4: af           xor  a
1ec5: c9           ret
1ec6: 3e 01        ld   a,$01
1ec8: c9           ret
1ec9: 00           nop
1eca: fe 02        cp   $02
1ecc: ca d8 07     jp   z,$07D8
1ecf: fe 03        cp   $03
1ed1: c0           ret  nz
1ed2: 3e ff        ld   a,$FF
1ed4: 32 b7 f4     ld   ($F4B7),a
1ed7: c9           ret
1ed8: 3e ff        ld   a,$FF
1eda: 32 b6 f4     ld   ($F4B6),a
1edd: c9           ret
1ede: 20 52        jr   nz,$1F32
1ee0: 41           ld   b,c
1ee1: 4d           ld   c,l
1ee2: 20 44        jr   nz,$1F28
1ee4: 49           ld   c,c
1ee5: 53           ld   d,e
1ee6: 4b           ld   c,e
1ee7: 20 44        jr   nz,$1F2D
1ee9: 41           ld   b,c
1eea: 54           ld   d,h
1eeb: 41           ld   b,c
1eec: 20 57        jr   nz,$1F45
1eee: 49           ld   c,c
1eef: 4c           ld   c,h
1ef0: 4c           ld   c,h
1ef1: 20 42        jr   nz,$1F35
1ef3: 45           ld   b,l
1ef4: 20 4c        jr   nz,$1F42
1ef6: 4f           ld   c,a
1ef7: 53           ld   d,e
1ef8: 54           ld   d,h
1ef9: 21 20 28     ld   hl,$2820
1efc: 41           ld   b,c
1efd: 29           add  hl,hl
1efe: 62           ld   h,d
1eff: 6f           ld   l,a
1f00: 72           ld   (hl),d
1f01: 74           ld   (hl),h
1f02: 2f           cpl
1f03: 28 43        jr   z,$1F48
1f05: 29           add  hl,hl
1f06: 6f           ld   l,a
1f07: 6e           ld   l,(hl)
1f08: 74           ld   (hl),h
1f09: 69           ld   l,c
1f0a: 6e           ld   l,(hl)
1f0b: 75           ld   (hl),l
1f0c: 65           ld   h,l
1f0d: 3a 00 01     ld   a,($0100)
1f10: 08           ex   af,af'
1f11: 00           nop
1f12: cd a7 02     call $02A7
1f15: 2a 84 0a     ld   hl,($0A84)
1f18: ed 5b 86 0a  ld   de,($0A86)
1f1c: 19           add  hl,de
1f1d: 11 00 f0     ld   de,$F000
1f20: b7           or   a
1f21: ed 52        sbc  hl,de
1f23: 30 27        jr   nc,$1F4C
1f25: 3a 80 0a     ld   a,($0A80)
1f28: b7           or   a
1f29: fa 4c 08     jp   m,$084C
1f2c: fe 04        cp   $04
1f2e: d2 4c 08     jp   nc,$084C
1f31: 3a 81 0a     ld   a,($0A81)
1f34: a7           and  a
1f35: ca 4f 08     jp   z,$084F
1f38: fe 01        cp   $01
1f3a: ca 4f 08     jp   z,$084F
1f3d: 47           ld   b,a
1f3e: 3a b6 f4     ld   a,($F4B6)
1f41: b8           cp   b
1f42: ca 4f 08     jp   z,$084F
1f45: 3a b7 f4     ld   a,($F4B7)
1f48: b8           cp   b
1f49: ca 4f 08     jp   z,$084F
1f4c: 3e 01        ld   a,$01
1f4e: c9           ret
1f4f: ed 4b 80 0a  ld   bc,($0A80)
1f53: cd 9b f3     call $F39B
1f56: 2a 82 0a     ld   hl,($0A82)
1f59: ed 5b 84 0a  ld   de,($0A84)
1f5d: ed 4b 86 0a  ld   bc,($0A86)
1f61: cd a5 f3     call $F3A5
1f64: af           xor  a
1f65: c9           ret
1f66: 21 de 07     ld   hl,$07DE
1f69: 3e 0b        ld   a,$0B
1f6b: 0e 00        ld   c,$00
1f6d: cd ec 12     call $12EC
1f70: cd 6a 16     call $166A
1f73: cd 69 12     call $1269
1f76: e6 df        and  $DF
1f78: fe 41        cp   $41
1f7a: ca 8a 08     jp   z,$088A
1f7d: fe 43        cp   $43
1f7f: c2 70 08     jp   nz,$0870
1f82: 3e 01        ld   a,$01
1f84: cd ef 12     call $12EF
1f87: c3 ab 07     jp   $07AB
1f8a: 3e 01        ld   a,$01
1f8c: cd ef 12     call $12EF
1f8f: c3 62 00     jp   $0062
1f92: b7           or   a
1f93: ca ab 07     jp   z,$07AB
1f96: c3 b4 07     jp   $07B4
1f99: fe 12        cp   $12
1f9b: d0           ret  nc
1f9c: fe 04        cp   $04
1f9e: 28 3d        jr   z,$1FDD
1fa0: fe 07        cp   $07
1fa2: 28 39        jr   z,$1FDD
1fa4: fe 0a        cp   $0A
1fa6: 28 35        jr   z,$1FDD
1fa8: fe 0d        cp   $0D
1faa: 20 09        jr   nz,$1FB5
1fac: 4f           ld   c,a
1fad: 3a f6 54     ld   a,($54F6)
1fb0: fe 01        cp   $01
1fb2: 79           ld   a,c
1fb3: 28 28        jr   z,$1FDD
1fb5: f3           di
1fb6: 68           ld   l,b
1fb7: 4f           ld   c,a
1fb8: 81           add  a,c
1fb9: 81           add  a,c
1fba: 4f           ld   c,a
1fbb: 06 00        ld   b,$00
1fbd: 3a e9 08     ld   a,($08E9)
1fc0: b7           or   a
1fc1: 7d           ld   a,l
1fc2: 28 0d        jr   z,$1FD1
1fc4: af           xor  a
1fc5: 32 e9 08     ld   ($08E9),a
1fc8: 21 93 25     ld   hl,$2593
1fcb: 09           add  hl,bc
1fcc: 5e           ld   e,(hl)
1fcd: 23           inc  hl
1fce: 56           ld   d,(hl)
1fcf: 23           inc  hl
1fd0: 7e           ld   a,(hl)
1fd1: 21 7c f5     ld   hl,$F57C
1fd4: 09           add  hl,bc
1fd5: 73           ld   (hl),e
1fd6: 23           inc  hl
1fd7: 72           ld   (hl),d
1fd8: 23           inc  hl
1fd9: 77           ld   (hl),a
1fda: af           xor  a
1fdb: fb           ei
1fdc: c9           ret
1fdd: 3e ff        ld   a,$FF
1fdf: c9           ret
1fe0: f5           push af
1fe1: 3e 01        ld   a,$01
1fe3: 32 e9 08     ld   ($08E9),a
1fe6: f1           pop  af
1fe7: 18 b0        jr   $1F99
1fe9: 00           nop
1fea: 3a e1 26     ld   a,($26E1)
1fed: 2f           cpl
1fee: 5f           ld   e,a
1fef: 3a e2 26     ld   a,($26E2)
1ff2: 2f           cpl
1ff3: 57           ld   d,a
1ff4: c9           ret
1ff5: 7b           ld   a,e
1ff6: e6 6f        and  $6F
1ff8: 47           ld   b,a
1ff9: 3a e1 26     ld   a,($26E1)
1ffc: 2f           cpl
1ffd: b0           or   b
1ffe: 2f           cpl
1fff: 32 e1 26     ld   ($26E1),a
2002: cd aa 26     call $26AA
2005: 7a           ld   a,d
2006: e6 fb        and  $FB
2008: 47           ld   b,a
2009: 3a e2 26     ld   a,($26E2)
200c: 2f           cpl
200d: b0           or   b
200e: 2f           cpl
200f: 32 e2 26     ld   ($26E2),a
2012: cd b0 26     call $26B0
2015: c9           ret
2016: 7b           ld   a,e
2017: e6 6f        and  $6F
2019: 47           ld   b,a
201a: 3a e1 26     ld   a,($26E1)
201d: b0           or   b
201e: 32 e1 26     ld   ($26E1),a
2021: cd aa 26     call $26AA
2024: 3a f6 54     ld   a,($54F6)
2027: fe 01        cp   $01
2029: 7a           ld   a,d
202a: 28 04        jr   z,$2030
202c: e6 fb        and  $FB
202e: 18 02        jr   $2032
2030: e6 db        and  $DB
2032: 47           ld   b,a
2033: 3a e2 26     ld   a,($26E2)
2036: b0           or   b
2037: 32 e2 26     ld   ($26E2),a
203a: cd b0 26     call $26B0
203d: c9           ret
203e: af           xor  a
203f: cd 27 f3     call $F327
2042: 21 59 09     ld   hl,$0959
2045: 3e 0a        ld   a,$0A
2047: 0e 00        ld   c,$00
2049: cd ec 12     call $12EC
204c: cd 6a 16     call $166A
204f: cd 69 12     call $1269
2052: af           xor  a
2053: cd ef 12     call $12EF
2056: c3 62 00     jp   $0062
2059: 20 50        jr   nz,$20AB
205b: 52           ld   d,d
205c: 4f           ld   c,a
205d: 47           ld   b,a
205e: 52           ld   d,d
205f: 41           ld   b,c
2060: 4d           ld   c,l
2061: 20 56        jr   nz,$20B9
2063: 45           ld   b,l
2064: 52           ld   d,d
2065: 53           ld   d,e
2066: 49           ld   c,c
2067: 4f           ld   c,a
2068: 4e           ld   c,(hl)
2069: 20 4e        jr   nz,$20B9
206b: 4f           ld   c,a
206c: 54           ld   d,h
206d: 20 53        jr   nz,$20C2
206f: 55           ld   d,l
2070: 50           ld   d,b
2071: 50           ld   d,b
2072: 4f           ld   c,a
2073: 52           ld   d,d
2074: 54           ld   d,h
2075: 45           ld   b,l
2076: 44           ld   b,h
2077: 20 42        jr   nz,$20BB
2079: 59           ld   e,c
207a: 20 54        jr   nz,$20D0
207c: 48           ld   c,b
207d: 49           ld   c,c
207e: 53           ld   d,e
207f: 20 42        jr   nz,$20C3
2081: 49           ld   c,c
2082: 4f           ld   c,a
2083: 53           ld   d,e
2084: 20 52        jr   nz,$20D8
2086: 45           ld   b,l
2087: 4c           ld   c,h
2088: 45           ld   b,l
2089: 41           ld   b,c
208a: 53           ld   d,e
208b: 45           ld   b,l
208c: 2e 20        ld   l,$20
208e: 20 50        jr   nz,$20E0
2090: 52           ld   d,d
2091: 45           ld   b,l
2092: 53           ld   d,e
2093: 53           ld   d,e
2094: 20 41        jr   nz,$20D7
2096: 4e           ld   c,(hl)
2097: 59           ld   e,c
2098: 20 4b        jr   nz,$20E5
209a: 45           ld   b,l
209b: 59           ld   e,c
209c: 20 54        jr   nz,$20F2
209e: 4f           ld   c,a
209f: 20 41        jr   nz,$20E2
20a1: 42           ld   b,d
20a2: 4f           ld   c,a
20a3: 52           ld   d,d
20a4: 54           ld   d,h
20a5: 2e 00        ld   l,$00
20a7: 21 6b 4f     ld   hl,$4F6B
20aa: c9           ret
20ab: cd d6 00     call $00D6
20ae: c9           ret
20af: c5           push bc
20b0: 3a 65 f0     ld   a,($F065)
20b3: 4f           ld   c,a
20b4: 06 03        ld   b,$03
20b6: cd 9b f3     call $F39B
20b9: 11 07 d8     ld   de,$D807
20bc: c1           pop  bc
20bd: 48           ld   c,b
20be: 06 00        ld   b,$00
20c0: cd a5 f3     call $F3A5
20c3: c9           ret
20c4: f3           di
20c5: 3a e4 09     ld   a,($09E4)
20c8: b7           or   a
20c9: 20 14        jr   nz,$20DF
20cb: 21 d6 28     ld   hl,$28D6
20ce: 22 4f 26     ld   ($264F),hl
20d1: 2a 07 e2     ld   hl,($E207)
20d4: 22 e5 09     ld   ($09E5),hl
20d7: cd b4 f5     call $F5B4
20da: 3e ff        ld   a,$FF
20dc: 32 e4 09     ld   ($09E4),a
20df: 21 18 f6     ld   hl,$F618
20e2: fb           ei
20e3: c9           ret
20e4: 00           nop
20e5: 00           nop
20e6: 00           nop
20e7: f3           di
20e8: 21 69 26     ld   hl,$2669
20eb: 22 4f 26     ld   ($264F),hl
20ee: 2a e5 09     ld   hl,($09E5)
20f1: 22 07 e2     ld   ($E207),hl
20f4: af           xor  a
20f5: 32 e4 09     ld   ($09E4),a
20f8: 32 14 2b     ld   ($2B14),a
20fb: fb           ei
20fc: c9           ret
20fd: c9           ret
20fe: c5           push bc
20ff: b7           or   a
2100: 28 05        jr   z,$2107
2102: 01 00 04     ld   bc,$0400
2105: 18 03        jr   $210A
2107: 01 00 03     ld   bc,$0300
210a: af           xor  a
210b: cd f9 94     call $94F9
210e: b7           or   a
210f: c0           ret  nz
2110: 24           inc  h
2111: 1c           inc  e
2112: ed 43 7b 0a  ld   ($0A7B),bc
2116: c1           pop  bc
2117: 78           ld   a,b
2118: 3d           dec  a
2119: f5           push af
211a: ed 4b 7b 0a  ld   bc,($0A7B)
211e: 20 ea        jr   nz,$210A
2120: c1           pop  bc
2121: c9           ret
2122: f5           push af
2123: c5           push bc
2124: e5           push hl
2125: d5           push de
2126: cd 48 98     call $9848
2129: d1           pop  de
212a: 01 00 02     ld   bc,$0200
212d: ed b0        ldir
212f: e1           pop  hl
2130: c1           pop  bc
2131: f1           pop  af
2132: 3c           inc  a
2133: 10 ed        djnz $2122
2135: c9           ret
2136: f5           push af
2137: c5           push bc
2138: e5           push hl
2139: eb           ex   de,hl
213a: 11 00 de     ld   de,$DE00
213d: 01 00 02     ld   bc,$0200
2140: ed b0        ldir
2142: d1           pop  de
2143: e5           push hl
2144: eb           ex   de,hl
2145: e5           push hl
2146: cd 59 98     call $9859
2149: e1           pop  hl
214a: d1           pop  de
214b: c1           pop  bc
214c: f1           pop  af
214d: 3c           inc  a
214e: 10 e6        djnz $2136
2150: c9           ret
2151: 93           sub  e
2152: 19           add  hl,de
2153: 1f           rra
2154: 1a           ld   a,(de)
2155: 93           sub  e
2156: 19           add  hl,de
2157: 1f           rra
2158: 1a           ld   a,(de)
2159: 93           sub  e
215a: 1d           dec  e
215b: 1f           rra
215c: 1e 93        ld   e,$93
215e: 21 1f 22     ld   hl,$221F
2161: ff           rst  $38
2162: ff           rst  $38
2163: ff           rst  $38
2164: ff           rst  $38
2165: ff           rst  $38
2166: ff           rst  $38
2167: 00           nop
2168: 00           nop
2169: 00           nop
216a: bc           cp   h
216b: 80           add  a,b
216c: bc           cp   h
216d: 00           nop
216e: bd           cp   l
216f: 80           add  a,b
2170: bd           cp   l
2171: 00           nop
2172: be           cp   (hl)
2173: 80           add  a,b
2174: be           cp   (hl)
2175: 00           nop
2176: be           cp   (hl)
2177: 80           add  a,b
2178: be           cp   (hl)
2179: 00           nop
217a: 0c           inc  c
217b: 00           nop
217c: 00           nop
217d: 00           nop
217e: 00           nop
217f: 00           nop
2180: 00           nop
2181: 00           nop
2182: 00           nop
2183: 00           nop
2184: 00           nop
2185: 00           nop
2186: 00           nop
2187: 00           nop
2188: 00           nop
2189: 00           nop
218a: 00           nop
218b: 00           nop
218c: 00           nop
218d: 00           nop
218e: 00           nop
218f: 00           nop
2190: 00           nop
2191: 00           nop
2192: 00           nop
2193: 00           nop
2194: 20 20        jr   nz,$21B6
2196: 20 20        jr   nz,$21B8
2198: 20 20        jr   nz,$21BA
219a: 20 20        jr   nz,$21BC
219c: 20 20        jr   nz,$21BE
219e: 20 20        jr   nz,$21C0
21a0: 20 20        jr   nz,$21C2
21a2: 00           nop
21a3: 20 52        jr   nz,$21F7
21a5: 41           ld   b,c
21a6: 4d           ld   c,l
21a7: 20 44        jr   nz,$21ED
21a9: 49           ld   c,c
21aa: 53           ld   d,e
21ab: 4b           ld   c,e
21ac: 20 44        jr   nz,$21F2
21ae: 41           ld   b,c
21af: 54           ld   d,h
21b0: 41           ld   b,c
21b1: 20 57        jr   nz,$220A
21b3: 49           ld   c,c
21b4: 4c           ld   c,h
21b5: 4c           ld   c,h
21b6: 20 42        jr   nz,$21FA
21b8: 45           ld   b,l
21b9: 20 4c        jr   nz,$2207
21bb: 4f           ld   c,a
21bc: 53           ld   d,e
21bd: 54           ld   d,h
21be: 20 49        jr   nz,$2209
21c0: 46           ld   b,(hl)
21c1: 20 44        jr   nz,$2207
21c3: 49           ld   c,c
21c4: 53           ld   d,e
21c5: 41           ld   b,c
21c6: 42           ld   b,d
21c7: 4c           ld   c,h
21c8: 45           ld   b,l
21c9: 44           ld   b,h
21ca: 21 20 28     ld   hl,$2820
21cd: 41           ld   b,c
21ce: 29           add  hl,hl
21cf: 62           ld   h,d
21d0: 6f           ld   l,a
21d1: 72           ld   (hl),d
21d2: 74           ld   (hl),h
21d3: 2c           inc  l
21d4: 20 28        jr   nz,$21FE
21d6: 43           ld   b,e
21d7: 29           add  hl,hl
21d8: 6f           ld   l,a
21d9: 6e           ld   l,(hl)
21da: 74           ld   (hl),h
21db: 69           ld   l,c
21dc: 6e           ld   l,(hl)
21dd: 75           ld   (hl),l
21de: 65           ld   h,l
21df: 3a 00 20     ld   a,($2000)
21e2: 49           ld   c,c
21e3: 4c           ld   c,h
21e4: 4c           ld   c,h
21e5: 45           ld   b,l
21e6: 47           ld   b,a
21e7: 41           ld   b,c
21e8: 4c           ld   c,h
21e9: 20 43        jr   nz,$222E
21eb: 41           ld   b,c
21ec: 4c           ld   c,h
21ed: 4c           ld   c,h
21ee: 58           ld   e,b
21ef: 20 4f        jr   nz,$2240
21f1: 52           ld   d,d
21f2: 20 4a        jr   nz,$223E
21f4: 55           ld   d,l
21f5: 4d           ld   c,l
21f6: 50           ld   d,b
21f7: 58           ld   e,b
21f8: 20 4f        jr   nz,$2249
21fa: 50           ld   d,b
21fb: 45           ld   b,l
21fc: 52           ld   d,d
21fd: 41           ld   b,c
21fe: 54           ld   d,h
21ff: 49           ld   c,c
2200: 4f           ld   c,a
2201: 4e           ld   c,(hl)
2202: 21 20 50     ld   hl,$5020
2205: 52           ld   d,d
2206: 45           ld   b,l
2207: 53           ld   d,e
2208: 53           ld   d,e
2209: 20 41        jr   nz,$224C
220b: 4e           ld   c,(hl)
220c: 59           ld   e,c
220d: 20 4b        jr   nz,$225A
220f: 45           ld   b,l
2210: 59           ld   e,c
2211: 20 54        jr   nz,$2267
2213: 4f           ld   c,a
2214: 20 41        jr   nz,$2257
2216: 42           ld   b,d
2217: 4f           ld   c,a
2218: 52           ld   d,d
2219: 54           ld   d,h
221a: 2e 00        ld   l,$00
221c: 00           nop
221d: 00           nop
221e: 00           nop
221f: eb           ex   de,hl
2220: c3 e6 12     jp   $12E6
2223: 78           ld   a,b
2224: 42           ld   b,d
2225: 4b           ld   c,e
2226: 3d           dec  a
2227: 28 1d        jr   z,$2246
2229: 3d           dec  a
222a: c0           ret  nz
222b: c5           push bc
222c: cd e3 12     call $12E3
222f: c1           pop  bc
2230: e5           push hl
2231: c5           push bc
2232: cd 77 12     call $1277
2235: c1           pop  bc
2236: e1           pop  hl
2237: 24           inc  h
2238: 7c           ld   a,h
2239: fe 19        cp   $19
223b: d0           ret  nc
223c: e5           push hl
223d: c5           push bc
223e: cd e6 12     call $12E6
2241: c1           pop  bc
2242: e1           pop  hl
2243: 10 eb        djnz $2230
2245: c9           ret
2246: c5           push bc
2247: cd 77 12     call $1277
224a: c1           pop  bc
224b: 10 f9        djnz $2246
224d: c9           ret
224e: f5           push af
224f: c5           push bc
2250: d5           push de
2251: e5           push hl
2252: dd e5        push ix
2254: fd e5        push iy
2256: 21 66 f0     ld   hl,$F066
2259: cb 8e        res  1,(hl)
225b: cb 56        bit  2,(hl)
225d: 20 35        jr   nz,$2294
225f: cb d6        set  2,(hl)
2261: cd a2 0b     call $0BA2
2264: 0e 1a        ld   c,$1A
2266: cd d7 12     call $12D7
2269: 21 00 00     ld   hl,$0000
226c: dd 21 cd 10  ld   ix,$10CD
2270: cd 61 0d     call $0D61
2273: e5           push hl
2274: dd e5        push ix
2276: cd 1d 0d     call $0D1D
2279: dd e1        pop  ix
227b: e1           pop  hl
227c: cd 61 0d     call $0D61
227f: cd c6 0b     call $0BC6
2282: dd 21 d1 10  ld   ix,$10D1
2286: 21 16 00     ld   hl,$0016
2289: cd 61 0d     call $0D61
228c: 21 1a 02     ld   hl,$021A
228f: cd 61 0d     call $0D61
2292: 18 05        jr   $2299
2294: cb 96        res  2,(hl)
2296: cd b9 0b     call $0BB9
2299: fd e1        pop  iy
229b: dd e1        pop  ix
229d: e1           pop  hl
229e: d1           pop  de
229f: c1           pop  bc
22a0: f1           pop  af
22a1: c9           ret
22a2: 3a f7 54     ld   a,($54F7)
22a5: 32 b7 0b     ld   ($0BB7),a
22a8: 3a f6 54     ld   a,($54F6)
22ab: 32 b8 0b     ld   ($0BB8),a
22ae: 97           sub  a
22af: 06 ff        ld   b,$FF
22b1: 21 01 00     ld   hl,$0001
22b4: c3 00 52     jp   $5200
22b7: 00           nop
22b8: 00           nop
22b9: 3a b8 0b     ld   a,($0BB8)
22bc: 67           ld   h,a
22bd: 3a b7 0b     ld   a,($0BB7)
22c0: 47           ld   b,a
22c1: 97           sub  a
22c2: 6f           ld   l,a
22c3: c3 00 52     jp   $5200
22c6: dd 21 91 0f  ld   ix,$0F91
22ca: dd 46 00     ld   b,(ix+$00)
22cd: dd 23        inc  ix
22cf: dd 5e 00     ld   e,(ix+$00)
22d2: dd 23        inc  ix
22d4: 04           inc  b
22d5: c8           ret  z
22d6: 05           dec  b
22d7: 16 00        ld   d,$00
22d9: 21 0a 27     ld   hl,$270A
22dc: 19           add  hl,de
22dd: 7e           ld   a,(hl)
22de: eb           ex   de,hl
22df: dd 66 00     ld   h,(ix+$00)
22e2: dd 23        inc  ix
22e4: dd 6e 00     ld   l,(ix+$00)
22e7: dd 23        inc  ix
22e9: 05           dec  b
22ea: 28 05        jr   z,$22F1
22ec: 05           dec  b
22ed: 28 07        jr   z,$22F6
22ef: 18 0a        jr   $22FB
22f1: cd 4b 0c     call $0C4B
22f4: 18 d4        jr   $22CA
22f6: cd 11 0c     call $0C11
22f9: 18 cf        jr   $22CA
22fb: cd 00 0c     call $0C00
22fe: 18 ca        jr   $22CA
2300: 05           dec  b
2301: ca 9c 0c     jp   z,$0C9C
2304: 05           dec  b
2305: ca c5 0c     jp   z,$0CC5
2308: 05           dec  b
2309: ca 35 0c     jp   z,$0C35
230c: 05           dec  b
230d: ca 5e 0c     jp   z,$0C5E
2310: c9           ret
2311: 4f           ld   c,a
2312: 0c           inc  c
2313: 0d           dec  c
2314: 28 0a        jr   z,$2320
2316: dd cb 00 7e  bit  7,(ix+$00)
231a: dd 23        inc  ix
231c: 28 f8        jr   z,$2316
231e: 18 f3        jr   $2313
2320: cd 61 0d     call $0D61
2323: dd 7e 00     ld   a,(ix+$00)
2326: 3c           inc  a
2327: c8           ret  z
2328: fe 20        cp   $20
232a: d8           ret  c
232b: dd cb 00 7e  bit  7,(ix+$00)
232f: dd 23        inc  ix
2331: 28 f8        jr   z,$232B
2333: 18 ee        jr   $2323
2335: 3a 64 f0     ld   a,($F064)
2338: e6 c0        and  $C0
233a: 4f           ld   c,a
233b: fe 80        cp   $80
233d: 3e 00        ld   a,$00
233f: 28 d0        jr   z,$2311
2341: 79           ld   a,c
2342: fe c0        cp   $C0
2344: 3e 01        ld   a,$01
2346: 28 c9        jr   z,$2311
2348: 3c           inc  a
2349: 18 c6        jr   $2311
234b: dd e5        push ix
234d: dd 21 18 0d  ld   ix,$0D18
2351: a7           and  a
2352: 20 04        jr   nz,$2358
2354: dd 21 1a 0d  ld   ix,$0D1A
2358: cd 61 0d     call $0D61
235b: dd e1        pop  ix
235d: c9           ret
235e: dd e5        push ix
2360: fd e5        push iy
2362: e5           push hl
2363: d5           push de
2364: cd e6 12     call $12E6
2367: cd 75 f3     call $F375
236a: f5           push af
236b: e6 0f        and  $0F
236d: c6 41        add  a,$41
236f: 4f           ld   c,a
2370: cd d7 12     call $12D7
2373: 0e 3a        ld   c,$3A
2375: cd d7 12     call $12D7
2378: f1           pop  af
2379: cb 3f        srl  a
237b: cb 3f        srl  a
237d: cb 3f        srl  a
237f: cb 3f        srl  a
2381: fe 0a        cp   $0A
2383: 0e 30        ld   c,$30
2385: 38 03        jr   c,$238A
2387: 0c           inc  c
2388: d6 0a        sub  $0A
238a: f5           push af
238b: cd d7 12     call $12D7
238e: f1           pop  af
238f: c6 30        add  a,$30
2391: 4f           ld   c,a
2392: cd d7 12     call $12D7
2395: d1           pop  de
2396: e1           pop  hl
2397: fd e1        pop  iy
2399: dd e1        pop  ix
239b: c9           ret
239c: 47           ld   b,a
239d: dd e5        push ix
239f: d5           push de
23a0: c5           push bc
23a1: 7d           ld   a,l
23a2: c6 04        add  a,$04
23a4: 6f           ld   l,a
23a5: cd e6 12     call $12E6
23a8: 0e 3e        ld   c,$3E
23aa: cd d7 12     call $12D7
23ad: c1           pop  bc
23ae: d1           pop  de
23af: dd e1        pop  ix
23b1: 13           inc  de
23b2: eb           ex   de,hl
23b3: 04           inc  b
23b4: 05           dec  b
23b5: c8           ret  z
23b6: 4e           ld   c,(hl)
23b7: 23           inc  hl
23b8: e5           push hl
23b9: c5           push bc
23ba: dd e5        push ix
23bc: cd d7 12     call $12D7
23bf: dd e1        pop  ix
23c1: c1           pop  bc
23c2: e1           pop  hl
23c3: 18 ef        jr   $23B4
23c5: e5           push hl
23c6: 21 13 0d     ld   hl,$0D13
23c9: 06 05        ld   b,$05
23cb: 36 ff        ld   (hl),$FF
23cd: 23           inc  hl
23ce: 10 fb        djnz $23CB
23d0: 11 13 0d     ld   de,$0D13
23d3: 0e 05        ld   c,$05
23d5: 21 69 27     ld   hl,$2769
23d8: 06 10        ld   b,$10
23da: 79           ld   a,c
23db: be           cp   (hl)
23dc: 2b           dec  hl
23dd: 28 04        jr   z,$23E3
23df: 10 fa        djnz $23DB
23e1: 18 03        jr   $23E6
23e3: 78           ld   a,b
23e4: 3d           dec  a
23e5: 12           ld   (de),a
23e6: 13           inc  de
23e7: 0d           dec  c
23e8: 20 eb        jr   nz,$23D5
23ea: e1           pop  hl
23eb: 11 13 0d     ld   de,$0D13
23ee: 06 05        ld   b,$05
23f0: dd e5        push ix
23f2: e5           push hl
23f3: d5           push de
23f4: c5           push bc
23f5: 1a           ld   a,(de)
23f6: 3c           inc  a
23f7: 28 10        jr   z,$2409
23f9: f5           push af
23fa: cd e6 12     call $12E6
23fd: f1           pop  af
23fe: c6 40        add  a,$40
2400: 4f           ld   c,a
2401: cd d7 12     call $12D7
2404: 0e 3a        ld   c,$3A
2406: cd d7 12     call $12D7
2409: c1           pop  bc
240a: d1           pop  de
240b: e1           pop  hl
240c: 25           dec  h
240d: 13           inc  de
240e: 10 e2        djnz $23F2
2410: dd e1        pop  ix
2412: c9           ret
2413: 63           ld   h,e
2414: 63           ld   h,e
2415: 63           ld   h,e
2416: 63           ld   h,e
2417: 63           ld   h,e
2418: 4f           ld   c,a
2419: ce 4f        adc  a,$4F
241b: 46           ld   b,(hl)
241c: c6 dd        add  a,$DD
241e: 21 d0 0d     ld   hl,$0DD0
2421: dd 66 00     ld   h,(ix+$00)
2424: dd 23        inc  ix
2426: dd 6e 00     ld   l,(ix+$00)
2429: dd 23        inc  ix
242b: dd 56 00     ld   d,(ix+$00)
242e: dd 23        inc  ix
2430: dd 5e 00     ld   e,(ix+$00)
2433: dd 23        inc  ix
2435: e5           push hl
2436: dd e5        push ix
2438: cd 7f 0d     call $0D7F
243b: dd e1        pop  ix
243d: e1           pop  hl
243e: dd 6e 00     ld   l,(ix+$00)
2441: dd 23        inc  ix
2443: e5           push hl
2444: dd 6e 00     ld   l,(ix+$00)
2447: dd 23        inc  ix
2449: 2c           inc  l
244a: 2d           dec  l
244b: 28 04        jr   z,$2451
244d: 25           dec  h
244e: cd 61 0d     call $0D61
2451: e1           pop  hl
2452: dd 7e 00     ld   a,(ix+$00)
2455: 3c           inc  a
2456: c8           ret  z
2457: fe 20        cp   $20
2459: 38 c6        jr   c,$2421
245b: 24           inc  h
245c: cd 61 0d     call $0D61
245f: 18 f1        jr   $2452
2461: e5           push hl
2462: dd e5        push ix
2464: cd e6 12     call $12E6
2467: dd e1        pop  ix
2469: dd 4e 00     ld   c,(ix+$00)
246c: dd 23        inc  ix
246e: dd e5        push ix
2470: c5           push bc
2471: cb b9        res  7,c
2473: cd d7 12     call $12D7
2476: c1           pop  bc
2477: dd e1        pop  ix
2479: cb 79        bit  7,c
247b: 28 ec        jr   z,$2469
247d: e1           pop  hl
247e: c9           ret
247f: e5           push hl
2480: cd c4 0d     call $0DC4
2483: 0e dd        ld   c,$DD
2485: cd ca 0d     call $0DCA
2488: cd ba 0d     call $0DBA
248b: 0e fd        ld   c,$FD
248d: cd ca 0d     call $0DCA
2490: 0e 08        ld   c,$08
2492: cd ca 0d     call $0DCA
2495: 0e 0a        ld   c,$0A
2497: cd ca 0d     call $0DCA
249a: cd b2 0d     call $0DB2
249d: e1           pop  hl
249e: 24           inc  h
249f: cd c4 0d     call $0DC4
24a2: cd b2 0d     call $0DB2
24a5: 0e df        ld   c,$DF
24a7: cd ca 0d     call $0DCA
24aa: cd ba 0d     call $0DBA
24ad: 0e ff        ld   c,$FF
24af: c3 ca 0d     jp   $0DCA
24b2: d5           push de
24b3: 53           ld   d,e
24b4: 1e e9        ld   e,$E9
24b6: 06 02        ld   b,$02
24b8: 18 05        jr   $24BF
24ba: d5           push de
24bb: 1e e8        ld   e,$E8
24bd: 06 01        ld   b,$01
24bf: cd 23 0b     call $0B23
24c2: d1           pop  de
24c3: c9           ret
24c4: d5           push de
24c5: cd e6 12     call $12E6
24c8: d1           pop  de
24c9: c9           ret
24ca: d5           push de
24cb: cd d7 12     call $12D7
24ce: d1           pop  de
24cf: c9           ret
24d0: 05           dec  b
24d1: 01 1e 01     ld   bc,$011E
24d4: 07           rlca
24d5: 08           ex   af,af'
24d6: 41           ld   b,c
24d7: 75           ld   (hl),l
24d8: 74           ld   (hl),h
24d9: 6f           ld   l,a
24da: 20 42        jr   nz,$251E
24dc: 6f           ld   l,a
24dd: 6f           ld   l,a
24de: 74           ld   (hl),h
24df: 20 43        jr   nz,$2524
24e1: 6f           ld   l,a
24e2: 6d           ld   l,l
24e3: 6d           ld   l,l
24e4: 61           ld   h,c
24e5: 6e           ld   l,(hl)
24e6: e4 a0 0f     call po,$0FA0
24e9: 37           scf
24ea: 16 07        ld   d,$07
24ec: 42           ld   b,d
24ed: 3d           dec  a
24ee: 53           ld   d,e
24ef: 65           ld   h,l
24f0: 72           ld   (hl),d
24f1: 69           ld   l,c
24f2: 61           ld   h,c
24f3: 6c           ld   l,h
24f4: 20 50        jr   nz,$2546
24f6: 6f           ld   l,a
24f7: 72           ld   (hl),d
24f8: f4 50 72     call p,$7250
24fb: 6f           ld   l,a
24fc: 74           ld   (hl),h
24fd: 6f           ld   l,a
24fe: 63           ld   h,e
24ff: 6f           ld   l,a
2500: ec 42 61     call pe,$6142
2503: 75           ld   (hl),l
2504: 64           ld   h,h
2505: 20 52        jr   nz,$2559
2507: 61           ld   h,c
2508: 74           ld   (hl),h
2509: e5           push hl
250a: 50           ld   d,b
250b: 61           ld   h,c
250c: 72           ld   (hl),d
250d: 69           ld   l,c
250e: 74           ld   (hl),h
250f: f9           ld   sp,hl
2510: 44           ld   b,h
2511: 61           ld   h,c
2512: 74           ld   (hl),h
2513: 61           ld   h,c
2514: 20 4c        jr   nz,$2562
2516: 65           ld   h,l
2517: 6e           ld   l,(hl)
2518: 67           ld   h,a
2519: 74           ld   (hl),h
251a: e8           ret  pe
251b: 53           ld   d,e
251c: 74           ld   (hl),h
251d: 6f           ld   l,a
251e: 70           ld   (hl),b
251f: 20 42        jr   nz,$2563
2521: 69           ld   l,c
2522: 74           ld   (hl),h
2523: f3           di
2524: 42           ld   b,d
2525: 69           ld   l,c
2526: 74           ld   (hl),h
2527: 20 37        jr   nz,$2560
2529: 20 4d        jr   nz,$2578
252b: 61           ld   h,c
252c: 73           ld   (hl),e
252d: eb           ex   de,hl
252e: 49           ld   c,c
252f: 6e           ld   l,(hl)
2530: 74           ld   (hl),h
2531: 65           ld   h,l
2532: 72           ld   (hl),d
2533: 72           ld   (hl),d
2534: 75           ld   (hl),l
2535: 70           ld   (hl),b
2536: 74           ld   (hl),h
2537: f3           di
2538: 10 20        djnz $255A
253a: 12           ld   (de),a
253b: 06 25        ld   b,$25
253d: 22 44 69     ld   ($6944),hl
2540: 73           ld   (hl),e
2541: 6b           ld   l,e
2542: 20 41        jr   nz,$2585
2544: 73           ld   (hl),e
2545: 73           ld   (hl),e
2546: 69           ld   l,c
2547: 67           ld   h,a
2548: 6e           ld   l,(hl)
2549: 6d           ld   l,l
254a: 65           ld   h,l
254b: 6e           ld   l,(hl)
254c: 74           ld   (hl),h
254d: f3           di
254e: 4c           ld   c,h
254f: 65           ld   h,l
2550: 66           ld   h,(hl)
2551: 74           ld   (hl),h
2552: 20 20        jr   nz,$2574
2554: 20 46        jr   nz,$259C
2556: 6c           ld   l,h
2557: 6f           ld   l,a
2558: 70           ld   (hl),b
2559: 70           ld   (hl),b
255a: f9           ld   sp,hl
255b: 52           ld   d,d
255c: 69           ld   l,c
255d: 67           ld   h,a
255e: 68           ld   l,b
255f: 74           ld   (hl),h
2560: 20 20        jr   nz,$2582
2562: 46           ld   b,(hl)
2563: 6c           ld   l,h
2564: 6f           ld   l,a
2565: 70           ld   (hl),b
2566: 70           ld   (hl),b
2567: f9           ld   sp,hl
2568: 52           ld   d,d
2569: 61           ld   h,c
256a: 6d           ld   l,l
256b: 20 20        jr   nz,$258D
256d: 44           ld   b,h
256e: 72           ld   (hl),d
256f: 69           ld   l,c
2570: 76           halt
2571: e5           push hl
2572: 48           ld   c,b
2573: 61           ld   h,c
2574: 72           ld   (hl),d
2575: 64           ld   h,h
2576: 20 44        jr   nz,$25BC
2578: 72           ld   (hl),d
2579: 69           ld   l,c
257a: 76           halt
257b: 65           ld   h,l
257c: 20 23        jr   nz,$25A1
257e: b1           or   c
257f: 48           ld   c,b
2580: 61           ld   h,c
2581: 72           ld   (hl),d
2582: 64           ld   h,h
2583: 20 44        jr   nz,$25C9
2585: 72           ld   (hl),d
2586: 69           ld   l,c
2587: 76           halt
2588: 65           ld   h,l
2589: 20 23        jr   nz,$25AE
258b: b2           or   d
258c: 20 20        jr   nz,$25AE
258e: 44           ld   b,h
258f: 69           ld   l,c
2590: 73           ld   (hl),e
2591: 6b           ld   l,e
2592: 20 26        jr   nz,$25BA
2594: 20 55        jr   nz,$25EB
2596: 73           ld   (hl),e
2597: 65           ld   h,l
2598: f2 13 01     jp   p,$0113
259b: 1a           ld   a,(de)
259c: 03           inc  bc
259d: 0a           ld   a,(bc)
259e: 07           rlca
259f: 44           ld   b,h
25a0: 69           ld   l,c
25a1: 73           ld   (hl),e
25a2: 6b           ld   l,e
25a3: 20 53        jr   nz,$25F8
25a5: 74           ld   (hl),h
25a6: 61           ld   h,c
25a7: 74           ld   (hl),h
25a8: 69           ld   l,c
25a9: 73           ld   (hl),e
25aa: 74           ld   (hl),h
25ab: 69           ld   l,c
25ac: 63           ld   h,e
25ad: f3           di
25ae: 44           ld   b,h
25af: 69           ld   l,c
25b0: 73           ld   (hl),e
25b1: 6b           ld   l,e
25b2: 20 20        jr   nz,$25D4
25b4: 45           ld   b,l
25b5: 72           ld   (hl),d
25b6: 72           ld   (hl),d
25b7: 6f           ld   l,a
25b8: 72           ld   (hl),d
25b9: 20 4d        jr   nz,$2608
25bb: 73           ld   (hl),e
25bc: 67           ld   h,a
25bd: f3           di
25be: 44           ld   b,h
25bf: 69           ld   l,c
25c0: 73           ld   (hl),e
25c1: 6b           ld   l,e
25c2: 20 20        jr   nz,$25E4
25c4: 45           ld   b,l
25c5: 72           ld   (hl),d
25c6: 72           ld   (hl),d
25c7: 6f           ld   l,a
25c8: 72           ld   (hl),d
25c9: 20 52        jr   nz,$261D
25cb: 65           ld   h,l
25cc: 74           ld   (hl),h
25cd: 72           ld   (hl),d
25ce: f9           ld   sp,hl
25cf: 52           ld   d,d
25d0: 61           ld   h,c
25d1: 6d           ld   l,l
25d2: 20 20        jr   nz,$25F4
25d4: 20 44        jr   nz,$261A
25d6: 69           ld   l,c
25d7: 73           ld   (hl),e
25d8: 6b           ld   l,e
25d9: 20 20        jr   nz,$25FB
25db: 44           ld   b,h
25dc: 72           ld   (hl),d
25dd: 69           ld   l,c
25de: 76           halt
25df: e5           push hl
25e0: 0a           ld   a,(bc)
25e1: 01 14 04     ld   bc,$0414
25e4: 09           add  hl,bc
25e5: 08           ex   af,af'
25e6: 50           ld   d,b
25e7: 72           ld   (hl),d
25e8: 69           ld   l,c
25e9: 6e           ld   l,(hl)
25ea: 74           ld   (hl),h
25eb: 65           ld   h,l
25ec: f2 20 20     jp   p,$2020
25ef: 20 20        jr   nz,$2611
25f1: 20 50        jr   nz,$2643
25f3: 72           ld   (hl),d
25f4: 69           ld   l,c
25f5: 6e           ld   l,(hl)
25f6: 74           ld   (hl),h
25f7: 65           ld   h,l
25f8: f2 20 20     jp   p,$2020
25fb: 20 49        jr   nz,$2646
25fd: 6e           ld   l,(hl)
25fe: 74           ld   (hl),h
25ff: 65           ld   h,l
2600: 72           ld   (hl),d
2601: 66           ld   h,(hl)
2602: 61           ld   h,c
2603: 63           ld   h,e
2604: e5           push hl
2605: 42           ld   b,d
2606: 69           ld   l,c
2607: 74           ld   (hl),h
2608: 20 20        jr   nz,$262A
260a: 37           scf
260b: 20 20        jr   nz,$262D
260d: 4d           ld   c,l
260e: 61           ld   h,c
260f: 73           ld   (hl),e
2610: eb           ex   de,hl
2611: 53           ld   d,e
2612: 69           ld   l,c
2613: 6e           ld   l,(hl)
2614: 67           ld   h,a
2615: 6c           ld   l,h
2616: 65           ld   h,l
2617: 20 53        jr   nz,$266C
2619: 68           ld   l,b
261a: 65           ld   h,l
261b: 65           ld   h,l
261c: f4 05 34     call p,$3405
261f: 19           add  hl,de
2620: 07           rlca
2621: 3e 3a        ld   a,$3A
2623: 4b           ld   c,e
2624: 65           ld   h,l
2625: 79           ld   a,c
2626: 62           ld   h,d
2627: 6f           ld   l,a
2628: 61           ld   h,c
2629: 72           ld   (hl),d
262a: 64           ld   h,h
262b: 20 26        jr   nz,$2653
262d: 20 43        jr   nz,$2672
262f: 52           ld   d,d
2630: d4 53 68     call nc,$6853
2633: 69           ld   l,c
2634: 66           ld   h,(hl)
2635: 74           ld   (hl),h
2636: 20 4c        jr   nz,$2684
2638: 6f           ld   l,a
2639: 63           ld   h,e
263a: 6b           ld   l,e
263b: 20 4d        jr   nz,$268A
263d: 6f           ld   l,a
263e: 64           ld   h,h
263f: e5           push hl
2640: 54           ld   d,h
2641: 79           ld   a,c
2642: 70           ld   (hl),b
2643: 61           ld   h,c
2644: 6d           ld   l,l
2645: 61           ld   h,c
2646: 74           ld   (hl),h
2647: 69           ld   l,c
2648: 63           ld   h,e
2649: 20 20        jr   nz,$266B
264b: 4b           ld   c,e
264c: 65           ld   h,l
264d: 79           ld   a,c
264e: f3           di
264f: 46           ld   b,(hl)
2650: 75           ld   (hl),l
2651: 6e           ld   l,(hl)
2652: 63           ld   h,e
2653: 74           ld   (hl),h
2654: 69           ld   l,c
2655: 6f           ld   l,a
2656: 6e           ld   l,(hl)
2657: 20 20        jr   nz,$2679
2659: 20 4b        jr   nz,$26A6
265b: 65           ld   h,l
265c: 79           ld   a,c
265d: f3           di
265e: 42           ld   b,d
265f: 69           ld   l,c
2660: 74           ld   (hl),h
2661: 20 37        jr   nz,$269A
2663: 20 20        jr   nz,$2685
2665: 4d           ld   c,l
2666: 61           ld   h,c
2667: 73           ld   (hl),e
2668: eb           ex   de,hl
2669: 43           ld   b,e
266a: 75           ld   (hl),l
266b: 72           ld   (hl),d
266c: 73           ld   (hl),e
266d: 6f           ld   l,a
266e: 72           ld   (hl),d
266f: 20 42        jr   nz,$26B3
2671: 6c           ld   l,h
2672: 69           ld   l,c
2673: 6e           ld   l,(hl)
2674: eb           ex   de,hl
2675: 41           ld   b,c
2676: 75           ld   (hl),l
2677: 74           ld   (hl),h
2678: 6f           ld   l,a
2679: 20 20        jr   nz,$269B
267b: 4c           ld   c,h
267c: 69           ld   l,c
267d: 6e           ld   l,(hl)
267e: 65           ld   h,l
267f: 20 57        jr   nz,$26D8
2681: 72           ld   (hl),d
2682: 61           ld   h,c
2683: f0           ret  p
2684: 53           ld   d,e
2685: 63           ld   h,e
2686: 72           ld   (hl),d
2687: 65           ld   h,l
2688: 65           ld   h,l
2689: 6e           ld   l,(hl)
268a: 20 53        jr   nz,$26DF
268c: 61           ld   h,c
268d: 76           halt
268e: 65           ld   h,l
268f: f2 ff 01     jp   p,$01FF
2692: 1a           ld   a,(de)
2693: 14           inc  d
2694: 03           inc  bc
2695: 01 19 15     ld   bc,$1519
2698: 03           inc  bc
2699: 01 2b 16     ld   bc,$162B
269c: 03           inc  bc
269d: 01 26 06     ld   bc,$0626
26a0: 03           inc  bc
26a1: 01 28 15     ld   bc,$1528
26a4: 39           add  hl,sp
26a5: 01 30 16     ld   bc,$1630
26a8: 39           add  hl,sp
26a9: 01 1f 07     ld   bc,$071F
26ac: 36 01        ld   (hl),$01
26ae: 27           daa
26af: 09           add  hl,bc
26b0: 36 01        ld   (hl),$01
26b2: 1d           dec  e
26b3: 0a           ld   a,(bc)
26b4: 36 01        ld   (hl),$01
26b6: 1c           inc  e
26b7: 0b           dec  bc
26b8: 36 01        ld   (hl),$01
26ba: 36 0c        ld   (hl),$0C
26bc: 36 01        ld   (hl),$01
26be: 2f           cpl
26bf: 0d           dec  c
26c0: 03           inc  bc
26c1: 01 31 0e     ld   bc,$0E31
26c4: 03           inc  bc
26c5: 02           ld   (bc),a
26c6: 22 10 39     ld   ($3910),hl
26c9: 4e           ld   c,(hl)
26ca: 4f           ld   c,a
26cb: 4e           ld   c,(hl)
26cc: c5           push bc
26cd: 45           ld   b,l
26ce: 54           ld   d,h
26cf: 58           ld   e,b
26d0: 2f           cpl
26d1: 41           ld   b,c
26d2: 43           ld   b,e
26d3: cb 43        bit  0,e
26d5: 54           ld   d,h
26d6: 53           ld   d,e
26d7: 2f           cpl
26d8: 52           ld   d,d
26d9: 54           ld   d,h
26da: d3 58        out  ($58),a
26dc: 4f           ld   c,a
26dd: 4e           ld   c,(hl)
26de: 2f           cpl
26df: 58           ld   e,b
26e0: 4f           ld   c,a
26e1: 46           ld   b,(hl)
26e2: c6 02        add  a,$02
26e4: 21 11 39     ld   hl,$3911
26e7: 4e           ld   c,(hl)
26e8: 4f           ld   c,a
26e9: 4e           ld   c,(hl)
26ea: c5           push bc
26eb: 35           dec  (hl)
26ec: b0           or   b
26ed: 37           scf
26ee: b5           or   l
26ef: 31 31 b0     ld   sp,$B031
26f2: 31 33 b4     ld   sp,$B433
26f5: 31 35 b0     ld   sp,$B035
26f8: 33           inc  sp
26f9: 30 b0        jr   nc,$26AB
26fb: 36 30        ld   (hl),$30
26fd: b0           or   b
26fe: 31 32 30     ld   sp,$3032
2701: b0           or   b
2702: 31 38 30     ld   sp,$3038
2705: b0           or   b
2706: 32 34 30     ld   ($3034),a
2709: b0           or   b
270a: 33           inc  sp
270b: 36 30        ld   (hl),$30
270d: b0           or   b
270e: 34           inc  (hl)
270f: 38 30        jr   c,$2741
2711: b0           or   b
2712: 37           scf
2713: 32 30 b0     ld   ($B030),a
2716: 39           add  hl,sp
2717: 36 30        ld   (hl),$30
2719: b0           or   b
271a: 02           ld   (bc),a
271b: 2c           inc  l
271c: 0b           dec  bc
271d: 03           inc  bc
271e: 4e           ld   c,(hl)
271f: 4f           ld   c,a
2720: 4e           ld   c,(hl)
2721: c5           push bc
2722: 47           ld   b,a
2723: 45           ld   b,l
2724: 4e           ld   c,(hl)
2725: 45           ld   b,l
2726: 52           ld   d,d
2727: 49           ld   c,c
2728: c3 43 45     jp   $4543
272b: 4e           ld   c,(hl)
272c: 54           ld   d,h
272d: 52           ld   d,d
272e: 4f           ld   c,a
272f: 4e           ld   c,(hl)
2730: 49           ld   c,c
2731: 43           ld   b,e
2732: d3 46        out  ($46),a
2734: 58           ld   e,b
2735: 2d           dec  l
2736: 38 b0        jr   c,$26E8
2738: 46           ld   b,(hl)
2739: 58           ld   e,b
273a: 2d           dec  l
273b: 31 30 b0     ld   sp,$B030
273e: 52           ld   d,d
273f: 58           ld   e,b
2740: 2d           dec  l
2741: 38 b0        jr   c,$26F3
2743: 52           ld   d,d
2744: 58           ld   e,b
2745: 2d           dec  l
2746: 31 30 b0     ld   sp,$B030
2749: 4d           ld   c,l
274a: 58           ld   e,b
274b: 2d           dec  l
274c: 38 b0        jr   c,$26FE
274e: 4d           ld   c,l
274f: 58           ld   e,b
2750: 2d           dec  l
2751: 31 30 b0     ld   sp,$B030
2754: 4c           ld   c,h
2755: 51           ld   d,c
2756: 2d           dec  l
2757: 31 35 30     ld   sp,$3035
275a: b0           or   b
275b: 43           ld   b,e
275c: 52           ld   d,d
275d: 2d           dec  l
275e: c9           ret
275f: 43           ld   b,e
2760: 52           ld   d,d
2761: 2d           dec  l
2762: 49           ld   c,c
2763: c9           ret
2764: 43           ld   b,e
2765: 52           ld   d,d
2766: 2d           dec  l
2767: 49           ld   c,c
2768: 49           ld   c,c
2769: c9           ret
276a: 02           ld   (bc),a
276b: 23           inc  hl
276c: 12           ld   (de),a
276d: 39           add  hl,sp
276e: 4e           ld   c,(hl)
276f: 4f           ld   c,a
2770: 4e           ld   c,(hl)
2771: c5           push bc
2772: 4f           ld   c,a
2773: 44           ld   b,h
2774: c4 45 56     call nz,$5645
2777: 45           ld   b,l
2778: ce 02        adc  a,$02
277a: 25           dec  h
277b: 13           inc  de
277c: 39           add  hl,sp
277d: b5           or   l
277e: b6           or   (hl)
277f: b7           or   a
2780: b8           cp   b
2781: 02           ld   (bc),a
2782: 24           inc  h
2783: 14           inc  d
2784: 39           add  hl,sp
2785: b1           or   c
2786: 31 2e b0     ld   sp,$B02E
2789: b2           or   d
278a: 02           ld   (bc),a
278b: 29           add  hl,hl
278c: 06 36        ld   b,$36
278e: 43           ld   b,e
278f: 41           ld   b,c
2790: 50           ld   d,b
2791: d3 53        out  ($53),a
2793: 48           ld   c,b
2794: 49           ld   c,c
2795: 46           ld   b,(hl)
2796: d4 02 2a     call nc,$2A02
2799: 08           ex   af,af'
279a: 36 48        ld   (hl),$48
279c: 41           ld   b,c
279d: 53           ld   d,e
279e: 43           ld   b,e
279f: c9           ret
27a0: 54           ld   d,h
27a1: 56           ld   d,(hl)
27a2: 49           ld   c,c
27a3: 2d           dec  l
27a4: 39           add  hl,sp
27a5: 32 b0 43     ld   ($43B0),a
27a8: 55           ld   d,l
27a9: 53           ld   d,e
27aa: 54           ld   d,h
27ab: 4f           ld   c,a
27ac: cd 03 60     call $6003
27af: 06 03        ld   b,$03
27b1: 04           inc  b
27b2: 50           ld   d,b
27b3: 15           dec  d
27b4: 22 05 00     ld   ($0005),hl
27b7: 0c           inc  c
27b8: 03           inc  bc
27b9: 50           ld   d,b
27ba: 41           ld   b,c
27bb: 52           ld   d,d
27bc: 41           ld   b,c
27bd: 4c           ld   c,h
27be: 4c           ld   c,h
27bf: 45           ld   b,l
27c0: cc 53 45     call z,$4553
27c3: 52           ld   d,d
27c4: 49           ld   c,c
27c5: 41           ld   b,c
27c6: cc a0 06     call z,$06A0
27c9: 00           nop
27ca: 16 22        ld   d,$22
27cc: ff           rst  $38
27cd: 1b           dec  de
27ce: a9           xor  c
27cf: 1b           dec  de
27d0: a8           xor  b
27d1: 45           ld   b,l
27d2: 50           ld   d,b
27d3: 53           ld   d,e
27d4: 4f           ld   c,a
27d5: 4e           ld   c,(hl)
27d6: 20 51        jr   nz,$2829
27d8: 58           ld   e,b
27d9: 2d           dec  l
27da: 31 30 20     ld   sp,$2030
27dd: 26 20        ld   h,$20
27df: 51           ld   d,c
27e0: 58           ld   e,b
27e1: 2d           dec  l
27e2: 31 36 20     ld   sp,$2036
27e5: 43           ld   b,e
27e6: 50           ld   d,b
27e7: 2f           cpl
27e8: 4d           ld   c,l
27e9: 20 32        jr   nz,$281D
27eb: 2e 32        ld   l,$32
27ed: 20 42        jr   nz,$2831
27ef: 32 2e 32     ld   ($322E),a
27f2: 37           scf
27f3: 20 a0        jr   nz,$2795
27f5: 50           ld   d,b
27f6: 52           ld   d,d
27f7: 45           ld   b,l
27f8: 53           ld   d,e
27f9: 53           ld   d,e
27fa: 20 43        jr   nz,$283F
27fc: 4f           ld   c,a
27fd: 4e           ld   c,(hl)
27fe: 54           ld   d,h
27ff: 52           ld   d,d
2800: 4f           ld   c,a
2801: 4c           ld   c,h
2802: 2d           dec  l
2803: 48           ld   c,b
2804: 45           ld   b,l
2805: 4c           ld   c,h
2806: 50           ld   d,b
2807: 20 54        jr   nz,$285D
2809: 4f           ld   c,a
280a: 20 45        jr   nz,$2851
280c: 58           ld   e,b
280d: 49           ld   c,c
280e: 54           ld   d,h
280f: a0           and  b
2810: 3a 5a 12     ld   a,($125A)
2813: b7           or   a
2814: 20 47        jr   nz,$285D
2816: 2a 52 12     ld   hl,($1252)
2819: 23           inc  hl
281a: 22 52 12     ld   ($1252),hl
281d: 3a 1c 2b     ld   a,($2B1C)
2820: b7           or   a
2821: 28 08        jr   z,$282B
2823: 3a 66 f0     ld   a,($F066)
2826: cb ef        set  5,a
2828: 32 66 f0     ld   ($F066),a
282b: 3a 58 12     ld   a,($1258)
282e: 3d           dec  a
282f: 28 0c        jr   z,$283D
2831: 32 58 12     ld   ($1258),a
2834: 3a 59 12     ld   a,($1259)
2837: fe ff        cp   $FF
2839: 28 16        jr   z,$2851
283b: 18 20        jr   $285D
283d: 3e 3c        ld   a,$3C
283f: 32 58 12     ld   ($1258),a
2842: 3a 40 27     ld   a,($2740)
2845: b7           or   a
2846: 28 09        jr   z,$2851
2848: 3a 56 12     ld   a,($1256)
284b: 3d           dec  a
284c: 28 08        jr   z,$2856
284e: 32 56 12     ld   ($1256),a
2851: cd 6a 11     call $116A
2854: 18 07        jr   $285D
2856: 32 57 12     ld   ($1257),a
2859: 3e 0c        ld   a,$0C
285b: d3 39        out  ($39),a
285d: 3e 0c        ld   a,$0C
285f: d3 3d        out  ($3D),a
2861: db 3c        in   a,($3C)
2863: 3e 20        ld   a,$20
2865: d3 08        out  ($08),a
2867: d3 0c        out  ($0C),a
2869: c9           ret
286a: 3a 25 27     ld   a,($2725)
286d: b7           or   a
286e: c8           ret  z
286f: 3e ff        ld   a,$FF
2871: 32 59 12     ld   ($1259),a
2874: 3a 54 12     ld   a,($1254)
2877: b7           or   a
2878: c0           ret  nz
2879: 3a 55 12     ld   a,($1255)
287c: b7           or   a
287d: c0           ret  nz
287e: 3a f6 54     ld   a,($54F6)
2881: b7           or   a
2882: c0           ret  nz
2883: 3a 67 f0     ld   a,($F067)
2886: b7           or   a
2887: c0           ret  nz
2888: cd e3 11     call $11E3
288b: 3a 59 12     ld   a,($1259)
288e: 4f           ld   c,a
288f: 3a 49 12     ld   a,($1249)
2892: b9           cp   c
2893: c8           ret  z
2894: 32 59 12     ld   ($1259),a
2897: 3a 4a 12     ld   a,($124A)
289a: e6 0f        and  $0F
289c: 47           ld   b,a
289d: 3a 4a 12     ld   a,($124A)
28a0: e6 f0        and  $F0
28a2: cb 3f        srl  a
28a4: 4f           ld   c,a
28a5: cb 3f        srl  a
28a7: cb 3f        srl  a
28a9: 81           add  a,c
28aa: 80           add  a,b
28ab: 47           ld   b,a
28ac: 3e 3c        ld   a,$3C
28ae: 90           sub  b
28af: 32 58 12     ld   ($1258),a
28b2: 21 35 12     ld   hl,$1235
28b5: 11 45 12     ld   de,$1245
28b8: 06 05        ld   b,$05
28ba: c5           push bc
28bb: cd cc 11     call $11CC
28be: c1           pop  bc
28bf: 10 f9        djnz $28BA
28c1: 3e 34        ld   a,$34
28c3: 0e 40        ld   c,$40
28c5: 21 35 12     ld   hl,$1235
28c8: cd ec 12     call $12EC
28cb: c9           ret
28cc: 1a           ld   a,(de)
28cd: cb 3f        srl  a
28cf: cb 3f        srl  a
28d1: cb 3f        srl  a
28d3: cb 3f        srl  a
28d5: f6 30        or   $30
28d7: 77           ld   (hl),a
28d8: 23           inc  hl
28d9: 1a           ld   a,(de)
28da: e6 0f        and  $0F
28dc: f6 30        or   $30
28de: 77           ld   (hl),a
28df: 23           inc  hl
28e0: 23           inc  hl
28e1: 13           inc  de
28e2: c9           ret
28e3: cd 2a 12     call $122A
28e6: 21 44 12     ld   hl,$1244
28e9: 11 4b 12     ld   de,$124B
28ec: 06 07        ld   b,$07
28ee: 1a           ld   a,(de)
28ef: d3 3d        out  ($3D),a
28f1: db 3c        in   a,($3C)
28f3: 77           ld   (hl),a
28f4: 23           inc  hl
28f5: 13           inc  de
28f6: 10 f6        djnz $28EE
28f8: c9           ret
28f9: e5           push hl
28fa: cd e3 11     call $11E3
28fd: 21 44 12     ld   hl,$1244
2900: d1           pop  de
2901: 01 07 00     ld   bc,$0007
2904: ed b0        ldir
2906: c9           ret
2907: 11 44 12     ld   de,$1244
290a: 01 07 00     ld   bc,$0007
290d: ed b0        ldir
290f: cd 2a 12     call $122A
2912: 21 44 12     ld   hl,$1244
2915: 11 4b 12     ld   de,$124B
2918: 06 07        ld   b,$07
291a: 1a           ld   a,(de)
291b: d3 3d        out  ($3D),a
291d: 7e           ld   a,(hl)
291e: d3 3c        out  ($3C),a
2920: 23           inc  hl
2921: 13           inc  de
2922: 10 f6        djnz $291A
2924: 3e ff        ld   a,$FF
2926: 32 59 12     ld   ($1259),a
2929: c9           ret
292a: 3e 0a        ld   a,$0A
292c: d3 3d        out  ($3D),a
292e: db 3c        in   a,($3C)
2930: cb 7f        bit  7,a
2932: 20 f6        jr   nz,$292A
2934: c9           ret
2935: 30 38        jr   nc,$296F
2937: 2f           cpl
2938: 32 33 2f     ld   ($2F33),a
293b: 38 34        jr   c,$2971
293d: 20 32        jr   nz,$2971
293f: 30 3a        jr   nc,$297B
2941: 31 37 00     ld   sp,$0037
2944: 01 03 28     ld   bc,$2803
2947: 83           add  a,e
2948: 20 00        jr   nz,$294A
294a: 00           nop
294b: 06 08        ld   b,$08
294d: 07           rlca
294e: 09           add  hl,bc
294f: 04           inc  b
2950: 02           ld   (bc),a
2951: 00           nop
2952: 00           nop
2953: 00           nop
2954: 00           nop
2955: 00           nop
2956: 14           inc  d
2957: ff           rst  $38
2958: 01 ff ff     ld   bc,$FFFF
295b: 3a 64 f0     ld   a,($F064)
295e: cd c7 12     call $12C7
2961: 2b           dec  hl
2962: f5           push af
2963: 2b           dec  hl
2964: f5           push af
2965: 73           ld   (hl),e
2966: 14           inc  d
2967: f2 12 3a     jp   p,$3A12
296a: 64           ld   h,h
296b: f0           ret  p
296c: cd c7 12     call $12C7
296f: 86           add  a,(hl)
2970: 14           inc  d
2971: 86           add  a,(hl)
2972: 14           inc  d
2973: 80           add  a,b
2974: 14           inc  d
2975: 0c           inc  c
2976: 13           inc  de
2977: 3a 64 f0     ld   a,($F064)
297a: cd c7 12     call $12C7
297d: d7           rst  $10
297e: 12           ld   (de),a
297f: d7           rst  $10
2980: 12           ld   (de),a
2981: 83           add  a,e
2982: 14           inc  d
2983: 5f           ld   e,a
2984: 13           inc  de
2985: 3a 64 f0     ld   a,($F064)
2988: 0f           rrca
2989: 0f           rrca
298a: 0f           rrca
298b: 0f           rrca
298c: cd c7 12     call $12C7
298f: d7           rst  $10
2990: 12           ld   (de),a
2991: d7           rst  $10
2992: 12           ld   (de),a
2993: 5f           ld   e,a
2994: 13           inc  de
2995: 5f           ld   e,a
2996: 13           inc  de
2997: 3a 64 f0     ld   a,($F064)
299a: 0f           rrca
299b: 0f           rrca
299c: cd c7 12     call $12C7
299f: 86           add  a,(hl)
29a0: 14           inc  d
29a1: 86           add  a,(hl)
29a2: 14           inc  d
29a3: 0c           inc  c
29a4: 13           inc  de
29a5: 0c           inc  c
29a6: 13           inc  de
29a7: 3a 64 f0     ld   a,($F064)
29aa: 07           rlca
29ab: 07           rlca
29ac: cd c7 12     call $12C7
29af: d7           rst  $10
29b0: 12           ld   (de),a
29b1: d7           rst  $10
29b2: 12           ld   (de),a
29b3: be           cp   (hl)
29b4: 14           inc  d
29b5: 5f           ld   e,a
29b6: 13           inc  de
29b7: 3a 64 f0     ld   a,($F064)
29ba: 07           rlca
29bb: 07           rlca
29bc: cd c7 12     call $12C7
29bf: 56           ld   d,(hl)
29c0: 13           inc  de
29c1: 2b           dec  hl
29c2: f5           push af
29c3: f6 14        or   $14
29c5: f6 14        or   $14
29c7: e6 03        and  $03
29c9: 87           add  a,a
29ca: e1           pop  hl
29cb: 85           add  a,l
29cc: 6f           ld   l,a
29cd: d2 d1 12     jp   nc,$12D1
29d0: 24           inc  h
29d1: 7e           ld   a,(hl)
29d2: 23           inc  hl
29d3: 66           ld   h,(hl)
29d4: 6f           ld   l,a
29d5: e9           jp   (hl)
29d6: 1b           dec  de
29d7: 00           nop
29d8: 00           nop
29d9: 00           nop
29da: 00           nop
29db: 00           nop
29dc: 00           nop
29dd: 00           nop
29de: 00           nop
29df: 00           nop
29e0: 00           nop
29e1: 00           nop
29e2: 00           nop
29e3: 00           nop
29e4: 00           nop
29e5: 00           nop
29e6: 00           nop
29e7: 00           nop
29e8: 00           nop
29e9: 00           nop
29ea: 00           nop
29eb: 00           nop
29ec: 00           nop
29ed: 00           nop
29ee: 00           nop
29ef: 00           nop
29f0: 00           nop
29f1: 00           nop
29f2: 3a 3a 27     ld   a,($273A)
29f5: b7           or   a
29f6: 20 09        jr   nz,$2A01
29f8: db 13        in   a,($13)
29fa: e6 01        and  $01
29fc: c8           ret  z
29fd: 3e ff        ld   a,$FF
29ff: b7           or   a
2a00: c9           ret
2a01: 2a ba 26     ld   hl,($26BA)
2a04: 7d           ld   a,l
2a05: b4           or   h
2a06: 28 03        jr   z,$2A0B
2a08: 3e ff        ld   a,$FF
2a0a: b7           or   a
2a0b: c9           ret
2a0c: cd f2 12     call $12F2
2a0f: 28 fb        jr   z,$2A0C
2a11: 3a 3a 27     ld   a,($273A)
2a14: b7           or   a
2a15: 20 04        jr   nz,$2A1B
2a17: db 11        in   a,($11)
2a19: 18 18        jr   $2A33
2a1b: f3           di
2a1c: 2a ba 26     ld   hl,($26BA)
2a1f: 2b           dec  hl
2a20: 22 ba 26     ld   ($26BA),hl
2a23: 16 00        ld   d,$00
2a25: 3a bd 26     ld   a,($26BD)
2a28: 5f           ld   e,a
2a29: 21 fe a1     ld   hl,$A1FE
2a2c: 19           add  hl,de
2a2d: 3c           inc  a
2a2e: 32 bd 26     ld   ($26BD),a
2a31: 7e           ld   a,(hl)
2a32: fb           ei
2a33: 4f           ld   c,a
2a34: 3a 32 27     ld   a,($2732)
2a37: b7           or   a
2a38: 79           ld   a,c
2a39: 28 02        jr   z,$2A3D
2a3b: e6 7f        and  $7F
2a3d: 4f           ld   c,a
2a3e: 3a 6f 14     ld   a,($146F)
2a41: b9           cp   c
2a42: 20 05        jr   nz,$2A49
2a44: af           xor  a
2a45: 32 71 14     ld   ($1471),a
2a48: c9           ret
2a49: 3a 70 14     ld   a,($1470)
2a4c: b9           cp   c
2a4d: 79           ld   a,c
2a4e: c0           ret  nz
2a4f: 3e ff        ld   a,$FF
2a51: 32 71 14     ld   ($1471),a
2a54: af           xor  a
2a55: c9           ret
2a56: db 13        in   a,($13)
2a58: e6 04        and  $04
2a5a: c8           ret  z
2a5b: 3e ff        ld   a,$FF
2a5d: b7           or   a
2a5e: c9           ret
2a5f: cd 56 13     call $1356
2a62: 28 fb        jr   z,$2A5F
2a64: 3a 32 27     ld   a,($2732)
2a67: b7           or   a
2a68: 79           ld   a,c
2a69: 28 02        jr   z,$2A6D
2a6b: e6 7f        and  $7F
2a6d: 4f           ld   c,a
2a6e: 3a 2c 27     ld   a,($272C)
2a71: b7           or   a
2a72: 28 5e        jr   z,$2AD2
2a74: fe 01        cp   $01
2a76: 28 36        jr   z,$2AAE
2a78: fe 02        cp   $02
2a7a: 20 0c        jr   nz,$2A88
2a7c: 3e 10        ld   a,$10
2a7e: d3 13        out  ($13),a
2a80: db 13        in   a,($13)
2a82: cb 6f        bit  5,a
2a84: 28 f6        jr   z,$2A7C
2a86: 18 4a        jr   $2AD2
2a88: fe 03        cp   $03
2a8a: 20 46        jr   nz,$2AD2
2a8c: 3a 71 14     ld   a,($1471)
2a8f: b7           or   a
2a90: 28 07        jr   z,$2A99
2a92: c5           push bc
2a93: cd 0c 13     call $130C
2a96: c1           pop  bc
2a97: 18 f3        jr   $2A8C
2a99: cd f2 12     call $12F2
2a9c: 28 34        jr   z,$2AD2
2a9e: db 11        in   a,($11)
2aa0: 47           ld   b,a
2aa1: 3a 70 14     ld   a,($1470)
2aa4: b8           cp   b
2aa5: 20 2b        jr   nz,$2AD2
2aa7: 3e ff        ld   a,$FF
2aa9: 32 71 14     ld   ($1471),a
2aac: 18 de        jr   $2A8C
2aae: 21 72 14     ld   hl,$1472
2ab1: 34           inc  (hl)
2ab2: 16 80        ld   d,$80
2ab4: 79           ld   a,c
2ab5: fe 1b        cp   $1B
2ab7: 20 02        jr   nz,$2ABB
2ab9: 16 7b        ld   d,$7B
2abb: 7a           ld   a,d
2abc: be           cp   (hl)
2abd: 30 13        jr   nc,$2AD2
2abf: 3e 03        ld   a,$03
2ac1: d3 11        out  ($11),a
2ac3: af           xor  a
2ac4: 32 71 14     ld   ($1471),a
2ac7: c5           push bc
2ac8: cd 0c 13     call $130C
2acb: c1           pop  bc
2acc: e6 7f        and  $7F
2ace: fe 06        cp   $06
2ad0: 20 f5        jr   nz,$2AC7
2ad2: 79           ld   a,c
2ad3: d3 11        out  ($11),a
2ad5: c9           ret
2ad6: 21 44 14     ld   hl,$1444
2ad9: 06 00        ld   b,$00
2adb: 3a 2b 27     ld   a,($272B)
2ade: 87           add  a,a
2adf: 4f           ld   c,a
2ae0: 09           add  hl,bc
2ae1: 3a 2e 27     ld   a,($272E)
2ae4: 3c           inc  a
2ae5: cb 27        sla  a
2ae7: cb 27        sla  a
2ae9: 47           ld   b,a
2aea: 3a 2d 27     ld   a,($272D)
2aed: fe 02        cp   $02
2aef: 20 01        jr   nz,$2AF2
2af1: 3c           inc  a
2af2: b0           or   b
2af3: 47           ld   b,a
2af4: 3a 65 14     ld   a,($1465)
2af7: e6 f0        and  $F0
2af9: b0           or   b
2afa: 32 65 14     ld   ($1465),a
2afd: 3a 2f 27     ld   a,($272F)
2b00: cb 0f        rrc  a
2b02: cb 0f        rrc  a
2b04: 47           ld   b,a
2b05: cb 0f        rrc  a
2b07: 4f           ld   c,a
2b08: 3a 67 14     ld   a,($1467)
2b0b: e6 3f        and  $3F
2b0d: b0           or   b
2b0e: 32 67 14     ld   ($1467),a
2b11: 3a 69 14     ld   a,($1469)
2b14: e6 9f        and  $9F
2b16: b1           or   c
2b17: 32 69 14     ld   ($1469),a
2b1a: 3a 3a 27     ld   a,($273A)
2b1d: b7           or   a
2b1e: 28 04        jr   z,$2B24
2b20: 3e 11        ld   a,$11
2b22: 18 02        jr   $2B26
2b24: 3e 00        ld   a,$00
2b26: 32 6e 14     ld   ($146E),a
2b29: 3e b6        ld   a,$B6
2b2b: d3 07        out  ($07),a
2b2d: 7e           ld   a,(hl)
2b2e: d3 06        out  ($06),a
2b30: 23           inc  hl
2b31: 7e           ld   a,(hl)
2b32: d3 06        out  ($06),a
2b34: 3e 18        ld   a,$18
2b36: d3 13        out  ($13),a
2b38: 00           nop
2b39: 00           nop
2b3a: 21 64 14     ld   hl,$1464
2b3d: 06 0b        ld   b,$0B
2b3f: 0e 13        ld   c,$13
2b41: ed b3        otir
2b43: c9           ret
2b44: 00           nop
2b45: 00           nop
2b46: c4 09 83     call nz,$8309
2b49: 06 6f        ld   b,$6F
2b4b: 04           inc  b
2b4c: 9c           sbc  a,h
2b4d: 03           inc  bc
2b4e: 40           ld   b,b
2b4f: 03           inc  bc
2b50: a0           and  b
2b51: 01 d0 00     ld   bc,$00D0
2b54: 68           ld   l,b
2b55: 00           nop
2b56: 45           ld   b,l
2b57: 00           nop
2b58: 34           inc  (hl)
2b59: 00           nop
2b5a: 23           inc  hl
2b5b: 00           nop
2b5c: 1a           ld   a,(de)
2b5d: 00           nop
2b5e: 11 00 0d     ld   de,$0D00
2b61: 00           nop
2b62: 07           rlca
2b63: 00           nop
2b64: 14           inc  d
2b65: 44           ld   b,h
2b66: 03           inc  bc
2b67: c1           pop  bc
2b68: 05           dec  b
2b69: ea 02 00     jp   pe,$0002
2b6c: 10 01        djnz $2B6F
2b6e: 11 00 00     ld   de,$0000
2b71: 00           nop
2b72: 00           nop
2b73: cd 4f f3     call $F34F
2b76: e6 0c        and  $0C
2b78: fe 08        cp   $08
2b7a: d2 f2 12     jp   nc,$12F2
2b7d: c3 2b f5     jp   $F52B
2b80: c3 97 12     jp   $1297
2b83: c3 a7 12     jp   $12A7
2b86: 3a 66 f0     ld   a,($F066)
2b89: b7           or   a
2b8a: c4 e9 f1     call nz,$F1E9
2b8d: cd 2b f5     call $F52B
2b90: 28 f4        jr   z,$2B86
2b92: f3           di
2b93: 3a 7b f5     ld   a,($F57B)
2b96: 3d           dec  a
2b97: 32 7b f5     ld   ($F57B),a
2b9a: 16 00        ld   d,$00
2b9c: 3a 90 19     ld   a,($1990)
2b9f: 21 80 bb     ld   hl,$BB80
2ba2: 5f           ld   e,a
2ba3: 19           add  hl,de
2ba4: 3c           inc  a
2ba5: fe 80        cp   $80
2ba7: 20 02        jr   nz,$2BAB
2ba9: 3e 00        ld   a,$00
2bab: 32 90 19     ld   ($1990),a
2bae: 7e           ld   a,(hl)
2baf: fb           ei
2bb0: c9           ret
2bb1: 7e           ld   a,(hl)
2bb2: 23           inc  hl
2bb3: b7           or   a
2bb4: c8           ret  z
2bb5: 4f           ld   c,a
2bb6: e5           push hl
2bb7: cd 77 12     call $1277
2bba: e1           pop  hl
2bbb: 18 f4        jr   $2BB1
2bbd: c9           ret
2bbe: 3a 36 27     ld   a,($2736)
2bc1: a7           and  a
2bc2: c8           ret  z
2bc3: 3a 69 16     ld   a,($1669)
2bc6: a7           and  a
2bc7: c0           ret  nz
2bc8: c5           push bc
2bc9: cd f6 14     call $14F6
2bcc: 3c           inc  a
2bcd: 79           ld   a,c
2bce: c1           pop  bc
2bcf: 20 19        jr   nz,$2BEA
2bd1: 3a 67 f0     ld   a,($F067)
2bd4: a7           and  a
2bd5: 20 08        jr   nz,$2BDF
2bd7: 3a 39 27     ld   a,($2739)
2bda: a7           and  a
2bdb: 28 02        jr   z,$2BDF
2bdd: cb b9        res  7,c
2bdf: 79           ld   a,c
2be0: d3 14        out  ($14),a
2be2: 97           sub  a
2be3: d3 17        out  ($17),a
2be5: 3c           inc  a
2be6: d3 17        out  ($17),a
2be8: 79           ld   a,c
2be9: c9           ret
2bea: 3c           inc  a
2beb: 28 d1        jr   z,$2BBE
2bed: 3d           dec  a
2bee: c8           ret  z
2bef: c5           push bc
2bf0: cd 38 15     call $1538
2bf3: c1           pop  bc
2bf4: 18 c8        jr   $2BBE
2bf6: 3a 36 27     ld   a,($2736)
2bf9: a7           and  a
2bfa: 28 26        jr   z,$2C22
2bfc: db 15        in   a,($15)
2bfe: db 15        in   a,($15)
2c00: 5f           ld   e,a
2c01: e6 78        and  $78
2c03: 4f           ld   c,a
2c04: fe 48        cp   $48
2c06: 28 1a        jr   z,$2C22
2c08: fe 68        cp   $68
2c0a: 28 1c        jr   z,$2C28
2c0c: 3a 3b 27     ld   a,($273B)
2c0f: a7           and  a
2c10: 79           ld   a,c
2c11: 28 08        jr   z,$2C1B
2c13: fe 58        cp   $58
2c15: 28 0b        jr   z,$2C22
2c17: fe 70        cp   $70
2c19: 28 07        jr   z,$2C22
2c1b: fe 78        cp   $78
2c1d: c4 31 15     call nz,$1531
2c20: 97           sub  a
2c21: c9           ret
2c22: 3e ff        ld   a,$FF
2c24: cd 31 15     call $1531
2c27: c9           ret
2c28: 0e ff        ld   c,$FF
2c2a: 97           sub  a
2c2b: cd 31 15     call $1531
2c2e: c9           ret
2c2f: 4f           ld   c,a
2c30: c9           ret
2c31: 2a 52 12     ld   hl,($1252)
2c34: 22 65 16     ld   ($1665),hl
2c37: c9           ret
2c38: fe 78        cp   $78
2c3a: 20 0c        jr   nz,$2C48
2c3c: 2a 65 16     ld   hl,($1665)
2c3f: ed 4b 52 12  ld   bc,($1252)
2c43: 23           inc  hl
2c44: a7           and  a
2c45: ed 42        sbc  hl,bc
2c47: d0           ret  nc
2c48: cd 03 16     call $1603
2c4b: db 15        in   a,($15)
2c4d: bb           cp   e
2c4e: c0           ret  nz
2c4f: 3a 67 f0     ld   a,($F067)
2c52: 32 68 16     ld   ($1668),a
2c55: 3e ff        ld   a,$FF
2c57: 32 67 f0     ld   ($F067),a
2c5a: d5           push de
2c5b: 21 17 16     ld   hl,$1617
2c5e: 3e 03        ld   a,$03
2c60: 0e 00        ld   c,$00
2c62: cd ec 12     call $12EC
2c65: cd 6a 16     call $166A
2c68: d1           pop  de
2c69: 01 00 00     ld   bc,$0000
2c6c: 3e 01        ld   a,$01
2c6e: 32 67 16     ld   ($1667),a
2c71: d5           push de
2c72: c5           push bc
2c73: cd 2b f5     call $F52B
2c76: c1           pop  bc
2c77: d1           pop  de
2c78: 3c           inc  a
2c79: 28 1a        jr   z,$2C95
2c7b: cd e7 15     call $15E7
2c7e: db 15        in   a,($15)
2c80: bb           cp   e
2c81: 28 ee        jr   z,$2C71
2c83: 5f           ld   e,a
2c84: cd ca 15     call $15CA
2c87: 3c           inc  a
2c88: 28 0b        jr   z,$2C95
2c8a: cd f6 14     call $14F6
2c8d: 3c           inc  a
2c8e: 28 34        jr   z,$2CC4
2c90: 0c           inc  c
2c91: 28 31        jr   z,$2CC4
2c93: 18 dc        jr   $2C71
2c95: d5           push de
2c96: cd 86 14     call $1486
2c99: e6 df        and  $DF
2c9b: d1           pop  de
2c9c: fe 41        cp   $41
2c9e: 28 12        jr   z,$2CB2
2ca0: fe 49        cp   $49
2ca2: 28 05        jr   z,$2CA9
2ca4: cd f3 15     call $15F3
2ca7: 18 c8        jr   $2C71
2ca9: 32 69 16     ld   ($1669),a
2cac: 97           sub  a
2cad: 32 0d e5     ld   ($E50D),a
2cb0: 18 12        jr   $2CC4
2cb2: 97           sub  a
2cb3: cd dd 15     call $15DD
2cb6: 97           sub  a
2cb7: 32 0d e5     ld   ($E50D),a
2cba: 32 67 f0     ld   ($F067),a
2cbd: af           xor  a
2cbe: cd 88 f3     call $F388
2cc1: c3 62 00     jp   $0062
2cc4: 3e 01        ld   a,$01
2cc6: cd dd 15     call $15DD
2cc9: c9           ret
2cca: d5           push de
2ccb: cd 2b f5     call $F52B
2cce: d1           pop  de
2ccf: fe ff        cp   $FF
2cd1: c8           ret  z
2cd2: cd 03 16     call $1603
2cd5: db 15        in   a,($15)
2cd7: bb           cp   e
2cd8: 5f           ld   e,a
2cd9: 20 ef        jr   nz,$2CCA
2cdb: 97           sub  a
2cdc: c9           ret
2cdd: cd ef 12     call $12EF
2ce0: 3a 68 16     ld   a,($1668)
2ce3: 32 67 f0     ld   ($F067),a
2ce6: c9           ret
2ce7: 0b           dec  bc
2ce8: 79           ld   a,c
2ce9: b0           or   b
2cea: c0           ret  nz
2ceb: 3a 67 16     ld   a,($1667)
2cee: 3d           dec  a
2cef: 32 67 16     ld   ($1667),a
2cf2: c0           ret  nz
2cf3: 3e 21        ld   a,$21
2cf5: 32 67 16     ld   ($1667),a
2cf8: d5           push de
2cf9: c5           push bc
2cfa: 21 15 16     ld   hl,$1615
2cfd: cd b1 14     call $14B1
2d00: c1           pop  bc
2d01: d1           pop  de
2d02: c9           ret
2d03: e5           push hl
2d04: d5           push de
2d05: c5           push bc
2d06: 21 00 00     ld   hl,$0000
2d09: 11 00 00     ld   de,$0000
2d0c: 01 00 7d     ld   bc,$7D00
2d0f: ed b0        ldir
2d11: c1           pop  bc
2d12: d1           pop  de
2d13: e1           pop  hl
2d14: c9           ret
2d15: 07           rlca
2d16: 00           nop
2d17: 20 50        jr   nz,$2D69
2d19: 72           ld   (hl),d
2d1a: 69           ld   l,c
2d1b: 6e           ld   l,(hl)
2d1c: 74           ld   (hl),h
2d1d: 65           ld   h,l
2d1e: 72           ld   (hl),d
2d1f: 20 6e        jr   nz,$2D8F
2d21: 6f           ld   l,a
2d22: 74           ld   (hl),h
2d23: 20 72        jr   nz,$2D97
2d25: 65           ld   h,l
2d26: 61           ld   h,c
2d27: 64           ld   h,h
2d28: 79           ld   a,c
2d29: 2e 20        ld   l,$20
2d2b: 20 43        jr   nz,$2D70
2d2d: 6f           ld   l,a
2d2e: 72           ld   (hl),d
2d2f: 72           ld   (hl),d
2d30: 65           ld   h,l
2d31: 63           ld   h,e
2d32: 74           ld   (hl),h
2d33: 20 66        jr   nz,$2D9B
2d35: 61           ld   h,c
2d36: 75           ld   (hl),l
2d37: 6c           ld   l,h
2d38: 74           ld   (hl),h
2d39: 20 6f        jr   nz,$2DAA
2d3b: 72           ld   (hl),d
2d3c: 20 28        jr   nz,$2D66
2d3e: 41           ld   b,c
2d3f: 29           add  hl,hl
2d40: 62           ld   h,d
2d41: 6f           ld   l,a
2d42: 72           ld   (hl),d
2d43: 74           ld   (hl),h
2d44: 2f           cpl
2d45: 28 49        jr   z,$2D90
2d47: 29           add  hl,hl
2d48: 67           ld   h,a
2d49: 6e           ld   l,(hl)
2d4a: 6f           ld   l,a
2d4b: 72           ld   (hl),d
2d4c: 65           ld   h,l
2d4d: 20 6f        jr   nz,$2DBE
2d4f: 75           ld   (hl),l
2d50: 74           ld   (hl),h
2d51: 70           ld   (hl),b
2d52: 75           ld   (hl),l
2d53: 74           ld   (hl),h
2d54: 20 75        jr   nz,$2DCB
2d56: 6e           ld   l,(hl)
2d57: 74           ld   (hl),h
2d58: 69           ld   l,c
2d59: 6c           ld   l,h
2d5a: 20 77        jr   nz,$2DD3
2d5c: 61           ld   h,c
2d5d: 72           ld   (hl),d
2d5e: 6d           ld   l,l
2d5f: 62           ld   h,d
2d60: 6f           ld   l,a
2d61: 6f           ld   l,a
2d62: 74           ld   (hl),h
2d63: 2e 00        ld   l,$00
2d65: 00           nop
2d66: 00           nop
2d67: 00           nop
2d68: 00           nop
2d69: 00           nop
2d6a: f3           di
2d6b: cd 70 16     call $1670
2d6e: fb           ei
2d6f: c9           ret
2d70: 21 00 00     ld   hl,$0000
2d73: 22 8f 19     ld   ($198F),hl
2d76: af           xor  a
2d77: 32 7b f5     ld   ($F57B),a
2d7a: c9           ret
2d7b: f3           di
2d7c: cd 81 16     call $1681
2d7f: fb           ei
2d80: c9           ret
2d81: e5           push hl
2d82: f5           push af
2d83: 3a 7b f5     ld   a,($F57B)
2d86: fe 80        cp   $80
2d88: 28 1d        jr   z,$2DA7
2d8a: 3c           inc  a
2d8b: 32 7b f5     ld   ($F57B),a
2d8e: 21 80 bb     ld   hl,$BB80
2d91: 3a 8f 19     ld   a,($198F)
2d94: 16 00        ld   d,$00
2d96: 5f           ld   e,a
2d97: 19           add  hl,de
2d98: 3c           inc  a
2d99: fe 80        cp   $80
2d9b: 20 02        jr   nz,$2D9F
2d9d: 3e 00        ld   a,$00
2d9f: 32 8f 19     ld   ($198F),a
2da2: f1           pop  af
2da3: 77           ld   (hl),a
2da4: af           xor  a
2da5: 18 03        jr   $2DAA
2da7: f1           pop  af
2da8: 3e ff        ld   a,$FF
2daa: e1           pop  hl
2dab: c9           ret
2dac: 47           ld   b,a
2dad: 3a 7b f5     ld   a,($F57B)
2db0: 80           add  a,b
2db1: fe 80        cp   $80
2db3: 30 0c        jr   nc,$2DC1
2db5: 7e           ld   a,(hl)
2db6: cd 81 16     call $1681
2db9: 23           inc  hl
2dba: 10 f9        djnz $2DB5
2dbc: af           xor  a
2dbd: 18 02        jr   $2DC1
2dbf: 3e ff        ld   a,$FF
2dc1: c9           ret
2dc2: e5           push hl
2dc3: c5           push bc
2dc4: 4f           ld   c,a
2dc5: fe 7f        cp   $7F
2dc7: 38 06        jr   c,$2DCF
2dc9: cd b3 18     call $18B3
2dcc: c3 6f 17     jp   $176F
2dcf: 21 91 19     ld   hl,$1991
2dd2: be           cp   (hl)
2dd3: 20 5d        jr   nz,$2E32
2dd5: 21 8e 19     ld   hl,$198E
2dd8: 7e           ld   a,(hl)
2dd9: cb 4f        bit  1,a
2ddb: 20 22        jr   nz,$2DFF
2ddd: ee 08        xor  $08
2ddf: 77           ld   (hl),a
2de0: e6 08        and  $08
2de2: 06 46        ld   b,$46
2de4: 28 01        jr   z,$2DE7
2de6: 04           inc  b
2de7: 3a 14 98     ld   a,($9814)
2dea: b7           or   a
2deb: 28 0b        jr   z,$2DF8
2ded: 3a 33 27     ld   a,($2733)
2df0: b7           or   a
2df1: 20 05        jr   nz,$2DF8
2df3: 78           ld   a,b
2df4: e6 41        and  $41
2df6: 18 01        jr   $2DF9
2df8: 78           ld   a,b
2df9: cd ea 18     call $18EA
2dfc: c3 6f 17     jp   $176F
2dff: 3a 33 27     ld   a,($2733)
2e02: ee 01        xor  $01
2e04: 32 33 27     ld   ($2733),a
2e07: 3a 14 98     ld   a,($9814)
2e0a: b7           or   a
2e0b: 28 23        jr   z,$2E30
2e0d: 3a 8e 19     ld   a,($198E)
2e10: e6 08        and  $08
2e12: 28 1c        jr   z,$2E30
2e14: 3a 33 27     ld   a,($2733)
2e17: b7           or   a
2e18: 28 0c        jr   z,$2E26
2e1a: 3e 40        ld   a,$40
2e1c: cd ea 18     call $18EA
2e1f: 3e 47        ld   a,$47
2e21: cd ea 18     call $18EA
2e24: 18 0a        jr   $2E30
2e26: 3e 46        ld   a,$46
2e28: cd ea 18     call $18EA
2e2b: 3e 41        ld   a,$41
2e2d: cd ea 18     call $18EA
2e30: 18 3d        jr   $2E6F
2e32: cd 57 18     call $1857
2e35: fe ff        cp   $FF
2e37: 28 36        jr   z,$2E6F
2e39: 3a 8d 19     ld   a,($198D)
2e3c: b7           or   a
2e3d: 28 05        jr   z,$2E44
2e3f: cd 8f 18     call $188F
2e42: 18 30        jr   $2E74
2e44: 3a 31 06     ld   a,($0631)
2e47: b7           or   a
2e48: 20 07        jr   nz,$2E51
2e4a: cd e1 17     call $17E1
2e4d: fe ff        cp   $FF
2e4f: 28 23        jr   z,$2E74
2e51: cd 8f 18     call $188F
2e54: cd 93 17     call $1793
2e57: 06 00        ld   b,$00
2e59: 09           add  hl,bc
2e5a: 7e           ld   a,(hl)
2e5b: b7           or   a
2e5c: 28 16        jr   z,$2E74
2e5e: fe 18        cp   $18
2e60: 20 05        jr   nz,$2E67
2e62: cd 70 16     call $1670
2e65: 3e 18        ld   a,$18
2e67: cd d2 17     call $17D2
2e6a: cd 81 16     call $1681
2e6d: 18 05        jr   $2E74
2e6f: 3e a0        ld   a,$A0
2e71: cd ea 18     call $18EA
2e74: 3e 14        ld   a,$14
2e76: 32 56 12     ld   ($1256),a
2e79: c1           pop  bc
2e7a: e1           pop  hl
2e7b: c9           ret
2e7c: 3e ff        ld   a,$FF
2e7e: 32 57 12     ld   ($1257),a
2e81: 32 59 12     ld   ($1259),a
2e84: 3e 0d        ld   a,$0D
2e86: d3 39        out  ($39),a
2e88: 3e a0        ld   a,$A0
2e8a: cd ea 18     call $18EA
2e8d: 3e 14        ld   a,$14
2e8f: 32 56 12     ld   ($1256),a
2e92: c9           ret
2e93: 21 8e 19     ld   hl,$198E
2e96: 3a 33 27     ld   a,($2733)
2e99: b7           or   a
2e9a: 7e           ld   a,(hl)
2e9b: 28 1b        jr   z,$2EB8
2e9d: cb 5f        bit  3,a
2e9f: 28 17        jr   z,$2EB8
2ea1: cb 57        bit  2,a
2ea3: 20 13        jr   nz,$2EB8
2ea5: f5           push af
2ea6: 79           ld   a,c
2ea7: 21 c7 17     ld   hl,$17C7
2eaa: 01 0b 00     ld   bc,$000B
2ead: ed b1        cpir
2eaf: 4f           ld   c,a
2eb0: 28 05        jr   z,$2EB7
2eb2: f1           pop  af
2eb3: f6 01        or   $01
2eb5: 18 01        jr   $2EB8
2eb7: f1           pop  af
2eb8: e6 07        and  $07
2eba: 87           add  a,a
2ebb: 5f           ld   e,a
2ebc: 16 00        ld   d,$00
2ebe: 21 6b 19     ld   hl,$196B
2ec1: 19           add  hl,de
2ec2: 7e           ld   a,(hl)
2ec3: 23           inc  hl
2ec4: 66           ld   h,(hl)
2ec5: 6f           ld   l,a
2ec6: c9           ret
2ec7: 3c           inc  a
2ec8: 3d           dec  a
2ec9: 3e 3f        ld   a,$3F
2ecb: 5e           ld   e,(hl)
2ecc: 5f           ld   e,a
2ecd: 6e           ld   l,(hl)
2ece: 6f           ld   l,a
2ecf: 41           ld   b,c
2ed0: 74           ld   (hl),h
2ed1: 78           ld   a,b
2ed2: 21 8e 19     ld   hl,$198E
2ed5: cb 5e        bit  3,(hl)
2ed7: c8           ret  z
2ed8: fe 61        cp   $61
2eda: d8           ret  c
2edb: fe 7b        cp   $7B
2edd: d0           ret  nc
2ede: ee 20        xor  $20
2ee0: c9           ret
2ee1: 21 51 0a     ld   hl,$0A51
2ee4: 7e           ld   a,(hl)
2ee5: 23           inc  hl
2ee6: 66           ld   h,(hl)
2ee7: 6f           ld   l,a
2ee8: 11 04 00     ld   de,$0004
2eeb: 3e 23        ld   a,$23
2eed: 47           ld   b,a
2eee: 79           ld   a,c
2eef: be           cp   (hl)
2ef0: 28 05        jr   z,$2EF7
2ef2: 19           add  hl,de
2ef3: 10 f9        djnz $2EEE
2ef5: af           xor  a
2ef6: c9           ret
2ef7: e5           push hl
2ef8: 11 8e 19     ld   de,$198E
2efb: 1a           ld   a,(de)
2efc: e6 07        and  $07
2efe: 57           ld   d,a
2eff: 23           inc  hl
2f00: 7e           ld   a,(hl)
2f01: 32 92 19     ld   ($1992),a
2f04: e6 07        and  $07
2f06: ba           cp   d
2f07: 28 06        jr   z,$2F0F
2f09: e1           pop  hl
2f0a: 11 04 00     ld   de,$0004
2f0d: 18 e3        jr   $2EF2
2f0f: 23           inc  hl
2f10: 5e           ld   e,(hl)
2f11: 23           inc  hl
2f12: 56           ld   d,(hl)
2f13: 21 53 0a     ld   hl,$0A53
2f16: 7e           ld   a,(hl)
2f17: 23           inc  hl
2f18: 66           ld   h,(hl)
2f19: 6f           ld   l,a
2f1a: 19           add  hl,de
2f1b: 7e           ld   a,(hl)
2f1c: cb 7f        bit  7,a
2f1e: 28 e9        jr   z,$2F09
2f20: d1           pop  de
2f21: cb 6f        bit  5,a
2f23: 28 01        jr   z,$2F26
2f25: 3c           inc  a
2f26: e6 1f        and  $1F
2f28: 47           ld   b,a
2f29: 3a 7b f5     ld   a,($F57B)
2f2c: 80           add  a,b
2f2d: fe 80        cp   $80
2f2f: 30 12        jr   nc,$2F43
2f31: 7e           ld   a,(hl)
2f32: f5           push af
2f33: e6 1f        and  $1F
2f35: 23           inc  hl
2f36: cd ac 16     call $16AC
2f39: f1           pop  af
2f3a: cb 6f        bit  5,a
2f3c: 28 05        jr   z,$2F43
2f3e: 3e 0d        ld   a,$0D
2f40: cd 81 16     call $1681
2f43: 3a 92 19     ld   a,($1992)
2f46: cb 7f        bit  7,a
2f48: 28 05        jr   z,$2F4F
2f4a: cd 8f 18     call $188F
2f4d: 18 05        jr   $2F54
2f4f: 3e a0        ld   a,$A0
2f51: cd ea 18     call $18EA
2f54: 3e ff        ld   a,$FF
2f56: c9           ret
2f57: 21 f5 18     ld   hl,$18F5
2f5a: 11 04 00     ld   de,$0004
2f5d: 3e 09        ld   a,$09
2f5f: 47           ld   b,a
2f60: 79           ld   a,c
2f61: be           cp   (hl)
2f62: 28 05        jr   z,$2F69
2f64: 19           add  hl,de
2f65: 10 f9        djnz $2F60
2f67: af           xor  a
2f68: c9           ret
2f69: 11 8e 19     ld   de,$198E
2f6c: 1a           ld   a,(de)
2f6d: e6 07        and  $07
2f6f: 57           ld   d,a
2f70: 23           inc  hl
2f71: 7e           ld   a,(hl)
2f72: e6 07        and  $07
2f74: ba           cp   d
2f75: 28 06        jr   z,$2F7D
2f77: 2b           dec  hl
2f78: 11 04 00     ld   de,$0004
2f7b: 18 e7        jr   $2F64
2f7d: 7e           ld   a,(hl)
2f7e: cb 7f        bit  7,a
2f80: 20 e5        jr   nz,$2F67
2f82: 23           inc  hl
2f83: 7e           ld   a,(hl)
2f84: 23           inc  hl
2f85: 66           ld   h,(hl)
2f86: 6f           ld   l,a
2f87: 11 8c 18     ld   de,$188C
2f8a: d5           push de
2f8b: e9           jp   (hl)
2f8c: 3e ff        ld   a,$FF
2f8e: c9           ret
2f8f: 3a 29 27     ld   a,($2729)
2f92: b7           or   a
2f93: 3e a0        ld   a,$A0
2f95: 28 02        jr   z,$2F99
2f97: 3e a1        ld   a,$A1
2f99: c3 ea 18     jp   $18EA
2f9c: 3e c0        ld   a,$C0
2f9e: c3 ea 18     jp   $18EA
2fa1: 3e c1        ld   a,$C1
2fa3: c3 ea 18     jp   $18EA
2fa6: db 30        in   a,($30)
2fa8: e6 f0        and  $F0
2faa: f5           push af
2fab: cb c7        set  0,a
2fad: d3 18        out  ($18),a
2faf: f1           pop  af
2fb0: d3 18        out  ($18),a
2fb2: c9           ret
2fb3: 21 8e 19     ld   hl,$198E
2fb6: d6 84        sub  $84
2fb8: 28 21        jr   z,$2FDB
2fba: 3d           dec  a
2fbb: 28 1b        jr   z,$2FD8
2fbd: 3d           dec  a
2fbe: 28 1b        jr   z,$2FDB
2fc0: 3d           dec  a
2fc1: 28 15        jr   z,$2FD8
2fc3: d6 03        sub  $03
2fc5: 28 1a        jr   z,$2FE1
2fc7: 3d           dec  a
2fc8: 28 14        jr   z,$2FDE
2fca: 3d           dec  a
2fcb: 28 1a        jr   z,$2FE7
2fcd: 3d           dec  a
2fce: 28 14        jr   z,$2FE4
2fd0: 3d           dec  a
2fd1: 28 0e        jr   z,$2FE1
2fd3: 3d           dec  a
2fd4: 28 08        jr   z,$2FDE
2fd6: af           xor  a
2fd7: c9           ret
2fd8: cb c6        set  0,(hl)
2fda: c9           ret
2fdb: cb 86        res  0,(hl)
2fdd: c9           ret
2fde: cb ce        set  1,(hl)
2fe0: c9           ret
2fe1: cb 8e        res  1,(hl)
2fe3: c9           ret
2fe4: cb d6        set  2,(hl)
2fe6: c9           ret
2fe7: cb 96        res  2,(hl)
2fe9: c9           ret
2fea: f5           push af
2feb: db 12        in   a,($12)
2fed: e6 04        and  $04
2fef: 28 fa        jr   z,$2FEB
2ff1: f1           pop  af
2ff2: d3 10        out  ($10),a
2ff4: c9           ret
2ff5: 0e 02        ld   c,$02
2ff7: 19           add  hl,de
2ff8: 19           add  hl,de
2ff9: 0f           rrca
2ffa: 02           ld   (bc),a
2ffb: 20 19        jr   nz,$3016
2ffd: 1f           rra
2ffe: 82           add  a,d
2fff: 29           add  hl,hl
3000: 19           add  hl,de
3001: 1e 02        ld   e,$02
3003: 2a 19 73     ld   hl,($7319)
3006: 02           ld   (bc),a
3007: 37           scf
3008: 19           add  hl,de
3009: 73           ld   (hl),e
300a: 06 48        ld   b,$48
300c: f5           push af
300d: 72           ld   (hl),d
300e: 02           ld   (bc),a
300f: 46           ld   b,(hl)
3010: 19           add  hl,de
3011: 05           dec  b
3012: 02           ld   (bc),a
3013: 59           ld   e,c
3014: 19           add  hl,de
3015: 1e 04        ld   e,$04
3017: 5f           ld   e,a
3018: 19           add  hl,de
3019: 3a 9a 4f     ld   a,($4F9A)
301c: ee 01        xor  $01
301e: 18 11        jr   $3031
3020: 3a 9a 4f     ld   a,($4F9A)
3023: ee 02        xor  $02
3025: e6 03        and  $03
3027: 18 08        jr   $3031
3029: c9           ret
302a: 3a 9a 4f     ld   a,($4F9A)
302d: ee 04        xor  $04
302f: e6 05        and  $05
3031: 32 9a 4f     ld   ($4F9A),a
3034: c3 59 40     jp   $4059
3037: 3a 66 f0     ld   a,($F066)
303a: e6 3f        and  $3F
303c: c0           ret  nz
303d: 3a 66 f0     ld   a,($F066)
3040: cb ff        set  7,a
3042: 32 66 f0     ld   ($F066),a
3045: c9           ret
3046: 21 66 f0     ld   hl,$F066
3049: cb 46        bit  0,(hl)
304b: c0           ret  nz
304c: 3a c4 4f     ld   a,($4FC4)
304f: b7           or   a
3050: c0           ret  nz
3051: 3a f8 54     ld   a,($54F8)
3054: b7           or   a
3055: c0           ret  nz
3056: cb ce        set  1,(hl)
3058: c9           ret
3059: 21 66 f0     ld   hl,$F066
305c: cb c6        set  0,(hl)
305e: c9           ret
305f: 3a 66 f0     ld   a,($F066)
3062: e6 ff        and  $FF
3064: c0           ret  nz
3065: cb df        set  3,a
3067: 32 66 f0     ld   ($F066),a
306a: c9           ret
306b: 00           nop
306c: bc           cp   h
306d: 80           add  a,b
306e: bc           cp   h
306f: 00           nop
3070: bd           cp   l
3071: 80           add  a,b
3072: bd           cp   l
3073: 00           nop
3074: be           cp   (hl)
3075: 80           add  a,b
3076: be           cp   (hl)
3077: 00           nop
3078: be           cp   (hl)
3079: 80           add  a,b
307a: be           cp   (hl)
307b: e6 07        and  $07
307d: cb 27        sla  a
307f: f6 41        or   $41
3081: d3 10        out  ($10),a
3083: c9           ret
3084: e6 07        and  $07
3086: cb 27        sla  a
3088: f6 40        or   $40
308a: d3 10        out  ($10),a
308c: c9           ret
308d: 00           nop
308e: 00           nop
308f: 00           nop
3090: 00           nop
3091: 42           ld   b,d
3092: 00           nop
3093: 00           nop
3094: 00           nop
3095: 00           nop
3096: 00           nop
3097: 00           nop
3098: 00           nop
3099: 00           nop
309a: 00           nop
309b: 00           nop
309c: 00           nop
309d: 00           nop
309e: 00           nop
309f: 00           nop
30a0: 00           nop
30a1: 00           nop
30a2: 00           nop
30a3: 00           nop
30a4: 00           nop
30a5: 00           nop
30a6: 00           nop
30a7: 00           nop
30a8: 00           nop
30a9: 00           nop
30aa: 00           nop
30ab: 00           nop
30ac: 00           nop
30ad: 00           nop
30ae: 00           nop
30af: 00           nop
30b0: 00           nop
30b1: 00           nop
30b2: 00           nop
30b3: 00           nop
30b4: 00           nop
30b5: 00           nop
30b6: 00           nop
30b7: 00           nop
30b8: 00           nop
30b9: 00           nop
30ba: 00           nop
30bb: 00           nop
30bc: 00           nop
30bd: 00           nop
30be: 00           nop
30bf: 00           nop
30c0: 00           nop
30c1: 00           nop
30c2: 00           nop
30c3: 00           nop
30c4: 00           nop
30c5: 00           nop
30c6: 00           nop
30c7: 00           nop
30c8: 00           nop
30c9: 00           nop
30ca: 00           nop
30cb: 00           nop
30cc: 00           nop
30cd: 00           nop
30ce: 00           nop
30cf: 00           nop
30d0: 00           nop
30d1: 00           nop
30d2: 00           nop
30d3: 00           nop
30d4: 00           nop
30d5: 00           nop
30d6: 00           nop
30d7: 00           nop
30d8: 00           nop
30d9: 00           nop
30da: 00           nop
30db: 00           nop
30dc: 00           nop
30dd: 00           nop
30de: 00           nop
30df: 00           nop
30e0: 00           nop
30e1: 00           nop
30e2: 00           nop
30e3: 00           nop
30e4: 00           nop
30e5: 00           nop
30e6: 00           nop
30e7: 00           nop
30e8: 00           nop
30e9: 00           nop
30ea: 00           nop
30eb: 00           nop
30ec: 00           nop
30ed: 00           nop
30ee: 00           nop
30ef: 00           nop
30f0: 00           nop
30f1: 00           nop
30f2: 00           nop
30f3: 00           nop
30f4: 00           nop
30f5: 00           nop
30f6: 00           nop
30f7: 00           nop
30f8: 00           nop
30f9: 00           nop
30fa: 00           nop
30fb: 00           nop
30fc: 00           nop
30fd: 00           nop
30fe: 00           nop
30ff: 00           nop
3100: 00           nop
3101: 00           nop
3102: 00           nop
3103: 00           nop
3104: 00           nop
3105: 00           nop
3106: 00           nop
3107: 00           nop
3108: 00           nop
3109: 00           nop
310a: 00           nop
310b: 00           nop
310c: 00           nop
310d: 00           nop
310e: 00           nop
310f: 00           nop
3110: 00           nop
3111: 00           nop
3112: 00           nop
3113: 00           nop
3114: 00           nop
3115: 00           nop
3116: 00           nop
3117: 00           nop
3118: 00           nop
3119: 00           nop
311a: 00           nop
311b: 00           nop
311c: 00           nop
311d: 00           nop
311e: 00           nop
311f: 00           nop
3120: 00           nop
3121: 00           nop
3122: 00           nop
3123: 00           nop
3124: 00           nop
3125: 00           nop
3126: 00           nop
3127: 00           nop
3128: 00           nop
3129: 00           nop
312a: 00           nop
312b: 00           nop
312c: 00           nop
312d: 00           nop
312e: 00           nop
312f: 00           nop
3130: 00           nop
3131: 00           nop
3132: 00           nop
3133: 00           nop
3134: 00           nop
3135: 00           nop
3136: 00           nop
3137: 00           nop
3138: 00           nop
3139: 00           nop
313a: 00           nop
313b: 00           nop
313c: 00           nop
313d: 00           nop
313e: 00           nop
313f: 00           nop
3140: 00           nop
3141: 00           nop
3142: 00           nop
3143: 00           nop
3144: 00           nop
3145: 00           nop
3146: 00           nop
3147: 00           nop
3148: 00           nop
3149: 00           nop
314a: 00           nop
314b: 00           nop
314c: 00           nop
314d: 00           nop
314e: 00           nop
314f: 00           nop
3150: 00           nop
3151: 00           nop
3152: 00           nop
3153: 00           nop
3154: 00           nop
3155: 00           nop
3156: 00           nop
3157: 00           nop
3158: 00           nop
3159: 00           nop
315a: 00           nop
315b: 00           nop
315c: 00           nop
315d: 00           nop
315e: 00           nop
315f: 00           nop
3160: 00           nop
3161: 00           nop
3162: 00           nop
3163: 00           nop
3164: 00           nop
3165: 00           nop
3166: 00           nop
3167: 00           nop
3168: 00           nop
3169: 00           nop
316a: 00           nop
316b: 00           nop
316c: 00           nop
316d: 00           nop
316e: 00           nop
316f: 00           nop
3170: 00           nop
3171: 00           nop
3172: 00           nop
3173: 00           nop
3174: 00           nop
3175: 00           nop
3176: 00           nop
3177: 00           nop
3178: 00           nop
3179: 00           nop
317a: 00           nop
317b: 00           nop
317c: 00           nop
317d: 00           nop
317e: 00           nop
317f: 00           nop
3180: 00           nop
3181: 00           nop
3182: 00           nop
3183: 00           nop
3184: 00           nop
3185: 00           nop
3186: 00           nop
3187: 00           nop
3188: 00           nop
3189: 00           nop
318a: 00           nop
318b: 00           nop
318c: 00           nop
318d: 00           nop
318e: 00           nop
318f: 00           nop
3190: 00           nop
3191: 00           nop
3192: 00           nop
3193: 00           nop
3194: 00           nop
3195: 00           nop
3196: 00           nop
3197: 00           nop
3198: 00           nop
3199: 00           nop
319a: 00           nop
319b: 00           nop
319c: 00           nop
319d: 00           nop
319e: 00           nop
319f: 00           nop
31a0: 00           nop
31a1: 00           nop
31a2: 00           nop
31a3: 00           nop
31a4: 00           nop
31a5: 00           nop
31a6: 00           nop
31a7: 00           nop
31a8: 00           nop
31a9: 00           nop
31aa: 00           nop
31ab: 00           nop
31ac: 00           nop
31ad: 00           nop
31ae: 00           nop
31af: 00           nop
31b0: 00           nop
31b1: 00           nop
31b2: 00           nop
31b3: 00           nop
31b4: 00           nop
31b5: 00           nop
31b6: 00           nop
31b7: 00           nop
31b8: 00           nop
31b9: 00           nop
31ba: 00           nop
31bb: 00           nop
31bc: 00           nop
31bd: 00           nop
31be: 00           nop
31bf: 00           nop
31c0: 00           nop
31c1: 00           nop
31c2: 00           nop
31c3: 00           nop
31c4: 00           nop
31c5: 00           nop
31c6: 00           nop
31c7: 00           nop
31c8: 00           nop
31c9: 00           nop
31ca: 00           nop
31cb: 00           nop
31cc: 00           nop
31cd: 00           nop
31ce: 00           nop
31cf: 00           nop
31d0: 00           nop
31d1: 00           nop
31d2: 00           nop
31d3: 00           nop
31d4: 00           nop
31d5: 00           nop
31d6: 00           nop
31d7: 00           nop
31d8: 00           nop
31d9: 00           nop
31da: 00           nop
31db: 00           nop
31dc: 00           nop
31dd: 00           nop
31de: 00           nop
31df: 00           nop
31e0: 00           nop
31e1: 00           nop
31e2: 00           nop
31e3: 00           nop
31e4: 00           nop
31e5: 00           nop
31e6: 00           nop
31e7: 00           nop
31e8: 00           nop
31e9: 00           nop
31ea: 00           nop
31eb: 00           nop
31ec: 00           nop
31ed: 00           nop
31ee: 00           nop
31ef: 00           nop
31f0: 00           nop
31f1: 00           nop
31f2: 00           nop
31f3: 00           nop
31f4: 00           nop
31f5: 00           nop
31f6: 00           nop
31f7: 00           nop
31f8: 00           nop
31f9: 00           nop
31fa: 00           nop
31fb: 00           nop
31fc: 00           nop
31fd: 00           nop
31fe: 00           nop
31ff: 00           nop
3200: 00           nop
3201: 00           nop
3202: 00           nop
3203: 00           nop
3204: 00           nop
3205: 00           nop
3206: 00           nop
3207: 00           nop
3208: 00           nop
3209: 00           nop
320a: 00           nop
320b: 00           nop
320c: 00           nop
320d: 00           nop
320e: 00           nop
320f: 00           nop
3210: 00           nop
3211: 00           nop
3212: 00           nop
3213: 00           nop
3214: 00           nop
3215: 00           nop
3216: 00           nop
3217: 00           nop
3218: 00           nop
3219: 00           nop
321a: 00           nop
321b: 00           nop
321c: 00           nop
321d: 00           nop
321e: 00           nop
321f: 00           nop
3220: 00           nop
3221: 00           nop
3222: 00           nop
3223: 00           nop
3224: 00           nop
3225: 00           nop
3226: 00           nop
3227: 00           nop
3228: 00           nop
3229: 00           nop
322a: 00           nop
322b: 00           nop
322c: 00           nop
322d: 00           nop
322e: 00           nop
322f: 00           nop
3230: 00           nop
3231: 00           nop
3232: 00           nop
3233: 00           nop
3234: 00           nop
3235: 00           nop
3236: 00           nop
3237: 00           nop
3238: 00           nop
3239: 00           nop
323a: 00           nop
323b: 00           nop
323c: 00           nop
323d: 00           nop
323e: 00           nop
323f: 00           nop
3240: 00           nop
3241: 00           nop
3242: 00           nop
3243: 00           nop
3244: 00           nop
3245: 00           nop
3246: 00           nop
3247: 00           nop
3248: 00           nop
3249: 00           nop
324a: 00           nop
324b: 00           nop
324c: 00           nop
324d: 00           nop
324e: 00           nop
324f: 00           nop
3250: 00           nop
3251: 00           nop
3252: 00           nop
3253: 00           nop
3254: 00           nop
3255: 00           nop
3256: 00           nop
3257: 00           nop
3258: 00           nop
3259: 00           nop
325a: 00           nop
325b: 00           nop
325c: 00           nop
325d: 00           nop
325e: 00           nop
325f: 00           nop
3260: 00           nop
3261: 00           nop
3262: 00           nop
3263: 00           nop
3264: 00           nop
3265: 00           nop
3266: 00           nop
3267: 00           nop
3268: 00           nop
3269: 00           nop
326a: 00           nop
326b: 00           nop
326c: 00           nop
326d: 00           nop
326e: 00           nop
326f: 00           nop
3270: 00           nop
3271: 00           nop
3272: 00           nop
3273: 00           nop
3274: 00           nop
3275: 00           nop
3276: 00           nop
3277: 00           nop
3278: 00           nop
3279: 00           nop
327a: 00           nop
327b: 00           nop
327c: 00           nop
327d: 00           nop
327e: 00           nop
327f: 00           nop
3280: 00           nop
3281: 00           nop
3282: 00           nop
3283: 00           nop
3284: 00           nop
3285: 00           nop
3286: 00           nop
3287: 00           nop
3288: 00           nop
3289: 00           nop
328a: 00           nop
328b: 00           nop
328c: 00           nop
328d: 00           nop
328e: 00           nop
328f: 00           nop
3290: 00           nop
3291: 00           nop
3292: 00           nop
3293: 00           nop
3294: 00           nop
3295: 00           nop
3296: 00           nop
3297: 00           nop
3298: 00           nop
3299: 00           nop
329a: 00           nop
329b: 00           nop
329c: 00           nop
329d: 00           nop
329e: 00           nop
329f: 00           nop
32a0: 00           nop
32a1: 00           nop
32a2: 00           nop
32a3: 00           nop
32a4: 00           nop
32a5: 00           nop
32a6: 00           nop
32a7: 00           nop
32a8: 00           nop
32a9: 00           nop
32aa: 00           nop
32ab: 00           nop
32ac: 00           nop
32ad: 00           nop
32ae: 00           nop
32af: 00           nop
32b0: 00           nop
32b1: 00           nop
32b2: 00           nop
32b3: 00           nop
32b4: 00           nop
32b5: 00           nop
32b6: 00           nop
32b7: 00           nop
32b8: 00           nop
32b9: 00           nop
32ba: 00           nop
32bb: 00           nop
32bc: 00           nop
32bd: 00           nop
32be: 00           nop
32bf: 00           nop
32c0: 00           nop
32c1: 00           nop
32c2: 00           nop
32c3: 00           nop
32c4: 00           nop
32c5: 00           nop
32c6: 00           nop
32c7: 00           nop
32c8: 00           nop
32c9: 00           nop
32ca: 00           nop
32cb: 00           nop
32cc: 00           nop
32cd: 00           nop
32ce: 00           nop
32cf: 00           nop
32d0: 00           nop
32d1: 00           nop
32d2: 00           nop
32d3: 00           nop
32d4: 00           nop
32d5: 00           nop
32d6: 00           nop
32d7: 00           nop
32d8: 00           nop
32d9: 00           nop
32da: 00           nop
32db: 00           nop
32dc: 00           nop
32dd: 00           nop
32de: 00           nop
32df: 00           nop
32e0: 00           nop
32e1: 00           nop
32e2: 00           nop
32e3: 00           nop
32e4: 00           nop
32e5: 00           nop
32e6: 00           nop
32e7: 00           nop
32e8: 00           nop
32e9: 00           nop
32ea: 00           nop
32eb: 00           nop
32ec: 00           nop
32ed: 00           nop
32ee: 00           nop
32ef: 00           nop
32f0: 00           nop
32f1: 00           nop
32f2: 00           nop
32f3: 00           nop
32f4: 00           nop
32f5: 00           nop
32f6: 00           nop
32f7: 00           nop
32f8: 00           nop
32f9: 00           nop
32fa: 00           nop
32fb: 00           nop
32fc: 00           nop
32fd: 00           nop
32fe: 00           nop
32ff: 00           nop
3300: 00           nop
3301: 00           nop
3302: 00           nop
3303: 00           nop
3304: 00           nop
3305: 00           nop
3306: 00           nop
3307: 00           nop
3308: 00           nop
3309: 00           nop
330a: 00           nop
330b: 00           nop
330c: 00           nop
330d: 00           nop
330e: 00           nop
330f: 00           nop
3310: 00           nop
3311: 00           nop
3312: 00           nop
3313: 00           nop
3314: 00           nop
3315: 00           nop
3316: 00           nop
3317: 00           nop
3318: 00           nop
3319: 00           nop
331a: 00           nop
331b: 00           nop
331c: 00           nop
331d: 00           nop
331e: 00           nop
331f: 00           nop
3320: 00           nop
3321: 00           nop
3322: 00           nop
3323: 00           nop
3324: 00           nop
3325: 00           nop
3326: 00           nop
3327: 00           nop
3328: 00           nop
3329: 00           nop
332a: 00           nop
332b: 00           nop
332c: 00           nop
332d: 00           nop
332e: 00           nop
332f: 00           nop
3330: 00           nop
3331: 00           nop
3332: 00           nop
3333: 00           nop
3334: 00           nop
3335: 00           nop
3336: 00           nop
3337: 00           nop
3338: 00           nop
3339: 00           nop
333a: 00           nop
333b: 00           nop
333c: 00           nop
333d: 00           nop
333e: 00           nop
333f: 00           nop
3340: 00           nop
3341: 00           nop
3342: 00           nop
3343: 00           nop
3344: 00           nop
3345: 00           nop
3346: 00           nop
3347: 00           nop
3348: 00           nop
3349: 00           nop
334a: 00           nop
334b: 00           nop
334c: 00           nop
334d: 00           nop
334e: 00           nop
334f: 00           nop
3350: 00           nop
3351: 00           nop
3352: 00           nop
3353: 00           nop
3354: 00           nop
3355: 00           nop
3356: 00           nop
3357: 00           nop
3358: 00           nop
3359: 00           nop
335a: 00           nop
335b: 00           nop
335c: 00           nop
335d: 00           nop
335e: 00           nop
335f: 00           nop
3360: 00           nop
3361: 00           nop
3362: 00           nop
3363: 00           nop
3364: 00           nop
3365: 00           nop
3366: 00           nop
3367: 00           nop
3368: 00           nop
3369: 00           nop
336a: 00           nop
336b: 00           nop
336c: 00           nop
336d: 00           nop
336e: 00           nop
336f: 00           nop
3370: 00           nop
3371: 00           nop
3372: 00           nop
3373: 00           nop
3374: 00           nop
3375: 00           nop
3376: 00           nop
3377: 00           nop
3378: 00           nop
3379: 00           nop
337a: 00           nop
337b: 00           nop
337c: 00           nop
337d: 00           nop
337e: 00           nop
337f: 00           nop
3380: 00           nop
3381: 00           nop
3382: 00           nop
3383: 00           nop
3384: 00           nop
3385: 00           nop
3386: 00           nop
3387: 00           nop
3388: 00           nop
3389: 00           nop
338a: 00           nop
338b: 00           nop
338c: 00           nop
338d: 00           nop
338e: 00           nop
338f: 00           nop
3390: 00           nop
3391: 00           nop
3392: 00           nop
3393: 00           nop
3394: 00           nop
3395: 00           nop
3396: 00           nop
3397: 00           nop
3398: 00           nop
3399: 00           nop
339a: 00           nop
339b: 00           nop
339c: 00           nop
339d: 00           nop
339e: 00           nop
339f: 00           nop
33a0: 00           nop
33a1: 00           nop
33a2: 00           nop
33a3: 00           nop
33a4: 00           nop
33a5: 00           nop
33a6: 00           nop
33a7: 00           nop
33a8: 00           nop
33a9: 00           nop
33aa: 00           nop
33ab: 00           nop
33ac: 00           nop
33ad: 00           nop
33ae: 00           nop
33af: 00           nop
33b0: 00           nop
33b1: 00           nop
33b2: 00           nop
33b3: 00           nop
33b4: 00           nop
33b5: 00           nop
33b6: 00           nop
33b7: 00           nop
33b8: 00           nop
33b9: 00           nop
33ba: 00           nop
33bb: 00           nop
33bc: 00           nop
33bd: 00           nop
33be: 00           nop
33bf: 00           nop
33c0: 00           nop
33c1: 00           nop
33c2: 00           nop
33c3: 00           nop
33c4: 00           nop
33c5: 00           nop
33c6: 00           nop
33c7: 00           nop
33c8: 00           nop
33c9: 00           nop
33ca: 00           nop
33cb: 00           nop
33cc: 00           nop
33cd: 00           nop
33ce: 00           nop
33cf: 00           nop
33d0: 00           nop
33d1: 00           nop
33d2: 00           nop
33d3: 00           nop
33d4: 00           nop
33d5: 00           nop
33d6: 00           nop
33d7: 00           nop
33d8: 00           nop
33d9: 00           nop
33da: 00           nop
33db: 00           nop
33dc: 00           nop
33dd: 00           nop
33de: 00           nop
33df: 00           nop
33e0: 00           nop
33e1: 00           nop
33e2: 00           nop
33e3: 00           nop
33e4: 00           nop
33e5: 00           nop
33e6: 00           nop
33e7: 00           nop
33e8: 00           nop
33e9: 00           nop
33ea: 00           nop
33eb: 00           nop
33ec: 00           nop
33ed: 00           nop
33ee: 00           nop
33ef: 00           nop
33f0: 00           nop
33f1: 00           nop
33f2: 00           nop
33f3: 00           nop
33f4: 00           nop
33f5: 00           nop
33f6: 00           nop
33f7: 00           nop
33f8: 00           nop
33f9: 00           nop
33fa: 00           nop
33fb: 00           nop
33fc: 00           nop
33fd: 00           nop
33fe: 00           nop
33ff: 00           nop
3400: 00           nop
3401: 00           nop
3402: 00           nop
3403: 00           nop
3404: 00           nop
3405: 00           nop
3406: 00           nop
3407: 00           nop
3408: 00           nop
3409: 00           nop
340a: 00           nop
340b: 00           nop
340c: 00           nop
340d: 00           nop
340e: 00           nop
340f: 00           nop
3410: 00           nop
3411: 00           nop
3412: 00           nop
3413: 00           nop
3414: 00           nop
3415: 00           nop
3416: 00           nop
3417: 00           nop
3418: 00           nop
3419: 00           nop
341a: 00           nop
341b: 00           nop
341c: 00           nop
341d: 00           nop
341e: 00           nop
341f: 00           nop
3420: 00           nop
3421: 00           nop
3422: 00           nop
3423: 00           nop
3424: 00           nop
3425: 00           nop
3426: 00           nop
3427: 00           nop
3428: 00           nop
3429: 00           nop
342a: 00           nop
342b: 00           nop
342c: 00           nop
342d: 00           nop
342e: 00           nop
342f: 00           nop
3430: 00           nop
3431: 00           nop
3432: 00           nop
3433: 00           nop
3434: 00           nop
3435: 00           nop
3436: 00           nop
3437: 00           nop
3438: 00           nop
3439: 00           nop
343a: 00           nop
343b: 00           nop
343c: 00           nop
343d: 00           nop
343e: 00           nop
343f: 00           nop
3440: 00           nop
3441: 00           nop
3442: 00           nop
3443: 00           nop
3444: 00           nop
3445: 00           nop
3446: 00           nop
3447: 00           nop
3448: 00           nop
3449: 00           nop
344a: 00           nop
344b: 00           nop
344c: 00           nop
344d: 00           nop
344e: 00           nop
344f: 00           nop
3450: 00           nop
3451: 00           nop
3452: 00           nop
3453: 00           nop
3454: 00           nop
3455: 00           nop
3456: 00           nop
3457: 00           nop
3458: 00           nop
3459: 00           nop
345a: 00           nop
345b: 00           nop
345c: 00           nop
345d: 00           nop
345e: 00           nop
345f: 00           nop
3460: 00           nop
3461: 00           nop
3462: 00           nop
3463: 00           nop
3464: 00           nop
3465: 00           nop
3466: 00           nop
3467: 00           nop
3468: 00           nop
3469: 00           nop
346a: 00           nop
346b: 00           nop
346c: 00           nop
346d: 00           nop
346e: 00           nop
346f: 00           nop
3470: 00           nop
3471: 00           nop
3472: 00           nop
3473: 00           nop
3474: 00           nop
3475: 00           nop
3476: 00           nop
3477: 00           nop
3478: 00           nop
3479: 00           nop
347a: 00           nop
347b: 00           nop
347c: 00           nop
347d: 00           nop
347e: 00           nop
347f: 00           nop
3480: 00           nop
3481: 00           nop
3482: 00           nop
3483: 00           nop
3484: 00           nop
3485: 00           nop
3486: 00           nop
3487: 00           nop
3488: 00           nop
3489: 00           nop
348a: 00           nop
348b: 00           nop
348c: 00           nop
348d: 00           nop
348e: 00           nop
348f: 00           nop
3490: 00           nop
3491: 00           nop
3492: 00           nop
3493: 00           nop
3494: 00           nop
3495: 00           nop
3496: 00           nop
3497: 00           nop
3498: 00           nop
3499: 00           nop
349a: 00           nop
349b: 00           nop
349c: 00           nop
349d: 00           nop
349e: 00           nop
349f: 00           nop
34a0: 00           nop
34a1: 00           nop
34a2: 00           nop
34a3: 00           nop
34a4: 00           nop
34a5: 00           nop
34a6: 00           nop
34a7: 00           nop
34a8: 00           nop
34a9: 00           nop
34aa: 00           nop
34ab: 00           nop
34ac: 00           nop
34ad: 00           nop
34ae: 00           nop
34af: 00           nop
34b0: 00           nop
34b1: 00           nop
34b2: 00           nop
34b3: 00           nop
34b4: 00           nop
34b5: 00           nop
34b6: 00           nop
34b7: 00           nop
34b8: 00           nop
34b9: 00           nop
34ba: 00           nop
34bb: 00           nop
34bc: 00           nop
34bd: 00           nop
34be: 00           nop
34bf: 00           nop
34c0: 00           nop
34c1: 00           nop
34c2: 00           nop
34c3: 00           nop
34c4: 00           nop
34c5: 00           nop
34c6: 00           nop
34c7: 00           nop
34c8: 00           nop
34c9: 00           nop
34ca: 00           nop
34cb: 00           nop
34cc: 00           nop
34cd: 00           nop
34ce: 00           nop
34cf: 00           nop
34d0: 00           nop
34d1: 00           nop
34d2: 00           nop
34d3: 00           nop
34d4: 00           nop
34d5: 00           nop
34d6: 00           nop
34d7: 00           nop
34d8: 00           nop
34d9: 00           nop
34da: 00           nop
34db: 00           nop
34dc: 00           nop
34dd: 00           nop
34de: 00           nop
34df: 00           nop
34e0: 00           nop
34e1: 00           nop
34e2: 00           nop
34e3: 00           nop
34e4: 00           nop
34e5: 00           nop
34e6: 00           nop
34e7: 00           nop
34e8: 00           nop
34e9: 00           nop
34ea: 00           nop
34eb: 00           nop
34ec: 00           nop
34ed: 00           nop
34ee: 00           nop
34ef: 00           nop
34f0: 00           nop
34f1: 00           nop
34f2: 00           nop
34f3: 00           nop
34f4: 00           nop
34f5: 00           nop
34f6: 00           nop
34f7: 00           nop
34f8: 00           nop
34f9: 00           nop
34fa: 00           nop
34fb: 00           nop
34fc: 00           nop
34fd: 00           nop
34fe: 00           nop
34ff: 00           nop
3500: 00           nop
3501: 00           nop
3502: 00           nop
3503: 00           nop
3504: 00           nop
3505: 00           nop
3506: 00           nop
3507: 00           nop
3508: 00           nop
3509: 00           nop
350a: 00           nop
350b: 00           nop
350c: 00           nop
350d: 00           nop
350e: 00           nop
350f: 00           nop
3510: 00           nop
3511: 00           nop
3512: 00           nop
3513: 00           nop
3514: 00           nop
3515: 00           nop
3516: 00           nop
3517: 00           nop
3518: 00           nop
3519: 00           nop
351a: 00           nop
351b: 00           nop
351c: 00           nop
351d: 00           nop
351e: 00           nop
351f: 00           nop
3520: 00           nop
3521: 00           nop
3522: 00           nop
3523: 00           nop
3524: 00           nop
3525: 00           nop
3526: 00           nop
3527: 00           nop
3528: 00           nop
3529: 00           nop
352a: 00           nop
352b: 00           nop
352c: 00           nop
352d: 00           nop
352e: 00           nop
352f: 00           nop
3530: 00           nop
3531: 00           nop
3532: 00           nop
3533: 00           nop
3534: 00           nop
3535: 00           nop
3536: 00           nop
3537: 00           nop
3538: 00           nop
3539: 00           nop
353a: 00           nop
353b: 00           nop
353c: 00           nop
353d: 00           nop
353e: 00           nop
353f: 00           nop
3540: 00           nop
3541: 00           nop
3542: 00           nop
3543: 00           nop
3544: 00           nop
3545: 00           nop
3546: 00           nop
3547: 00           nop
3548: 00           nop
3549: 00           nop
354a: 00           nop
354b: 00           nop
354c: 00           nop
354d: 00           nop
354e: 00           nop
354f: 00           nop
3550: 00           nop
3551: 00           nop
3552: 00           nop
3553: 00           nop
3554: 00           nop
3555: 00           nop
3556: 00           nop
3557: 00           nop
3558: 00           nop
3559: 00           nop
355a: 00           nop
355b: 00           nop
355c: 00           nop
355d: 00           nop
355e: 00           nop
355f: 00           nop
3560: 00           nop
3561: 00           nop
3562: 00           nop
3563: 00           nop
3564: 00           nop
3565: 00           nop
3566: 00           nop
3567: 00           nop
3568: 00           nop
3569: 00           nop
356a: 00           nop
356b: 00           nop
356c: 00           nop
356d: 00           nop
356e: 00           nop
356f: 00           nop
3570: 00           nop
3571: 00           nop
3572: 00           nop
3573: 00           nop
3574: 00           nop
3575: 00           nop
3576: 00           nop
3577: 00           nop
3578: 00           nop
3579: 00           nop
357a: 00           nop
357b: 00           nop
357c: 00           nop
357d: 00           nop
357e: 00           nop
357f: 00           nop
3580: 00           nop
3581: 00           nop
3582: 00           nop
3583: 00           nop
3584: 00           nop
3585: 00           nop
3586: 00           nop
3587: 00           nop
3588: 00           nop
3589: 00           nop
358a: 00           nop
358b: 00           nop
358c: 00           nop
358d: 00           nop
358e: 00           nop
358f: 00           nop
3590: 00           nop
3591: 00           nop
3592: 00           nop
3593: 00           nop
3594: 00           nop
3595: 00           nop
3596: 00           nop
3597: 00           nop
3598: 00           nop
3599: 00           nop
359a: 00           nop
359b: 00           nop
359c: 00           nop
359d: 00           nop
359e: 00           nop
359f: 00           nop
35a0: 00           nop
35a1: 00           nop
35a2: 00           nop
35a3: 00           nop
35a4: 00           nop
35a5: 00           nop
35a6: 00           nop
35a7: 00           nop
35a8: 00           nop
35a9: 00           nop
35aa: 00           nop
35ab: 00           nop
35ac: 00           nop
35ad: 00           nop
35ae: 00           nop
35af: 00           nop
35b0: 00           nop
35b1: 00           nop
35b2: 00           nop
35b3: 00           nop
35b4: 00           nop
35b5: 00           nop
35b6: 00           nop
35b7: 00           nop
35b8: 00           nop
35b9: 00           nop
35ba: 00           nop
35bb: 00           nop
35bc: 00           nop
35bd: 00           nop
35be: 00           nop
35bf: 00           nop
35c0: 00           nop
35c1: 00           nop
35c2: 00           nop
35c3: 00           nop
35c4: 00           nop
35c5: 00           nop
35c6: 00           nop
35c7: 00           nop
35c8: 00           nop
35c9: 00           nop
35ca: 00           nop
35cb: 00           nop
35cc: 00           nop
35cd: 00           nop
35ce: 00           nop
35cf: 00           nop
35d0: 00           nop
35d1: 00           nop
35d2: 00           nop
35d3: 00           nop
35d4: 00           nop
35d5: 00           nop
35d6: 00           nop
35d7: 00           nop
35d8: 00           nop
35d9: 00           nop
35da: 00           nop
35db: 00           nop
35dc: 00           nop
35dd: 00           nop
35de: 00           nop
35df: 00           nop
35e0: 00           nop
35e1: 00           nop
35e2: 00           nop
35e3: 00           nop
35e4: 00           nop
35e5: 00           nop
35e6: 00           nop
35e7: 00           nop
35e8: 00           nop
35e9: 00           nop
35ea: 00           nop
35eb: 00           nop
35ec: 00           nop
35ed: 00           nop
35ee: 00           nop
35ef: 00           nop
35f0: 00           nop
35f1: 00           nop
35f2: 00           nop
35f3: 00           nop
35f4: 00           nop
35f5: 00           nop
35f6: 00           nop
35f7: 00           nop
35f8: 00           nop
35f9: 00           nop
35fa: 00           nop
35fb: 00           nop
35fc: 00           nop
35fd: 00           nop
35fe: 00           nop
35ff: 00           nop
3600: 00           nop
3601: 00           nop
3602: 00           nop
3603: 00           nop
3604: 00           nop
3605: 00           nop
3606: 00           nop
3607: 00           nop
3608: 00           nop
3609: 00           nop
360a: 00           nop
360b: 00           nop
360c: 00           nop
360d: 00           nop
360e: 00           nop
360f: 00           nop
3610: 00           nop
3611: 00           nop
3612: 00           nop
3613: 00           nop
3614: 00           nop
3615: 00           nop
3616: 00           nop
3617: 00           nop
3618: 00           nop
3619: 00           nop
361a: 00           nop
361b: 00           nop
361c: 00           nop
361d: 00           nop
361e: 00           nop
361f: 00           nop
3620: 00           nop
3621: 00           nop
3622: 00           nop
3623: 00           nop
3624: 00           nop
3625: 00           nop
3626: 00           nop
3627: 00           nop
3628: 00           nop
3629: 00           nop
362a: 00           nop
362b: 00           nop
362c: 00           nop
362d: 00           nop
362e: 00           nop
362f: 00           nop
3630: 00           nop
3631: 00           nop
3632: 00           nop
3633: 00           nop
3634: 00           nop
3635: 00           nop
3636: 00           nop
3637: 00           nop
3638: 00           nop
3639: 00           nop
363a: 00           nop
363b: 00           nop
363c: 00           nop
363d: 00           nop
363e: 00           nop
363f: 00           nop
3640: 00           nop
3641: 00           nop
3642: 00           nop
3643: 00           nop
3644: 00           nop
3645: 00           nop
3646: 00           nop
3647: 00           nop
3648: 00           nop
3649: 00           nop
364a: 00           nop
364b: 00           nop
364c: 00           nop
364d: 00           nop
364e: 00           nop
364f: 00           nop
3650: 00           nop
3651: 00           nop
3652: 00           nop
3653: 00           nop
3654: 00           nop
3655: 00           nop
3656: 00           nop
3657: 00           nop
3658: 00           nop
3659: 00           nop
365a: 00           nop
365b: 00           nop
365c: 00           nop
365d: 00           nop
365e: 00           nop
365f: 00           nop
3660: 00           nop
3661: 00           nop
3662: 00           nop
3663: 00           nop
3664: 00           nop
3665: 00           nop
3666: 00           nop
3667: 00           nop
3668: 00           nop
3669: 00           nop
366a: 00           nop
366b: 00           nop
366c: 00           nop
366d: 00           nop
366e: 00           nop
366f: 00           nop
3670: 00           nop
3671: 00           nop
3672: 00           nop
3673: 00           nop
3674: 00           nop
3675: 00           nop
3676: 00           nop
3677: 00           nop
3678: 00           nop
3679: 00           nop
367a: 00           nop
367b: 00           nop
367c: 00           nop
367d: 00           nop
367e: 00           nop
367f: 00           nop
3680: 00           nop
3681: 00           nop
3682: 00           nop
3683: 00           nop
3684: 00           nop
3685: 00           nop
3686: 00           nop
3687: 00           nop
3688: 00           nop
3689: 00           nop
368a: 00           nop
368b: 00           nop
368c: 00           nop
368d: 00           nop
368e: 00           nop
368f: 00           nop
3690: 00           nop
3691: 00           nop
3692: 00           nop
3693: 00           nop
3694: 00           nop
3695: 00           nop
3696: 00           nop
3697: 00           nop
3698: 00           nop
3699: 00           nop
369a: 00           nop
369b: 00           nop
369c: 00           nop
369d: 00           nop
369e: 00           nop
369f: 00           nop
36a0: 00           nop
36a1: 00           nop
36a2: 00           nop
36a3: 00           nop
36a4: 00           nop
36a5: 00           nop
36a6: 00           nop
36a7: 00           nop
36a8: 00           nop
36a9: 00           nop
36aa: 00           nop
36ab: 00           nop
36ac: 00           nop
36ad: 00           nop
36ae: 00           nop
36af: 00           nop
36b0: 00           nop
36b1: 00           nop
36b2: 00           nop
36b3: 00           nop
36b4: 00           nop
36b5: 00           nop
36b6: 00           nop
36b7: 00           nop
36b8: 00           nop
36b9: 00           nop
36ba: 00           nop
36bb: 00           nop
36bc: 00           nop
36bd: 00           nop
36be: 00           nop
36bf: 00           nop
36c0: 00           nop
36c1: 00           nop
36c2: 00           nop
36c3: 00           nop
36c4: 00           nop
36c5: 00           nop
36c6: 00           nop
36c7: 00           nop
36c8: 00           nop
36c9: 00           nop
36ca: 00           nop
36cb: 00           nop
36cc: 00           nop
36cd: 00           nop
36ce: 00           nop
36cf: 00           nop
36d0: 00           nop
36d1: 00           nop
36d2: 00           nop
36d3: 00           nop
36d4: 00           nop
36d5: 00           nop
36d6: 00           nop
36d7: 00           nop
36d8: 00           nop
36d9: 00           nop
36da: 00           nop
36db: 00           nop
36dc: 00           nop
36dd: 00           nop
36de: 00           nop
36df: 00           nop
36e0: 00           nop
36e1: 00           nop
36e2: 00           nop
36e3: 00           nop
36e4: 00           nop
36e5: 00           nop
36e6: 00           nop
36e7: 00           nop
36e8: 00           nop
36e9: 00           nop
36ea: 00           nop
36eb: 00           nop
36ec: 00           nop
36ed: 00           nop
36ee: 00           nop
36ef: 00           nop
36f0: 00           nop
36f1: 00           nop
36f2: 00           nop
36f3: 00           nop
36f4: 00           nop
36f5: 00           nop
36f6: 00           nop
36f7: 00           nop
36f8: 00           nop
36f9: 00           nop
36fa: 00           nop
36fb: 00           nop
36fc: 00           nop
36fd: 00           nop
36fe: 00           nop
36ff: 00           nop
3700: 00           nop
3701: 00           nop
3702: 00           nop
3703: 00           nop
3704: 00           nop
3705: 00           nop
3706: 00           nop
3707: 00           nop
3708: 00           nop
3709: 00           nop
370a: 00           nop
370b: 00           nop
370c: 00           nop
370d: 00           nop
370e: 00           nop
370f: 00           nop
3710: 00           nop
3711: 00           nop
3712: 00           nop
3713: 00           nop
3714: 00           nop
3715: 00           nop
3716: 00           nop
3717: 00           nop
3718: 00           nop
3719: 00           nop
371a: 00           nop
371b: 00           nop
371c: 00           nop
371d: 00           nop
371e: 00           nop
371f: 00           nop
3720: 00           nop
3721: 00           nop
3722: 00           nop
3723: 00           nop
3724: 00           nop
3725: 00           nop
3726: 00           nop
3727: 00           nop
3728: 00           nop
3729: 00           nop
372a: 00           nop
372b: 00           nop
372c: 00           nop
372d: 00           nop
372e: 00           nop
372f: 00           nop
3730: 00           nop
3731: 00           nop
3732: 00           nop
3733: 00           nop
3734: 00           nop
3735: 00           nop
3736: 00           nop
3737: 00           nop
3738: 00           nop
3739: 00           nop
373a: 00           nop
373b: 00           nop
373c: 00           nop
373d: 00           nop
373e: 00           nop
373f: 00           nop
3740: 00           nop
3741: 00           nop
3742: 00           nop
3743: 00           nop
3744: 00           nop
3745: 00           nop
3746: 00           nop
3747: 00           nop
3748: 00           nop
3749: 00           nop
374a: 00           nop
374b: 00           nop
374c: 00           nop
374d: 00           nop
374e: 00           nop
374f: 00           nop
3750: 00           nop
3751: 00           nop
3752: 00           nop
3753: 00           nop
3754: 00           nop
3755: 00           nop
3756: 00           nop
3757: 00           nop
3758: 00           nop
3759: 00           nop
375a: 00           nop
375b: 00           nop
375c: 00           nop
375d: 00           nop
375e: 00           nop
375f: 00           nop
3760: 00           nop
3761: 00           nop
3762: 00           nop
3763: 00           nop
3764: 00           nop
3765: 00           nop
3766: 00           nop
3767: 00           nop
3768: 00           nop
3769: 00           nop
376a: 00           nop
376b: 00           nop
376c: 00           nop
376d: 00           nop
376e: 00           nop
376f: 00           nop
3770: 00           nop
3771: 00           nop
3772: 00           nop
3773: 00           nop
3774: 00           nop
3775: 00           nop
3776: 00           nop
3777: 00           nop
3778: 00           nop
3779: 00           nop
377a: 00           nop
377b: 00           nop
377c: 00           nop
377d: 00           nop
377e: 00           nop
377f: 00           nop
3780: 00           nop
3781: 00           nop
3782: 00           nop
3783: 00           nop
3784: 00           nop
3785: 00           nop
3786: 00           nop
3787: 00           nop
3788: 00           nop
3789: 00           nop
378a: 00           nop
378b: 00           nop
378c: 00           nop
378d: 00           nop
378e: 00           nop
378f: 00           nop
3790: 00           nop
3791: 00           nop
3792: 00           nop
3793: 00           nop
3794: 00           nop
3795: 00           nop
3796: 00           nop
3797: 00           nop
3798: 00           nop
3799: 00           nop
379a: 00           nop
379b: 00           nop
379c: 00           nop
379d: 00           nop
379e: 00           nop
379f: 00           nop
37a0: 00           nop
37a1: 00           nop
37a2: 00           nop
37a3: 00           nop
37a4: 00           nop
37a5: 00           nop
37a6: 00           nop
37a7: 00           nop
37a8: 00           nop
37a9: 00           nop
37aa: 00           nop
37ab: 00           nop
37ac: 00           nop
37ad: 00           nop
37ae: 00           nop
37af: 00           nop
37b0: 00           nop
37b1: 00           nop
37b2: 00           nop
37b3: 00           nop
37b4: 00           nop
37b5: 00           nop
37b6: 00           nop
37b7: 00           nop
37b8: 00           nop
37b9: 00           nop
37ba: 00           nop
37bb: 00           nop
37bc: 00           nop
37bd: 00           nop
37be: 00           nop
37bf: 00           nop
37c0: 00           nop
37c1: 00           nop
37c2: 00           nop
37c3: 00           nop
37c4: 00           nop
37c5: 00           nop
37c6: 00           nop
37c7: 00           nop
37c8: 00           nop
37c9: 00           nop
37ca: 00           nop
37cb: 00           nop
37cc: 00           nop
37cd: 00           nop
37ce: 00           nop
37cf: 00           nop
37d0: 00           nop
37d1: 00           nop
37d2: 00           nop
37d3: 00           nop
37d4: 00           nop
37d5: 00           nop
37d6: 00           nop
37d7: 00           nop
37d8: 00           nop
37d9: 00           nop
37da: 00           nop
37db: 00           nop
37dc: 00           nop
37dd: 00           nop
37de: 00           nop
37df: 00           nop
37e0: 00           nop
37e1: 00           nop
37e2: 00           nop
37e3: 00           nop
37e4: 00           nop
37e5: 00           nop
37e6: 00           nop
37e7: 00           nop
37e8: 00           nop
37e9: 00           nop
37ea: 00           nop
37eb: 00           nop
37ec: 00           nop
37ed: 00           nop
37ee: 00           nop
37ef: 00           nop
37f0: 00           nop
37f1: 00           nop
37f2: 00           nop
37f3: 00           nop
37f4: 00           nop
37f5: 00           nop
37f6: 00           nop
37f7: 00           nop
37f8: 00           nop
37f9: 00           nop
37fa: 00           nop
37fb: 00           nop
37fc: 00           nop
37fd: 00           nop
37fe: 00           nop
37ff: 00           nop
3800: 00           nop
3801: 00           nop
3802: 00           nop
3803: 00           nop
3804: 00           nop
3805: 00           nop
3806: 00           nop
3807: 00           nop
3808: 00           nop
3809: 00           nop
380a: 00           nop
380b: 00           nop
380c: 00           nop
380d: 00           nop
380e: 00           nop
380f: 00           nop
3810: 00           nop
3811: 00           nop
3812: 00           nop
3813: 00           nop
3814: 00           nop
3815: 00           nop
3816: 00           nop
3817: 00           nop
3818: 00           nop
3819: 00           nop
381a: 00           nop
381b: 00           nop
381c: 00           nop
381d: 00           nop
381e: 00           nop
381f: 00           nop
3820: 00           nop
3821: 00           nop
3822: 00           nop
3823: 00           nop
3824: 00           nop
3825: 00           nop
3826: 00           nop
3827: 00           nop
3828: 00           nop
3829: 00           nop
382a: 00           nop
382b: 00           nop
382c: 00           nop
382d: 00           nop
382e: 00           nop
382f: 00           nop
3830: 00           nop
3831: 00           nop
3832: 00           nop
3833: 00           nop
3834: 00           nop
3835: 00           nop
3836: 00           nop
3837: 00           nop
3838: 00           nop
3839: 00           nop
383a: 00           nop
383b: 00           nop
383c: 00           nop
383d: 00           nop
383e: 00           nop
383f: 00           nop
3840: 00           nop
3841: 00           nop
3842: 00           nop
3843: 00           nop
3844: 00           nop
3845: 00           nop
3846: 00           nop
3847: 00           nop
3848: 00           nop
3849: 00           nop
384a: 00           nop
384b: 00           nop
384c: 00           nop
384d: 00           nop
384e: 00           nop
384f: 00           nop
3850: 00           nop
3851: 00           nop
3852: 00           nop
3853: 00           nop
3854: 00           nop
3855: 00           nop
3856: 00           nop
3857: 00           nop
3858: 00           nop
3859: 00           nop
385a: 00           nop
385b: 00           nop
385c: 00           nop
385d: 00           nop
385e: 00           nop
385f: 00           nop
3860: 00           nop
3861: 00           nop
3862: 00           nop
3863: 00           nop
3864: 00           nop
3865: 00           nop
3866: 00           nop
3867: 00           nop
3868: 00           nop
3869: 00           nop
386a: 00           nop
386b: 00           nop
386c: 00           nop
386d: 00           nop
386e: 00           nop
386f: 00           nop
3870: 00           nop
3871: 00           nop
3872: 00           nop
3873: 00           nop
3874: 00           nop
3875: 00           nop
3876: 00           nop
3877: 00           nop
3878: 00           nop
3879: 00           nop
387a: 00           nop
387b: 00           nop
387c: 00           nop
387d: 00           nop
387e: 00           nop
387f: 00           nop
3880: 00           nop
3881: 00           nop
3882: 00           nop
3883: 00           nop
3884: 00           nop
3885: 00           nop
3886: 00           nop
3887: 00           nop
3888: 00           nop
3889: 00           nop
388a: 00           nop
388b: 00           nop
388c: 00           nop
388d: 00           nop
388e: 00           nop
388f: 00           nop
3890: 00           nop
3891: 00           nop
3892: 00           nop
3893: 00           nop
3894: 00           nop
3895: 00           nop
3896: 00           nop
3897: 00           nop
3898: 00           nop
3899: 00           nop
389a: 00           nop
389b: 00           nop
389c: 00           nop
389d: 00           nop
389e: 00           nop
389f: 00           nop
38a0: 00           nop
38a1: 00           nop
38a2: 00           nop
38a3: 00           nop
38a4: 00           nop
38a5: 00           nop
38a6: 00           nop
38a7: 00           nop
38a8: 00           nop
38a9: 00           nop
38aa: 00           nop
38ab: 00           nop
38ac: 00           nop
38ad: 00           nop
38ae: 00           nop
38af: 00           nop
38b0: 00           nop
38b1: 00           nop
38b2: 00           nop
38b3: 00           nop
38b4: 00           nop
38b5: 00           nop
38b6: 00           nop
38b7: 00           nop
38b8: 00           nop
38b9: 00           nop
38ba: 00           nop
38bb: 00           nop
38bc: 00           nop
38bd: 00           nop
38be: 00           nop
38bf: 00           nop
38c0: 00           nop
38c1: 00           nop
38c2: 00           nop
38c3: 00           nop
38c4: 00           nop
38c5: 00           nop
38c6: 00           nop
38c7: 00           nop
38c8: 00           nop
38c9: 00           nop
38ca: 00           nop
38cb: 00           nop
38cc: 00           nop
38cd: 00           nop
38ce: 00           nop
38cf: 00           nop
38d0: 00           nop
38d1: 00           nop
38d2: 00           nop
38d3: 00           nop
38d4: 00           nop
38d5: 00           nop
38d6: 00           nop
38d7: 00           nop
38d8: 00           nop
38d9: 00           nop
38da: 00           nop
38db: 00           nop
38dc: 00           nop
38dd: 00           nop
38de: 00           nop
38df: 00           nop
38e0: 00           nop
38e1: 00           nop
38e2: 00           nop
38e3: 00           nop
38e4: 00           nop
38e5: 00           nop
38e6: 00           nop
38e7: 00           nop
38e8: 00           nop
38e9: 00           nop
38ea: 00           nop
38eb: 00           nop
38ec: 00           nop
38ed: 00           nop
38ee: 00           nop
38ef: 00           nop
38f0: 00           nop
38f1: 00           nop
38f2: 00           nop
38f3: 00           nop
38f4: 00           nop
38f5: 00           nop
38f6: 00           nop
38f7: 00           nop
38f8: 00           nop
38f9: 00           nop
38fa: 00           nop
38fb: 00           nop
38fc: 00           nop
38fd: 00           nop
38fe: 00           nop
38ff: 00           nop
3900: 00           nop
3901: 00           nop
3902: 00           nop
3903: 00           nop
3904: 00           nop
3905: 00           nop
3906: 00           nop
3907: 00           nop
3908: 00           nop
3909: 00           nop
390a: 00           nop
390b: 00           nop
390c: 00           nop
390d: 00           nop
390e: 00           nop
390f: 00           nop
3910: 00           nop
3911: 00           nop
3912: 00           nop
3913: 00           nop
3914: 00           nop
3915: 00           nop
3916: 00           nop
3917: 00           nop
3918: 00           nop
3919: 00           nop
391a: 00           nop
391b: 00           nop
391c: 00           nop
391d: 00           nop
391e: 00           nop
391f: 00           nop
3920: 00           nop
3921: 00           nop
3922: 00           nop
3923: 00           nop
3924: 00           nop
3925: 00           nop
3926: 00           nop
3927: 00           nop
3928: 00           nop
3929: 00           nop
392a: 00           nop
392b: 00           nop
392c: 00           nop
392d: 00           nop
392e: 00           nop
392f: 00           nop
3930: 00           nop
3931: 00           nop
3932: 00           nop
3933: 00           nop
3934: 00           nop
3935: 00           nop
3936: 00           nop
3937: 00           nop
3938: 00           nop
3939: 00           nop
393a: 00           nop
393b: 00           nop
393c: 00           nop
393d: 00           nop
393e: 00           nop
393f: 00           nop
3940: 00           nop
3941: 00           nop
3942: 00           nop
3943: 00           nop
3944: 00           nop
3945: 00           nop
3946: 00           nop
3947: 00           nop
3948: 00           nop
3949: 00           nop
394a: 00           nop
394b: 00           nop
394c: 00           nop
394d: 00           nop
394e: 00           nop
394f: 00           nop
3950: 00           nop
3951: 00           nop
3952: 00           nop
3953: 00           nop
3954: 00           nop
3955: 00           nop
3956: 00           nop
3957: 00           nop
3958: 00           nop
3959: 00           nop
395a: 00           nop
395b: 00           nop
395c: 00           nop
395d: 00           nop
395e: 00           nop
395f: 00           nop
3960: 00           nop
3961: 00           nop
3962: 00           nop
3963: 00           nop
3964: 00           nop
3965: 00           nop
3966: 00           nop
3967: 00           nop
3968: 00           nop
3969: 00           nop
396a: 00           nop
396b: 00           nop
396c: 00           nop
396d: 00           nop
396e: 00           nop
396f: 00           nop
3970: 00           nop
3971: 00           nop
3972: 00           nop
3973: 00           nop
3974: 00           nop
3975: 00           nop
3976: 00           nop
3977: 00           nop
3978: 00           nop
3979: 00           nop
397a: 00           nop
397b: 00           nop
397c: 00           nop
397d: 00           nop
397e: 00           nop
397f: 00           nop
3980: 00           nop
3981: 00           nop
3982: 00           nop
3983: 00           nop
3984: 00           nop
3985: 00           nop
3986: 00           nop
3987: 00           nop
3988: 00           nop
3989: 00           nop
398a: 00           nop
398b: 00           nop
398c: 00           nop
398d: 00           nop
398e: 00           nop
398f: 00           nop
3990: 00           nop
3991: 00           nop
3992: 00           nop
3993: 00           nop
3994: 00           nop
3995: 00           nop
3996: 00           nop
3997: 00           nop
3998: 00           nop
3999: 00           nop
399a: 00           nop
399b: 00           nop
399c: 00           nop
399d: 00           nop
399e: 00           nop
399f: 00           nop
39a0: 00           nop
39a1: 00           nop
39a2: 00           nop
39a3: 00           nop
39a4: 00           nop
39a5: 00           nop
39a6: 00           nop
39a7: 00           nop
39a8: 00           nop
39a9: 00           nop
39aa: 00           nop
39ab: 00           nop
39ac: 00           nop
39ad: 00           nop
39ae: 00           nop
39af: 00           nop
39b0: 00           nop
39b1: 00           nop
39b2: 00           nop
39b3: 00           nop
39b4: 00           nop
39b5: 00           nop
39b6: 00           nop
39b7: 00           nop
39b8: 00           nop
39b9: 00           nop
39ba: 00           nop
39bb: 00           nop
39bc: 00           nop
39bd: 00           nop
39be: 00           nop
39bf: 00           nop
39c0: 00           nop
39c1: 00           nop
39c2: 00           nop
39c3: 00           nop
39c4: 00           nop
39c5: 00           nop
39c6: 00           nop
39c7: 00           nop
39c8: 00           nop
39c9: 00           nop
39ca: 00           nop
39cb: 00           nop
39cc: 00           nop
39cd: 00           nop
39ce: 00           nop
39cf: 00           nop
39d0: 00           nop
39d1: 00           nop
39d2: 00           nop
39d3: 00           nop
39d4: 00           nop
39d5: 00           nop
39d6: 00           nop
39d7: 00           nop
39d8: 00           nop
39d9: 00           nop
39da: 00           nop
39db: 00           nop
39dc: 00           nop
39dd: 00           nop
39de: 00           nop
39df: 00           nop
39e0: 00           nop
39e1: 00           nop
39e2: 00           nop
39e3: 00           nop
39e4: 00           nop
39e5: 00           nop
39e6: 00           nop
39e7: 00           nop
39e8: 00           nop
39e9: 00           nop
39ea: 00           nop
39eb: 00           nop
39ec: 00           nop
39ed: 00           nop
39ee: 00           nop
39ef: 00           nop
39f0: 00           nop
39f1: 00           nop
39f2: 00           nop
39f3: 00           nop
39f4: 00           nop
39f5: 00           nop
39f6: 00           nop
39f7: 00           nop
39f8: 00           nop
39f9: 00           nop
39fa: 00           nop
39fb: 00           nop
39fc: 00           nop
39fd: 00           nop
39fe: 00           nop
39ff: 00           nop
3a00: 00           nop
3a01: 00           nop
3a02: 00           nop
3a03: 00           nop
3a04: 00           nop
3a05: 00           nop
3a06: 00           nop
3a07: 00           nop
3a08: 00           nop
3a09: 00           nop
3a0a: 00           nop
3a0b: 00           nop
3a0c: 00           nop
3a0d: 00           nop
3a0e: 00           nop
3a0f: 00           nop
3a10: 00           nop
3a11: 00           nop
3a12: 00           nop
3a13: 00           nop
3a14: 00           nop
3a15: 00           nop
3a16: 00           nop
3a17: 00           nop
3a18: 00           nop
3a19: 00           nop
3a1a: 00           nop
3a1b: 00           nop
3a1c: 00           nop
3a1d: 00           nop
3a1e: 00           nop
3a1f: 00           nop
3a20: 00           nop
3a21: 00           nop
3a22: 00           nop
3a23: 00           nop
3a24: 00           nop
3a25: 00           nop
3a26: 00           nop
3a27: 00           nop
3a28: 00           nop
3a29: 00           nop
3a2a: 00           nop
3a2b: 00           nop
3a2c: 00           nop
3a2d: 00           nop
3a2e: 00           nop
3a2f: 00           nop
3a30: 00           nop
3a31: 00           nop
3a32: 00           nop
3a33: 00           nop
3a34: 00           nop
3a35: 00           nop
3a36: 00           nop
3a37: 00           nop
3a38: 00           nop
3a39: 00           nop
3a3a: 00           nop
3a3b: 00           nop
3a3c: 00           nop
3a3d: 00           nop
3a3e: 00           nop
3a3f: 00           nop
3a40: 00           nop
3a41: 00           nop
3a42: 00           nop
3a43: 00           nop
3a44: 00           nop
3a45: 00           nop
3a46: 00           nop
3a47: 00           nop
3a48: 00           nop
3a49: 00           nop
3a4a: 00           nop
3a4b: 00           nop
3a4c: 00           nop
3a4d: 00           nop
3a4e: 00           nop
3a4f: 00           nop
3a50: 00           nop
3a51: 00           nop
3a52: 00           nop
3a53: 00           nop
3a54: 00           nop
3a55: 00           nop
3a56: 00           nop
3a57: 00           nop
3a58: 00           nop
3a59: 00           nop
3a5a: 00           nop
3a5b: 00           nop
3a5c: 00           nop
3a5d: 00           nop
3a5e: 00           nop
3a5f: 00           nop
3a60: 00           nop
3a61: 00           nop
3a62: 00           nop
3a63: 00           nop
3a64: 00           nop
3a65: 00           nop
3a66: 00           nop
3a67: 00           nop
3a68: 00           nop
3a69: 00           nop
3a6a: 00           nop
3a6b: 00           nop
3a6c: 00           nop
3a6d: 00           nop
3a6e: 00           nop
3a6f: 00           nop
3a70: 00           nop
3a71: 00           nop
3a72: 00           nop
3a73: 00           nop
3a74: 00           nop
3a75: 00           nop
3a76: 00           nop
3a77: 00           nop
3a78: 00           nop
3a79: 00           nop
3a7a: 00           nop
3a7b: 00           nop
3a7c: 00           nop
3a7d: 00           nop
3a7e: 00           nop
3a7f: 00           nop
3a80: 00           nop
3a81: 00           nop
3a82: 00           nop
3a83: 00           nop
3a84: 00           nop
3a85: 00           nop
3a86: 00           nop
3a87: 00           nop
3a88: 00           nop
3a89: 00           nop
3a8a: 00           nop
3a8b: 00           nop
3a8c: 00           nop
3a8d: 00           nop
3a8e: 00           nop
3a8f: 00           nop
3a90: 00           nop
3a91: 00           nop
3a92: 00           nop
3a93: 00           nop
3a94: 00           nop
3a95: 00           nop
3a96: 00           nop
3a97: 00           nop
3a98: 00           nop
3a99: 00           nop
3a9a: 00           nop
3a9b: 00           nop
3a9c: 00           nop
3a9d: 00           nop
3a9e: 00           nop
3a9f: 00           nop
3aa0: 00           nop
3aa1: 00           nop
3aa2: 00           nop
3aa3: 00           nop
3aa4: 00           nop
3aa5: 00           nop
3aa6: 00           nop
3aa7: 00           nop
3aa8: 00           nop
3aa9: 00           nop
3aaa: 00           nop
3aab: 00           nop
3aac: 00           nop
3aad: 00           nop
3aae: 00           nop
3aaf: 00           nop
3ab0: 00           nop
3ab1: 00           nop
3ab2: 00           nop
3ab3: 00           nop
3ab4: 00           nop
3ab5: 00           nop
3ab6: 00           nop
3ab7: 00           nop
3ab8: 00           nop
3ab9: 00           nop
3aba: 00           nop
3abb: 00           nop
3abc: 00           nop
3abd: 00           nop
3abe: 00           nop
3abf: 00           nop
3ac0: 00           nop
3ac1: 00           nop
3ac2: 00           nop
3ac3: 00           nop
3ac4: 00           nop
3ac5: 00           nop
3ac6: 00           nop
3ac7: 00           nop
3ac8: 00           nop
3ac9: 00           nop
3aca: 00           nop
3acb: 00           nop
3acc: 00           nop
3acd: 00           nop
3ace: 00           nop
3acf: 00           nop
3ad0: 00           nop
3ad1: 00           nop
3ad2: 00           nop
3ad3: 00           nop
3ad4: 00           nop
3ad5: 00           nop
3ad6: 00           nop
3ad7: 00           nop
3ad8: 00           nop
3ad9: 00           nop
3ada: 00           nop
3adb: 00           nop
3adc: 00           nop
3add: 00           nop
3ade: 00           nop
3adf: 00           nop
3ae0: 00           nop
3ae1: 00           nop
3ae2: 00           nop
3ae3: 00           nop
3ae4: 00           nop
3ae5: 00           nop
3ae6: 00           nop
3ae7: 00           nop
3ae8: 00           nop
3ae9: 00           nop
3aea: 00           nop
3aeb: 00           nop
3aec: 00           nop
3aed: 00           nop
3aee: 00           nop
3aef: 00           nop
3af0: 00           nop
3af1: 00           nop
3af2: 00           nop
3af3: 00           nop
3af4: 00           nop
3af5: 00           nop
3af6: 00           nop
3af7: 00           nop
3af8: 00           nop
3af9: 00           nop
3afa: 00           nop
3afb: 00           nop
3afc: 00           nop
3afd: 00           nop
3afe: 00           nop
3aff: 00           nop
3b00: 00           nop
3b01: 00           nop
3b02: 00           nop
3b03: 00           nop
3b04: 00           nop
3b05: 00           nop
3b06: 00           nop
3b07: 00           nop
3b08: 00           nop
3b09: 00           nop
3b0a: 00           nop
3b0b: 00           nop
3b0c: 00           nop
3b0d: 00           nop
3b0e: 00           nop
3b0f: 00           nop
3b10: 00           nop
3b11: 00           nop
3b12: 00           nop
3b13: 00           nop
3b14: 00           nop
3b15: 00           nop
3b16: 00           nop
3b17: 00           nop
3b18: 00           nop
3b19: 00           nop
3b1a: 00           nop
3b1b: 00           nop
3b1c: 00           nop
3b1d: 00           nop
3b1e: 00           nop
3b1f: 00           nop
3b20: 00           nop
3b21: 00           nop
3b22: 00           nop
3b23: 00           nop
3b24: 00           nop
3b25: 00           nop
3b26: 00           nop
3b27: 00           nop
3b28: 00           nop
3b29: 00           nop
3b2a: 00           nop
3b2b: 00           nop
3b2c: 00           nop
3b2d: 00           nop
3b2e: 00           nop
3b2f: 00           nop
3b30: 00           nop
3b31: 00           nop
3b32: 00           nop
3b33: 00           nop
3b34: 00           nop
3b35: 00           nop
3b36: 00           nop
3b37: 00           nop
3b38: 00           nop
3b39: 00           nop
3b3a: 00           nop
3b3b: 00           nop
3b3c: 00           nop
3b3d: 00           nop
3b3e: 00           nop
3b3f: 00           nop
3b40: 00           nop
3b41: 00           nop
3b42: 00           nop
3b43: 00           nop
3b44: 00           nop
3b45: 00           nop
3b46: 00           nop
3b47: 00           nop
3b48: 00           nop
3b49: 00           nop
3b4a: 00           nop
3b4b: 00           nop
3b4c: 00           nop
3b4d: 00           nop
3b4e: 00           nop
3b4f: 00           nop
3b50: 00           nop
3b51: 00           nop
3b52: 00           nop
3b53: 00           nop
3b54: 00           nop
3b55: 00           nop
3b56: 00           nop
3b57: 00           nop
3b58: 00           nop
3b59: 00           nop
3b5a: 00           nop
3b5b: 00           nop
3b5c: 00           nop
3b5d: 00           nop
3b5e: 00           nop
3b5f: 00           nop
3b60: 00           nop
3b61: 00           nop
3b62: 00           nop
3b63: 00           nop
3b64: 00           nop
3b65: 00           nop
3b66: 00           nop
3b67: 00           nop
3b68: 00           nop
3b69: 00           nop
3b6a: 00           nop
3b6b: 00           nop
3b6c: 00           nop
3b6d: 00           nop
3b6e: 00           nop
3b6f: 00           nop
3b70: 00           nop
3b71: 00           nop
3b72: 00           nop
3b73: 00           nop
3b74: 00           nop
3b75: 00           nop
3b76: 00           nop
3b77: 00           nop
3b78: 00           nop
3b79: 00           nop
3b7a: 00           nop
3b7b: 00           nop
3b7c: 00           nop
3b7d: 00           nop
3b7e: 00           nop
3b7f: 00           nop
3b80: 00           nop
3b81: 00           nop
3b82: 00           nop
3b83: 00           nop
3b84: 00           nop
3b85: 00           nop
3b86: 00           nop
3b87: 00           nop
3b88: 00           nop
3b89: 00           nop
3b8a: 00           nop
3b8b: 00           nop
3b8c: 00           nop
3b8d: 00           nop
3b8e: 00           nop
3b8f: 00           nop
3b90: 00           nop
3b91: 00           nop
3b92: 00           nop
3b93: 00           nop
3b94: 00           nop
3b95: 00           nop
3b96: 00           nop
3b97: 00           nop
3b98: 00           nop
3b99: 00           nop
3b9a: 00           nop
3b9b: 00           nop
3b9c: 00           nop
3b9d: 00           nop
3b9e: 00           nop
3b9f: 00           nop
3ba0: 00           nop
3ba1: 00           nop
3ba2: 00           nop
3ba3: 00           nop
3ba4: 00           nop
3ba5: 00           nop
3ba6: 00           nop
3ba7: 00           nop
3ba8: 00           nop
3ba9: 00           nop
3baa: 00           nop
3bab: 00           nop
3bac: 00           nop
3bad: 00           nop
3bae: 00           nop
3baf: 00           nop
3bb0: 00           nop
3bb1: 00           nop
3bb2: 00           nop
3bb3: 00           nop
3bb4: 00           nop
3bb5: 00           nop
3bb6: 00           nop
3bb7: 00           nop
3bb8: 00           nop
3bb9: 00           nop
3bba: 00           nop
3bbb: 00           nop
3bbc: 00           nop
3bbd: 00           nop
3bbe: 00           nop
3bbf: 00           nop
3bc0: 00           nop
3bc1: 00           nop
3bc2: 00           nop
3bc3: 00           nop
3bc4: 00           nop
3bc5: 00           nop
3bc6: 00           nop
3bc7: 00           nop
3bc8: 00           nop
3bc9: 00           nop
3bca: 00           nop
3bcb: 00           nop
3bcc: 00           nop
3bcd: 00           nop
3bce: 00           nop
3bcf: 00           nop
3bd0: 00           nop
3bd1: 00           nop
3bd2: 00           nop
3bd3: 00           nop
3bd4: 00           nop
3bd5: 00           nop
3bd6: 00           nop
3bd7: 00           nop
3bd8: 00           nop
3bd9: 00           nop
3bda: 00           nop
3bdb: 00           nop
3bdc: 00           nop
3bdd: 00           nop
3bde: 00           nop
3bdf: 00           nop
3be0: 00           nop
3be1: 00           nop
3be2: 00           nop
3be3: 00           nop
3be4: 00           nop
3be5: 00           nop
3be6: 00           nop
3be7: 00           nop
3be8: 00           nop
3be9: 00           nop
3bea: 00           nop
3beb: 00           nop
3bec: 00           nop
3bed: 00           nop
3bee: 00           nop
3bef: 00           nop
3bf0: 00           nop
3bf1: 00           nop
3bf2: 00           nop
3bf3: 00           nop
3bf4: 00           nop
3bf5: 00           nop
3bf6: 00           nop
3bf7: 00           nop
3bf8: 00           nop
3bf9: 00           nop
3bfa: 00           nop
3bfb: 00           nop
3bfc: 00           nop
3bfd: 00           nop
3bfe: 00           nop
3bff: 00           nop
3c00: 00           nop
3c01: 00           nop
3c02: 00           nop
3c03: 00           nop
3c04: 00           nop
3c05: 00           nop
3c06: 00           nop
3c07: 00           nop
3c08: 00           nop
3c09: 00           nop
3c0a: 00           nop
3c0b: 00           nop
3c0c: 00           nop
3c0d: 00           nop
3c0e: 00           nop
3c0f: 00           nop
3c10: 00           nop
3c11: 00           nop
3c12: 00           nop
3c13: 00           nop
3c14: 00           nop
3c15: 00           nop
3c16: 00           nop
3c17: 00           nop
3c18: 00           nop
3c19: 00           nop
3c1a: 00           nop
3c1b: 00           nop
3c1c: 00           nop
3c1d: 00           nop
3c1e: 00           nop
3c1f: 00           nop
3c20: 00           nop
3c21: 00           nop
3c22: 00           nop
3c23: 00           nop
3c24: 00           nop
3c25: 00           nop
3c26: 00           nop
3c27: 00           nop
3c28: 00           nop
3c29: 00           nop
3c2a: 00           nop
3c2b: 00           nop
3c2c: 00           nop
3c2d: 00           nop
3c2e: 00           nop
3c2f: 00           nop
3c30: 00           nop
3c31: 00           nop
3c32: 00           nop
3c33: 00           nop
3c34: 00           nop
3c35: 00           nop
3c36: 00           nop
3c37: 00           nop
3c38: 00           nop
3c39: 00           nop
3c3a: 00           nop
3c3b: 00           nop
3c3c: 00           nop
3c3d: 00           nop
3c3e: 00           nop
3c3f: 00           nop
3c40: 00           nop
3c41: 00           nop
3c42: 00           nop
3c43: 00           nop
3c44: 00           nop
3c45: 00           nop
3c46: 00           nop
3c47: 00           nop
3c48: 00           nop
3c49: 00           nop
3c4a: 00           nop
3c4b: 00           nop
3c4c: 00           nop
3c4d: 00           nop
3c4e: 00           nop
3c4f: 00           nop
3c50: 00           nop
3c51: 00           nop
3c52: 00           nop
3c53: 00           nop
3c54: 00           nop
3c55: 00           nop
3c56: 00           nop
3c57: 00           nop
3c58: 00           nop
3c59: 00           nop
3c5a: 00           nop
3c5b: 00           nop
3c5c: 00           nop
3c5d: 00           nop
3c5e: 00           nop
3c5f: 00           nop
3c60: 00           nop
3c61: 00           nop
3c62: 00           nop
3c63: 00           nop
3c64: 00           nop
3c65: 00           nop
3c66: 00           nop
3c67: 00           nop
3c68: 00           nop
3c69: 00           nop
3c6a: 00           nop
3c6b: 00           nop
3c6c: 00           nop
3c6d: 00           nop
3c6e: 00           nop
3c6f: 00           nop
3c70: 00           nop
3c71: 00           nop
3c72: 00           nop
3c73: 00           nop
3c74: 00           nop
3c75: 00           nop
3c76: 00           nop
3c77: 00           nop
3c78: 00           nop
3c79: 00           nop
3c7a: 00           nop
3c7b: 00           nop
3c7c: 00           nop
3c7d: 00           nop
3c7e: 00           nop
3c7f: 00           nop
3c80: 00           nop
3c81: 00           nop
3c82: 00           nop
3c83: 00           nop
3c84: 00           nop
3c85: 00           nop
3c86: 00           nop
3c87: 00           nop
3c88: 00           nop
3c89: 00           nop
3c8a: 00           nop
3c8b: 00           nop
3c8c: 00           nop
3c8d: 00           nop
3c8e: 00           nop
3c8f: 00           nop
3c90: 00           nop
3c91: 00           nop
3c92: 00           nop
3c93: e3           ex   (sp),hl
3c94: 26 00        ld   h,$00
3c96: e3           ex   (sp),hl
3c97: 26 00        ld   h,$00
3c99: e3           ex   (sp),hl
3c9a: 26 00        ld   h,$00
3c9c: e3           ex   (sp),hl
3c9d: 26 00        ld   h,$00
3c9f: c9           ret
3ca0: 25           dec  h
3ca1: 00           nop
3ca2: e3           ex   (sp),hl
3ca3: 26 00        ld   h,$00
3ca5: e3           ex   (sp),hl
3ca6: 26 00        ld   h,$00
3ca8: e3           ex   (sp),hl
3ca9: 26 00        ld   h,$00
3cab: e3           ex   (sp),hl
3cac: 26 00        ld   h,$00
3cae: e3           ex   (sp),hl
3caf: 26 00        ld   h,$00
3cb1: 10 11        djnz $3CC4
3cb3: 00           nop
3cb4: e3           ex   (sp),hl
3cb5: 26 00        ld   h,$00
3cb7: e3           ex   (sp),hl
3cb8: 26 00        ld   h,$00
3cba: f0           ret  p
3cbb: 4a           ld   c,d
3cbc: 00           nop
3cbd: e3           ex   (sp),hl
3cbe: 26 00        ld   h,$00
3cc0: e3           ex   (sp),hl
3cc1: 26 00        ld   h,$00
3cc3: 0f           rrca
3cc4: 26 00        ld   h,$00
3cc6: 46           ld   b,(hl)
3cc7: 26 00        ld   h,$00
3cc9: db 12        in   a,($12)
3ccb: 32 b6 26     ld   ($26B6),a
3cce: cb 47        bit  0,a
3cd0: 20 22        jr   nz,$3CF4
3cd2: db 13        in   a,($13)
3cd4: 32 b8 26     ld   ($26B8),a
3cd7: 3e 01        ld   a,$01
3cd9: d3 13        out  ($13),a
3cdb: db 13        in   a,($13)
3cdd: 32 b9 26     ld   ($26B9),a
3ce0: 3a b8 26     ld   a,($26B8)
3ce3: cb 47        bit  0,a
3ce5: 20 12        jr   nz,$3CF9
3ce7: 3e 10        ld   a,$10
3ce9: d3 13        out  ($13),a
3ceb: d3 13        out  ($13),a
3ced: 3e 20        ld   a,$20
3cef: d3 08        out  ($08),a
3cf1: d3 0c        out  ($0C),a
3cf3: c9           ret
3cf4: 21 ac f5     ld   hl,$F5AC
3cf7: 18 03        jr   $3CFC
3cf9: 21 af f5     ld   hl,$F5AF
3cfc: 5e           ld   e,(hl)
3cfd: 23           inc  hl
3cfe: 56           ld   d,(hl)
3cff: 23           inc  hl
3d00: 7e           ld   a,(hl)
3d01: eb           ex   de,hl
3d02: b7           or   a
3d03: 20 05        jr   nz,$3D0A
3d05: 11 c9 25     ld   de,$25C9
3d08: d5           push de
3d09: e9           jp   (hl)
3d0a: cd b5 f2     call $F2B5
3d0d: 18 ba        jr   $3CC9
3d0f: db 10        in   a,($10)
3d11: 4f           ld   c,a
3d12: 3a 57 12     ld   a,($1257)
3d15: b7           or   a
3d16: ca 41 26     jp   z,$2641
3d19: 79           ld   a,c
3d1a: a7           and  a
3d1b: 28 10        jr   z,$3D2D
3d1d: f5           push af
3d1e: 47           ld   b,a
3d1f: 3a 8d 19     ld   a,($198D)
3d22: b7           or   a
3d23: 28 04        jr   z,$3D29
3d25: 78           ld   a,b
3d26: cd 81 16     call $1681
3d29: f1           pop  af
3d2a: cd c2 16     call $16C2
3d2d: 3a b6 26     ld   a,($26B6)
3d30: cb 57        bit  2,a
3d32: 20 04        jr   nz,$3D38
3d34: 3e 28        ld   a,$28
3d36: d3 12        out  ($12),a
3d38: 3e 30        ld   a,$30
3d3a: d3 12        out  ($12),a
3d3c: 3e 38        ld   a,$38
3d3e: d3 12        out  ($12),a
3d40: c9           ret
3d41: cd 7c 17     call $177C
3d44: 18 e7        jr   $3D2D
3d46: 3a 3a 27     ld   a,($273A)
3d49: b7           or   a
3d4a: 28 19        jr   z,$3D65
3d4c: db 11        in   a,($11)
3d4e: cd 69 26     call $2669
3d51: 3a b8 26     ld   a,($26B8)
3d54: cb 57        bit  2,a
3d56: 20 04        jr   nz,$3D5C
3d58: 3e 28        ld   a,$28
3d5a: d3 13        out  ($13),a
3d5c: 3e 30        ld   a,$30
3d5e: d3 13        out  ($13),a
3d60: 3e 38        ld   a,$38
3d62: d3 13        out  ($13),a
3d64: c9           ret
3d65: e1           pop  hl
3d66: c3 e7 25     jp   $25E7
3d69: f5           push af
3d6a: 2a ba 26     ld   hl,($26BA)
3d6d: cb 44        bit  0,h
3d6f: 20 16        jr   nz,$3D87
3d71: 23           inc  hl
3d72: 22 ba 26     ld   ($26BA),hl
3d75: 21 fe a1     ld   hl,$A1FE
3d78: 3a bc 26     ld   a,($26BC)
3d7b: 16 00        ld   d,$00
3d7d: 5f           ld   e,a
3d7e: 19           add  hl,de
3d7f: 3c           inc  a
3d80: 32 bc 26     ld   ($26BC),a
3d83: f1           pop  af
3d84: 77           ld   (hl),a
3d85: af           xor  a
3d86: c9           ret
3d87: f1           pop  af
3d88: 3e ff        ld   a,$FF
3d8a: c9           ret
3d8b: 21 80 f0     ld   hl,$F080
3d8e: 3e 10        ld   a,$10
3d90: b5           or   l
3d91: d3 08        out  ($08),a
3d93: 7c           ld   a,h
3d94: d3 09        out  ($09),a
3d96: 3e 80        ld   a,$80
3d98: d3 09        out  ($09),a
3d9a: 21 c0 f0     ld   hl,$F0C0
3d9d: 3e 10        ld   a,$10
3d9f: b5           or   l
3da0: d3 0c        out  ($0C),a
3da2: 7c           ld   a,h
3da3: d3 0d        out  ($0D),a
3da5: 3e 07        ld   a,$07
3da7: d3 0d        out  ($0D),a
3da9: c9           ret
3daa: 3a e1 26     ld   a,($26E1)
3dad: d3 09        out  ($09),a
3daf: c9           ret
3db0: 3a e2 26     ld   a,($26E2)
3db3: d3 0d        out  ($0D),a
3db5: c9           ret
3db6: 00           nop
3db7: 00           nop
3db8: 00           nop
3db9: 00           nop
3dba: 00           nop
3dbb: 00           nop
3dbc: 00           nop
3dbd: 00           nop
3dbe: 00           nop
3dbf: 00           nop
3dc0: 00           nop
3dc1: 00           nop
3dc2: 00           nop
3dc3: 00           nop
3dc4: 00           nop
3dc5: 00           nop
3dc6: 00           nop
3dc7: 00           nop
3dc8: 00           nop
3dc9: 00           nop
3dca: 00           nop
3dcb: 00           nop
3dcc: 00           nop
3dcd: 00           nop
3dce: 00           nop
3dcf: 00           nop
3dd0: 00           nop
3dd1: 00           nop
3dd2: 00           nop
3dd3: 00           nop
3dd4: 00           nop
3dd5: 00           nop
3dd6: 00           nop
3dd7: 00           nop
3dd8: 00           nop
3dd9: 00           nop
3dda: 00           nop
3ddb: 00           nop
3ddc: 00           nop
3ddd: 00           nop
3dde: 00           nop
3ddf: 00           nop
3de0: 00           nop
3de1: 6f           ld   l,a
3de2: fb           ei
3de3: 21 ea 26     ld   hl,$26EA
3de6: cd b1 14     call $14B1
3de9: 76           halt
3dea: 07           rlca
3deb: 0d           dec  c
3dec: 0a           ld   a,(bc)
3ded: 0a           ld   a,(bc)
3dee: 0a           ld   a,(bc)
3def: 55           ld   d,l
3df0: 6e           ld   l,(hl)
3df1: 65           ld   h,l
3df2: 78           ld   a,b
3df3: 70           ld   (hl),b
3df4: 65           ld   h,l
3df5: 63           ld   h,e
3df6: 74           ld   (hl),h
3df7: 65           ld   h,l
3df8: 64           ld   h,h
3df9: 20 69        jr   nz,$3E64
3dfb: 6e           ld   l,(hl)
3dfc: 74           ld   (hl),h
3dfd: 65           ld   h,l
3dfe: 72           ld   (hl),d
3dff: 72           ld   (hl),d
3e00: 75           ld   (hl),l
3e01: 70           ld   (hl),b
3e02: 74           ld   (hl),h
3e03: 20 21        jr   nz,$3E26
3e05: 21 21 0d     ld   hl,$0D21
3e08: 0a           ld   a,(bc)
3e09: 00           nop
3e0a: 43           ld   b,e
3e0b: 50           ld   d,b
3e0c: 2f           cpl
3e0d: 4d           ld   c,l
3e0e: 2d           dec  l
3e0f: 38 30        jr   c,$3E41
3e11: 20 2d        jr   nz,$3E40
3e13: 20 45        jr   nz,$3E5A
3e15: 50           ld   d,b
3e16: 53           ld   d,e
3e17: 4f           ld   c,a
3e18: 4e           ld   c,(hl)
3e19: 20 51        jr   nz,$3E6C
3e1b: 58           ld   e,b
3e1c: 2d           dec  l
3e1d: 31 30 42     ld   sp,$4230
3e20: 32 32 37     ld   ($3732),a
3e23: 01 01 01     ld   bc,$0101
3e26: 01 01 01     ld   bc,$0101
3e29: 01 a9 08     ld   bc,$08A9
3e2c: 00           nop
3e2d: 00           nop
3e2e: 00           nop
3e2f: 03           inc  bc
3e30: 00           nop
3e31: 00           nop
3e32: 00           nop
3e33: 00           nop
3e34: 00           nop
3e35: 01 03 00     ld   bc,$0003
3e38: 00           nop
3e39: 00           nop
3e3a: 00           nop
3e3b: 00           nop
3e3c: 00           nop
3e3d: 00           nop
3e3e: 01 00 01     ld   bc,$0100
3e41: 00           nop
3e42: 00           nop
3e43: 00           nop
3e44: 00           nop
3e45: 00           nop
3e46: 00           nop
3e47: 00           nop
3e48: 00           nop
3e49: 00           nop
3e4a: 01 02 00     ld   bc,$0002
3e4d: 00           nop
3e4e: 00           nop
3e4f: 00           nop
3e50: 00           nop
3e51: 00           nop
3e52: 00           nop
3e53: 00           nop
3e54: 00           nop
3e55: 00           nop
3e56: 03           inc  bc
3e57: 00           nop
3e58: 00           nop
3e59: 00           nop
3e5a: 00           nop
3e5b: 00           nop
3e5c: 00           nop
3e5d: 00           nop
3e5e: 00           nop
3e5f: 00           nop
3e60: 00           nop
3e61: 00           nop
3e62: 00           nop
3e63: 00           nop
3e64: 00           nop
3e65: 00           nop
3e66: 00           nop
3e67: 00           nop
3e68: 00           nop
3e69: 00           nop
3e6a: 00           nop
3e6b: 00           nop
3e6c: 00           nop
3e6d: 00           nop
3e6e: 00           nop
3e6f: 00           nop
3e70: 00           nop
3e71: 00           nop
3e72: 00           nop
3e73: 00           nop
3e74: 00           nop
3e75: 00           nop
3e76: 00           nop
3e77: 00           nop
3e78: 00           nop
3e79: 00           nop
3e7a: 00           nop
3e7b: 00           nop
3e7c: 00           nop
3e7d: 00           nop
3e7e: 00           nop
3e7f: 00           nop
3e80: 00           nop
3e81: 00           nop
3e82: 00           nop
3e83: 00           nop
3e84: 00           nop
3e85: 00           nop
3e86: 00           nop
3e87: 00           nop
3e88: 00           nop
3e89: 5a           ld   e,d
3e8a: 00           nop
3e8b: 00           nop
3e8c: 00           nop
3e8d: 00           nop
3e8e: 00           nop
3e8f: 00           nop
3e90: 00           nop
3e91: 00           nop
3e92: 00           nop
3e93: 00           nop
3e94: 00           nop
3e95: 00           nop
3e96: 00           nop
3e97: 00           nop
3e98: 00           nop
3e99: 00           nop
3e9a: 00           nop
3e9b: 00           nop
3e9c: 00           nop
3e9d: 00           nop
3e9e: 00           nop
3e9f: 00           nop
3ea0: 00           nop
3ea1: 00           nop
3ea2: 00           nop
3ea3: 00           nop
3ea4: 00           nop
3ea5: 00           nop
3ea6: 00           nop
3ea7: 00           nop
3ea8: 00           nop
3ea9: 00           nop
3eaa: 00           nop
3eab: 00           nop
3eac: 00           nop
3ead: 00           nop
3eae: 00           nop
3eaf: 00           nop
3eb0: 00           nop
3eb1: 00           nop
3eb2: 00           nop
3eb3: 00           nop
3eb4: 00           nop
3eb5: 00           nop
3eb6: 00           nop
3eb7: 00           nop
3eb8: 00           nop
3eb9: 00           nop
3eba: 00           nop
3ebb: 00           nop
3ebc: 00           nop
3ebd: 00           nop
3ebe: 00           nop
3ebf: 00           nop
3ec0: 00           nop
3ec1: 00           nop
3ec2: 00           nop
3ec3: 00           nop
3ec4: 00           nop
3ec5: 00           nop
3ec6: 00           nop
3ec7: 00           nop
3ec8: 00           nop
3ec9: 00           nop
3eca: 00           nop
3ecb: 00           nop
3ecc: 00           nop
3ecd: 00           nop
3ece: 00           nop
3ecf: 00           nop
3ed0: 00           nop
3ed1: 00           nop
3ed2: 00           nop
3ed3: 00           nop
3ed4: 00           nop
3ed5: 00           nop
3ed6: 00           nop
3ed7: 00           nop
3ed8: 00           nop
3ed9: 00           nop
3eda: 00           nop
3edb: 00           nop
3edc: 00           nop
3edd: 00           nop
3ede: 00           nop
3edf: 00           nop
3ee0: 00           nop
3ee1: 00           nop
3ee2: 00           nop
3ee3: 00           nop
3ee4: 00           nop
3ee5: 00           nop
3ee6: 00           nop
3ee7: 00           nop
3ee8: 00           nop
3ee9: 00           nop
3eea: 00           nop
3eeb: 00           nop
3eec: 00           nop
3eed: 00           nop
3eee: 00           nop
3eef: 00           nop
3ef0: 00           nop
3ef1: 00           nop
3ef2: 00           nop
3ef3: 00           nop
3ef4: 00           nop
3ef5: 00           nop
3ef6: 00           nop
3ef7: 00           nop
3ef8: 00           nop
3ef9: 00           nop
3efa: 00           nop
3efb: 00           nop
3efc: 00           nop
3efd: 00           nop
3efe: 00           nop
3eff: 00           nop
3f00: 00           nop
3f01: 00           nop
3f02: 00           nop
3f03: 00           nop
3f04: 53           ld   d,e
3f05: 45           ld   b,l
3f06: 52           ld   d,d
3f07: 49           ld   c,c
3f08: 41           ld   b,c
3f09: 4c           ld   c,h
3f0a: 79           ld   a,c
3f0b: fe 1a        cp   $1A
3f0d: 28 26        jr   z,$3F35
3f0f: fe 0d        cp   $0D
3f11: 28 1f        jr   z,$3F32
3f13: 3a 18 f6     ld   a,($F618)
3f16: fe ff        cp   $FF
3f18: 20 1f        jr   nz,$3F39
3f1a: 3a 1e f6     ld   a,($F61E)
3f1d: fe ff        cp   $FF
3f1f: 20 18        jr   nz,$3F39
3f21: 3a 1d f6     ld   a,($F61D)
3f24: b7           or   a
3f25: 28 15        jr   z,$3F3C
3f27: fe 01        cp   $01
3f29: 28 39        jr   z,$3F64
3f2b: fe ff        cp   $FF
3f2d: 28 23        jr   z,$3F52
3f2f: c3 b3 28     jp   $28B3
3f32: 11 80 00     ld   de,$0080
3f35: ed 53 19 f6  ld   ($F619),de
3f39: c3 e3 f5     jp   $F5E3
3f3c: 11 4f 28     ld   de,$284F
3f3f: d5           push de
3f40: af           xor  a
3f41: 32 18 f6     ld   ($F618),a
3f44: 32 1e f6     ld   ($F61E),a
3f47: 11 f7 f5     ld   de,$F5F7
3f4a: 0e 10        ld   c,$10
3f4c: c3 b6 28     jp   $28B6
3f4f: c3 b3 28     jp   $28B3
3f52: 11 5e 28     ld   de,$285E
3f55: d5           push de
3f56: 11 f7 f5     ld   de,$F5F7
3f59: 0e 16        ld   c,$16
3f5b: c3 b6 28     jp   $28B6
3f5e: fe ff        cp   $FF
3f60: 28 43        jr   z,$3FA5
3f62: 18 31        jr   $3F95
3f64: af           xor  a
3f65: 32 1b f6     ld   ($F61B),a
3f68: 3a 1c f6     ld   a,($F61C)
3f6b: b7           or   a
3f6c: 28 37        jr   z,$3FA5
3f6e: af           xor  a
3f6f: 32 1c f6     ld   ($F61C),a
3f72: 11 7e 28     ld   de,$287E
3f75: d5           push de
3f76: 11 fe a1     ld   de,$A1FE
3f79: 0e 1a        ld   c,$1A
3f7b: c3 b6 28     jp   $28B6
3f7e: 11 89 28     ld   de,$2889
3f81: d5           push de
3f82: 11 f7 f5     ld   de,$F5F7
3f85: 0e 15        ld   c,$15
3f87: 18 2d        jr   $3FB6
3f89: 11 95 28     ld   de,$2895
3f8c: d5           push de
3f8d: ed 5b 19 f6  ld   de,($F619)
3f91: 0e 1a        ld   c,$1A
3f93: 18 21        jr   $3FB6
3f95: cd c1 28     call $28C1
3f98: b7           or   a
3f99: 20 fa        jr   nz,$3F95
3f9b: 3e 06        ld   a,$06
3f9d: d3 11        out  ($11),a
3f9f: af           xor  a
3fa0: 32 1e f6     ld   ($F61E),a
3fa3: 18 0e        jr   $3FB3
3fa5: cd c1 28     call $28C1
3fa8: b7           or   a
3fa9: 20 fa        jr   nz,$3FA5
3fab: 3e 15        ld   a,$15
3fad: d3 11        out  ($11),a
3faf: af           xor  a
3fb0: 32 1e f6     ld   ($F61E),a
3fb3: c3 e3 f5     jp   $F5E3
3fb6: 22 d4 28     ld   ($28D4),hl
3fb9: 2a c1 f5     ld   hl,($F5C1)
3fbc: e5           push hl
3fbd: 2a d4 28     ld   hl,($28D4)
3fc0: c9           ret
3fc1: db 13        in   a,($13)
3fc3: cb 6f        bit  5,a
3fc5: 28 06        jr   z,$3FCD
3fc7: cb 57        bit  2,a
3fc9: 28 02        jr   z,$3FCD
3fcb: af           xor  a
3fcc: c9           ret
3fcd: 3e 10        ld   a,$10
3fcf: d3 13        out  ($13),a
3fd1: 3e ff        ld   a,$FF
3fd3: c9           ret
3fd4: 00           nop
3fd5: 00           nop
3fd6: 32 13 2b     ld   ($2B13),a
3fd9: 3a b9 26     ld   a,($26B9)
3fdc: cb 6f        bit  5,a
3fde: c2 3d 29     jp   nz,$293D
3fe1: 3a 14 2b     ld   a,($2B14)
3fe4: b7           or   a
3fe5: 28 3b        jr   z,$4022
3fe7: 3a 15 2b     ld   a,($2B15)
3fea: b7           or   a
3feb: 28 64        jr   z,$4051
3fed: 3a 1b f6     ld   a,($F61B)
3ff0: fe ff        cp   $FF
3ff2: 28 14        jr   z,$4008
3ff4: 3a 13 2b     ld   a,($2B13)
3ff7: fe 04        cp   $04
3ff9: ca bc 29     jp   z,$29BC
3ffc: fe 1c        cp   $1C
3ffe: ca cd 29     jp   z,$29CD
4001: fe 05        cp   $05
4003: 28 1d        jr   z,$4022
4005: c3 32 2a     jp   $2A32
4008: 3a 13 2b     ld   a,($2B13)
400b: f5           push af
400c: b7           or   a
400d: 3a 17 2b     ld   a,($2B17)
4010: fe 82        cp   $82
4012: c2 f6 29     jp   nz,$29F6
4015: f1           pop  af
4016: fe 1e        cp   $1E
4018: ca 16 2a     jp   z,$2A16
401b: fe 05        cp   $05
401d: 28 03        jr   z,$4022
401f: c3 32 2a     jp   $2A32
4022: 3a 13 2b     ld   a,($2B13)
4025: fe 05        cp   $05
4027: c0           ret  nz
4028: 3e ff        ld   a,$FF
402a: 32 14 2b     ld   ($2B14),a
402d: af           xor  a
402e: 32 15 2b     ld   ($2B15),a
4031: 32 16 2b     ld   ($2B16),a
4034: 32 17 f6     ld   ($F617),a
4037: 32 18 f6     ld   ($F618),a
403a: c3 27 2a     jp   $2A27
403d: 3a 15 2b     ld   a,($2B15)
4040: b7           or   a
4041: 20 07        jr   nz,$404A
4043: 3e 30        ld   a,$30
4045: d3 13        out  ($13),a
4047: c3 32 2a     jp   $2A32
404a: 3e 30        ld   a,$30
404c: d3 13        out  ($13),a
404e: c3 68 29     jp   $2968
4051: 3a 16 2b     ld   a,($2B16)
4054: b7           or   a
4055: 28 4a        jr   z,$40A1
4057: 3a 13 2b     ld   a,($2B13)
405a: fe 04        cp   $04
405c: ca c8 29     jp   z,$29C8
405f: cd 3d 2a     call $2A3D
4062: b7           or   a
4063: c8           ret  z
4064: fe aa        cp   $AA
4066: 20 0f        jr   nz,$4077
4068: cd c1 28     call $28C1
406b: b7           or   a
406c: 20 fa        jr   nz,$4068
406e: 3e 17        ld   a,$17
4070: d3 11        out  ($11),a
4072: af           xor  a
4073: 32 16 2b     ld   ($2B16),a
4076: c9           ret
4077: 3a 44 27     ld   a,($2744)
407a: 32 f7 f5     ld   ($F5F7),a
407d: cd c8 2a     call $2AC8
4080: ed 5b 15 f6  ld   de,($F615)
4084: b7           or   a
4085: ed 52        sbc  hl,de
4087: da 32 2a     jp   c,$2A32
408a: 3a 66 f0     ld   a,($F066)
408d: cb ef        set  5,a
408f: 32 66 f0     ld   ($F066),a
4092: 3e ff        ld   a,$FF
4094: 32 18 f6     ld   ($F618),a
4097: 32 15 2b     ld   ($2B15),a
409a: 32 1d f6     ld   ($F61D),a
409d: 32 1e f6     ld   ($F61E),a
40a0: c9           ret
40a1: 3a 13 2b     ld   a,($2B13)
40a4: fe 05        cp   $05
40a6: ca 22 29     jp   z,$2922
40a9: fe 01        cp   $01
40ab: c0           ret  nz
40ac: 3e ff        ld   a,$FF
40ae: 32 16 2b     ld   ($2B16),a
40b1: af           xor  a
40b2: 32 18 2b     ld   ($2B18),a
40b5: 32 11 2b     ld   ($2B11),a
40b8: 32 12 2b     ld   ($2B12),a
40bb: c9           ret
40bc: cd c8 29     call $29C8
40bf: 32 1d f6     ld   ($F61D),a
40c2: 3e ff        ld   a,$FF
40c4: 32 1e f6     ld   ($F61E),a
40c7: c9           ret
40c8: af           xor  a
40c9: 32 14 2b     ld   ($2B14),a
40cc: c9           ret
40cd: af           xor  a
40ce: 32 17 2b     ld   ($2B17),a
40d1: 32 1a 2b     ld   ($2B1A),a
40d4: 32 18 2b     ld   ($2B18),a
40d7: 3e ff        ld   a,$FF
40d9: 32 1b f6     ld   ($F61B),a
40dc: c9           ret
40dd: 3a 17 2b     ld   a,($2B17)
40e0: 3c           inc  a
40e1: 32 17 2b     ld   ($2B17),a
40e4: f1           pop  af
40e5: 21 18 2b     ld   hl,$2B18
40e8: be           cp   (hl)
40e9: 20 06        jr   nz,$40F1
40eb: 3e ff        ld   a,$FF
40ed: 32 1c f6     ld   ($F61C),a
40f0: c9           ret
40f1: af           xor  a
40f2: 32 1c f6     ld   ($F61C),a
40f5: c9           ret
40f6: 3a 17 2b     ld   a,($2B17)
40f9: 3c           inc  a
40fa: 32 17 2b     ld   ($2B17),a
40fd: fe 81        cp   $81
40ff: ca dd 29     jp   z,$29DD
4102: 21 fe a1     ld   hl,$A1FE
4105: 3a 1a 2b     ld   a,($2B1A)
4108: 16 00        ld   d,$00
410a: 5f           ld   e,a
410b: 19           add  hl,de
410c: 3c           inc  a
410d: 32 1a 2b     ld   ($2B1A),a
4110: f1           pop  af
4111: 77           ld   (hl),a
4112: cd 21 2a     call $2A21
4115: c9           ret
4116: 3e 01        ld   a,$01
4118: 32 1d f6     ld   ($F61D),a
411b: 3e ff        ld   a,$FF
411d: 32 1e f6     ld   ($F61E),a
4120: c9           ret
4121: 21 18 2b     ld   hl,$2B18
4124: 86           add  a,(hl)
4125: 77           ld   (hl),a
4126: c9           ret
4127: cd c1 28     call $28C1
412a: b7           or   a
412b: 20 fa        jr   nz,$4127
412d: 3e 06        ld   a,$06
412f: d3 11        out  ($11),a
4131: c9           ret
4132: cd c1 28     call $28C1
4135: b7           or   a
4136: 20 fa        jr   nz,$4132
4138: 3e 15        ld   a,$15
413a: d3 11        out  ($11),a
413c: c9           ret
413d: f5           push af
413e: 3a 11 2b     ld   a,($2B11)
4141: 3c           inc  a
4142: 32 11 2b     ld   ($2B11),a
4145: 21 f7 f5     ld   hl,$F5F7
4148: 3a 12 2b     ld   a,($2B12)
414b: 16 00        ld   d,$00
414d: 5f           ld   e,a
414e: 19           add  hl,de
414f: 3c           inc  a
4150: 32 12 2b     ld   ($2B12),a
4153: 37           scf
4154: 3f           ccf
4155: 3a 11 2b     ld   a,($2B11)
4158: fe 21        cp   $21
415a: 28 0a        jr   z,$4166
415c: d2 66 2a     jp   nc,$2A66
415f: f1           pop  af
4160: 77           ld   (hl),a
4161: cd 21 2a     call $2A21
4164: af           xor  a
4165: c9           ret
4166: 3a 11 2b     ld   a,($2B11)
4169: fe 22        cp   $22
416b: 28 06        jr   z,$4173
416d: f1           pop  af
416e: 32 19 2b     ld   ($2B19),a
4171: af           xor  a
4172: c9           ret
4173: f1           pop  af
4174: 3a 18 2b     ld   a,($2B18)
4177: 21 19 2b     ld   hl,$2B19
417a: be           cp   (hl)
417b: 20 03        jr   nz,$4180
417d: 3e ff        ld   a,$FF
417f: c9           ret
4180: 3e aa        ld   a,$AA
4182: c9           ret
4183: c5           push bc
4184: d5           push de
4185: e5           push hl
4186: dd e5        push ix
4188: fd e5        push iy
418a: 3a 1c 2b     ld   a,($2B1C)
418d: b7           or   a
418e: 28 14        jr   z,$41A4
4190: 3a 52 12     ld   a,($1252)
4193: 47           ld   b,a
4194: 3a 1b 2b     ld   a,($2B1B)
4197: b8           cp   b
4198: 20 1e        jr   nz,$41B8
419a: af           xor  a
419b: cd ef 12     call $12EF
419e: af           xor  a
419f: 32 1c 2b     ld   ($2B1C),a
41a2: 18 14        jr   $41B8
41a4: 3e 01        ld   a,$01
41a6: 32 1c 2b     ld   ($2B1C),a
41a9: 21 1d 2b     ld   hl,$2B1D
41ac: cd ec 12     call $12EC
41af: 3a 52 12     ld   a,($1252)
41b2: 3c           inc  a
41b3: 3c           inc  a
41b4: 3c           inc  a
41b5: 32 1b 2b     ld   ($2B1B),a
41b8: 3a 66 f0     ld   a,($F066)
41bb: cb af        res  5,a
41bd: 32 66 f0     ld   ($F066),a
41c0: fd e1        pop  iy
41c2: dd e1        pop  ix
41c4: e1           pop  hl
41c5: d1           pop  de
41c6: c1           pop  bc
41c7: c9           ret
41c8: 3d           dec  a
41c9: 26 00        ld   h,$00
41cb: 6f           ld   l,a
41cc: 29           add  hl,hl
41cd: ed 5b 1f f6  ld   de,($F61F)
41d1: 19           add  hl,de
41d2: 7e           ld   a,(hl)
41d3: 23           inc  hl
41d4: 66           ld   h,(hl)
41d5: 6f           ld   l,a
41d6: af           xor  a
41d7: b5           or   l
41d8: c8           ret  z
41d9: 1e 17        ld   e,$17
41db: 57           ld   d,a
41dc: 19           add  hl,de
41dd: 1e 05        ld   e,$05
41df: 19           add  hl,de
41e0: 5e           ld   e,(hl)
41e1: 23           inc  hl
41e2: 56           ld   d,(hl)
41e3: cb 3a        srl  d
41e5: cb 1b        rr   e
41e7: cb 3a        srl  d
41e9: cb 1b        rr   e
41eb: cb 3a        srl  d
41ed: cb 1b        rr   e
41ef: 13           inc  de
41f0: 0e 02        ld   c,$02
41f2: 47           ld   b,a
41f3: 09           add  hl,bc
41f4: 4f           ld   c,a
41f5: 47           ld   b,a
41f6: 7e           ld   a,(hl)
41f7: 2f           cpl
41f8: cb 27        sla  a
41fa: 28 05        jr   z,$4201
41fc: 30 fa        jr   nc,$41F8
41fe: 03           inc  bc
41ff: 18 f7        jr   $41F8
4201: 30 01        jr   nc,$4204
4203: 03           inc  bc
4204: 23           inc  hl
4205: 1b           dec  de
4206: 7a           ld   a,d
4207: b3           or   e
4208: 20 ec        jr   nz,$41F6
420a: cb 21        sla  c
420c: cb 10        rl   b
420e: 69           ld   l,c
420f: 60           ld   h,b
4210: c9           ret
4211: 00           nop
4212: 00           nop
4213: 00           nop
4214: 00           nop
4215: 00           nop
4216: 00           nop
4217: 00           nop
4218: 00           nop
4219: 00           nop
421a: 00           nop
421b: 00           nop
421c: 00           nop
421d: 07           rlca
421e: 20 20        jr   nz,$4240
4220: 20 20        jr   nz,$4242
4222: 20 20        jr   nz,$4244
4224: 52           ld   d,d
4225: 45           ld   b,l
4226: 43           ld   b,e
4227: 45           ld   b,l
4228: 49           ld   c,c
4229: 56           ld   d,(hl)
422a: 49           ld   c,c
422b: 4e           ld   c,(hl)
422c: 47           ld   b,a
422d: 20 41        jr   nz,$4270
422f: 20 4d        jr   nz,$427E
4231: 45           ld   b,l
4232: 53           ld   d,e
4233: 53           ld   d,e
4234: 41           ld   b,c
4235: 47           ld   b,a
4236: 45           ld   b,l
4237: 20 00        jr   nz,$4239
4239: c3 32 2c     jp   $2C32
423c: c3 54 2b     jp   $2B54
423f: c3 97 2d     jp   $2D97
4242: c3 86 2d     jp   $2D86
4245: c3 3d 37     jp   $373D
4248: c3 65 37     jp   $3765
424b: c3 b6 36     jp   $36B6
424e: c3 69 35     jp   $3569
4251: c3 56 36     jp   $3656
4254: 32 db 38     ld   ($38DB),a
4257: 3e ff        ld   a,$FF
4259: 32 54 12     ld   ($1254),a
425c: 3e 0c        ld   a,$0C
425e: cd f4 37     call $37F4
4261: 78           ld   a,b
4262: b7           or   a
4263: cc af 2b     call z,$2BAF
4266: cd bb 2b     call $2BBB
4269: 2a c9 38     ld   hl,($38C9)
426c: cd ca 37     call $37CA
426f: 3a db 38     ld   a,($38DB)
4272: b7           or   a
4273: 3a d6 38     ld   a,($38D6)
4276: 28 1d        jr   z,$4295
4278: 01 d0 07     ld   bc,$07D0
427b: 11 00 04     ld   de,$0400
427e: cd 46 34     call $3446
4281: cd a6 33     call $33A6
4284: 06 44        ld   b,$44
4286: 21 d4 38     ld   hl,$38D4
4289: 3a 27 27     ld   a,($2727)
428c: b7           or   a
428d: 20 02        jr   nz,$4291
428f: 06 64        ld   b,$64
4291: 70           ld   (hl),b
4292: 3a d6 38     ld   a,($38D6)
4295: 32 d6 38     ld   ($38D6),a
4298: b7           or   a
4299: c4 86 2d     call nz,$2D86
429c: cc 97 2d     call z,$2D97
429f: db 38        in   a,($38)
42a1: e6 20        and  $20
42a3: 28 fa        jr   z,$429F
42a5: 3e 0d        ld   a,$0D
42a7: cd f4 37     call $37F4
42aa: af           xor  a
42ab: 32 54 12     ld   ($1254),a
42ae: c9           ret
42af: 3e 6f        ld   a,$6F
42b1: cd f4 37     call $37F4
42b4: 21 46 38     ld   hl,$3846
42b7: cd da 37     call $37DA
42ba: c9           ret
42bb: 21 51 38     ld   hl,$3851
42be: cd da 37     call $37DA
42c1: 21 57 38     ld   hl,$3857
42c4: cd da 37     call $37DA
42c7: af           xor  a
42c8: d3 3a        out  ($3A),a
42ca: 3a f5 54     ld   a,($54F5)
42cd: 32 bc 38     ld   ($38BC),a
42d0: 32 5d 38     ld   ($385D),a
42d3: 32 9b 38     ld   ($389B),a
42d6: 21 5b 38     ld   hl,$385B
42d9: cd da 37     call $37DA
42dc: 3a db 38     ld   a,($38DB)
42df: b7           or   a
42e0: ca 1e 2c     jp   z,$2C1E
42e3: 21 af ff     ld   hl,$FFAF
42e6: 22 cd 38     ld   ($38CD),hl
42e9: 3e 00        ld   a,$00
42eb: 21 14 38     ld   hl,$3814
42ee: f5           push af
42ef: e5           push hl
42f0: ed 5b bc 38  ld   de,($38BC)
42f4: 16 00        ld   d,$00
42f6: cd e2 8a     call $8AE2
42f9: eb           ex   de,hl
42fa: e1           pop  hl
42fb: f1           pop  af
42fc: 73           ld   (hl),e
42fd: 23           inc  hl
42fe: 72           ld   (hl),d
42ff: 23           inc  hl
4300: 3c           inc  a
4301: fe 1a        cp   $1A
4303: c2 ee 2b     jp   nz,$2BEE
4306: 3a bc 38     ld   a,($38BC)
4309: 5f           ld   e,a
430a: 16 00        ld   d,$00
430c: 3a bf 38     ld   a,($38BF)
430f: cd e2 8a     call $8AE2
4312: 22 cb 38     ld   ($38CB),hl
4315: 22 cf 38     ld   ($38CF),hl
4318: 22 d1 38     ld   ($38D1),hl
431b: cd 10 2d     call $2D10
431e: cd 75 2d     call $2D75
4321: 21 66 38     ld   hl,$3866
4324: cd da 37     call $37DA
4327: 3e 4c        ld   a,$4C
4329: cd f4 37     call $37F4
432c: 3e 02        ld   a,$02
432e: cd fa 37     call $37FA
4331: c9           ret
4332: 3e ff        ld   a,$FF
4334: 32 54 12     ld   ($1254),a
4337: 3a c2 38     ld   a,($38C2)
433a: b7           or   a
433b: c2 b6 2d     jp   nz,$2DB6
433e: 3a c1 38     ld   a,($38C1)
4341: b7           or   a
4342: 28 04        jr   z,$4348
4344: 2a c3 38     ld   hl,($38C3)
4347: e9           jp   (hl)
4348: 79           ld   a,c
4349: b7           or   a
434a: 28 11        jr   z,$435D
434c: fe 20        cp   $20
434e: da c8 2d     jp   c,$2DC8
4351: 3a 31 27     ld   a,($2731)
4354: b7           or   a
4355: 28 02        jr   z,$4359
4357: cb b9        res  7,c
4359: 79           ld   a,c
435a: cd 62 2c     call $2C62
435d: af           xor  a
435e: 32 54 12     ld   ($1254),a
4361: c9           ret
4362: 32 72 38     ld   ($3872),a
4365: cd 6a 32     call $326A
4368: 20 0f        jr   nz,$4379
436a: 3a c0 38     ld   a,($38C0)
436d: 32 73 38     ld   ($3873),a
4370: 21 70 38     ld   hl,$3870
4373: cd da 37     call $37DA
4376: c3 a6 2c     jp   $2CA6
4379: cd 49 35     call $3549
437c: e6 33        and  $33
437e: 20 0d        jr   nz,$438D
4380: cd 68 37     call $3768
4383: 7a           ld   a,d
4384: e6 c8        and  $C8
4386: 57           ld   d,a
4387: 3a c0 38     ld   a,($38C0)
438a: b2           or   d
438b: 18 e0        jr   $436D
438d: cd 0a 35     call $350A
4390: 3a c0 38     ld   a,($38C0)
4393: b2           or   d
4394: 32 73 38     ld   ($3873),a
4397: 21 70 38     ld   hl,$3870
439a: cd da 37     call $37DA
439d: cd a6 2c     call $2CA6
43a0: cd 4b 31     call $314B
43a3: c3 53 32     jp   $3253
43a6: 21 bd 38     ld   hl,$38BD
43a9: 34           inc  (hl)
43aa: 7e           ld   a,(hl)
43ab: 2b           dec  hl
43ac: be           cp   (hl)
43ad: c0           ret  nz
43ae: 23           inc  hl
43af: 3a 26 27     ld   a,($2726)
43b2: b7           or   a
43b3: 20 04        jr   nz,$43B9
43b5: 35           dec  (hl)
43b6: c3 68 37     jp   $3768
43b9: af           xor  a
43ba: 77           ld   (hl),a
43bb: 23           inc  hl
43bc: 34           inc  (hl)
43bd: 7e           ld   a,(hl)
43be: 23           inc  hl
43bf: be           cp   (hl)
43c0: 20 f4        jr   nz,$43B6
43c2: 2b           dec  hl
43c3: 35           dec  (hl)
43c4: 3a bc 38     ld   a,($38BC)
43c7: 3d           dec  a
43c8: 6f           ld   l,a
43c9: 3a bf 38     ld   a,($38BF)
43cc: 3d           dec  a
43cd: 67           ld   h,a
43ce: e5           push hl
43cf: cd 6b 37     call $376B
43d2: cd 39 35     call $3539
43d5: f6 04        or   $04
43d7: 57           ld   d,a
43d8: 1e 20        ld   e,$20
43da: 21 bc 38     ld   hl,$38BC
43dd: 06 00        ld   b,$00
43df: 4e           ld   c,(hl)
43e0: e1           pop  hl
43e1: 2c           inc  l
43e2: cd 6b 37     call $376B
43e5: cd 46 34     call $3446
43e8: cd 48 2d     call $2D48
43eb: cd 6a 32     call $326A
43ee: 28 11        jr   z,$4401
43f0: 2a bd 38     ld   hl,($38BD)
43f3: e5           push hl
43f4: 21 00 00     ld   hl,$0000
43f7: 22 bd 38     ld   ($38BD),hl
43fa: cd 4b 31     call $314B
43fd: e1           pop  hl
43fe: 22 bd 38     ld   ($38BD),hl
4401: 3a c8 38     ld   a,($38C8)
4404: 3c           inc  a
4405: 32 c8 38     ld   ($38C8),a
4408: fe 18        cp   $18
440a: cc 63 32     call z,$3263
440d: c3 68 37     jp   $3768
4410: f5           push af
4411: 2a c9 38     ld   hl,($38C9)
4414: 22 aa 38     ld   ($38AA),hl
4417: 11 af ff     ld   de,$FFAF
441a: ed 53 ae 38  ld   ($38AE),de
441e: ed 5b d1 38  ld   de,($38D1)
4422: 19           add  hl,de
4423: 22 cb 38     ld   ($38CB),hl
4426: 22 cf 38     ld   ($38CF),hl
4429: af           xor  a
442a: 32 b1 38     ld   ($38B1),a
442d: 32 b0 38     ld   ($38B0),a
4430: 32 ac 38     ld   ($38AC),a
4433: 32 b4 38     ld   ($38B4),a
4436: 3e 18        ld   a,$18
4438: 32 ad 38     ld   ($38AD),a
443b: 21 af ff     ld   hl,$FFAF
443e: 22 b2 38     ld   ($38B2),hl
4441: 3e 01        ld   a,$01
4443: 32 b5 38     ld   ($38B5),a
4446: f1           pop  af
4447: c9           ret
4448: 21 bc 38     ld   hl,$38BC
444b: 5e           ld   e,(hl)
444c: 16 00        ld   d,$00
444e: 2a aa 38     ld   hl,($38AA)
4451: 19           add  hl,de
4452: 22 aa 38     ld   ($38AA),hl
4455: ed 5b c9 38  ld   de,($38C9)
4459: ed 53 ae 38  ld   ($38AE),de
445d: ed 52        sbc  hl,de
445f: 22 cf 38     ld   ($38CF),hl
4462: 3a ad 38     ld   a,($38AD)
4465: 3d           dec  a
4466: cc 10 2d     call z,$2D10
4469: 28 0a        jr   z,$4475
446b: 32 ad 38     ld   ($38AD),a
446e: 3a b1 38     ld   a,($38B1)
4471: 3c           inc  a
4472: 32 b1 38     ld   ($38B1),a
4475: db 38        in   a,($38)
4477: e6 20        and  $20
4479: 28 fa        jr   z,$4475
447b: 21 a8 38     ld   hl,$38A8
447e: c3 da 37     jp   $37DA
4481: 3e ff        ld   a,$FF
4483: 32 d6 38     ld   ($38D6),a
4486: f5           push af
4487: 3e 4b        ld   a,$4B
4489: cd f4 37     call $37F4
448c: 3e 0f        ld   a,$0F
448e: cd fa 37     call $37FA
4491: f1           pop  af
4492: c9           ret
4493: af           xor  a
4494: 32 d6 38     ld   ($38D6),a
4497: f5           push af
4498: 3a d6 38     ld   a,($38D6)
449b: b7           or   a
449c: 20 16        jr   nz,$44B4
449e: 3e 4b        ld   a,$4B
44a0: cd f4 37     call $37F4
44a3: 3a d5 38     ld   a,($38D5)
44a6: cd fa 37     call $37FA
44a9: 3a d4 38     ld   a,($38D4)
44ac: cd fa 37     call $37FA
44af: 3e 49        ld   a,$49
44b1: cd fa 37     call $37FA
44b4: f1           pop  af
44b5: c9           ret
44b6: af           xor  a
44b7: 32 c2 38     ld   ($38C2),a
44ba: 79           ld   a,c
44bb: 21 5f 2e     ld   hl,$2E5F
44be: 06 1c        ld   b,$1C
44c0: 18 0b        jr   $44CD
44c2: 3e ff        ld   a,$FF
44c4: 32 c2 38     ld   ($38C2),a
44c7: c9           ret
44c8: 21 37 2e     ld   hl,$2E37
44cb: 06 14        ld   b,$14
44cd: be           cp   (hl)
44ce: 28 07        jr   z,$44D7
44d0: 23           inc  hl
44d1: 23           inc  hl
44d2: 10 f9        djnz $44CD
44d4: c3 5d 2c     jp   $2C5D
44d7: 23           inc  hl
44d8: 7e           ld   a,(hl)
44d9: 16 00        ld   d,$00
44db: 87           add  a,a
44dc: 21 ed 2d     ld   hl,$2DED
44df: 5f           ld   e,a
44e0: 19           add  hl,de
44e1: 5e           ld   e,(hl)
44e2: 23           inc  hl
44e3: 56           ld   d,(hl)
44e4: 21 5d 2c     ld   hl,$2C5D
44e7: e5           push hl
44e8: d5           push de
44e9: 2a bd 38     ld   hl,($38BD)
44ec: c9           ret
44ed: a6           and  (hl)
44ee: 33           inc  sp
44ef: d7           rst  $10
44f0: 30 de        jr   nc,$44D0
44f2: 30 f4        jr   nc,$44E8
44f4: 33           inc  sp
44f5: f0           ret  p
44f6: 32 70 32     ld   ($3270),a
44f9: 76           halt
44fa: 32 7c 32     ld   ($327C),a
44fd: c3 32 16     jp   $1632
4500: 30 a6        jr   nc,$44A8
4502: 18 7a        jr   $457E
4504: 33           inc  sp
4505: 64           ld   h,h
4506: 33           inc  sp
4507: 93           sub  e
4508: 33           inc  sp
4509: 57           ld   d,a
450a: 33           inc  sp
450b: 73           ld   (hl),e
450c: 33           inc  sp
450d: c2 2d 62     jp   nz,$622D
4510: 37           scf
4511: 5d           ld   e,l
4512: 2c           inc  l
4513: e5           push hl
4514: 30 ec        jr   nc,$4502
4516: 30 c8        jr   nc,$44E0
4518: 30 bc        jr   nc,$44D6
451a: 30 f3        jr   nc,$450F
451c: 30 fa        jr   nc,$4518
451e: 30 f8        jr   nc,$4518
4520: 32 24 33     ld   ($3324),a
4523: 9c           sbc  a,h
4524: 18 a1        jr   $44C7
4526: 18 cd        jr   $44F5
4528: 33           inc  sp
4529: ef           rst  $28
452a: 33           inc  sp
452b: eb           ex   de,hl
452c: 32 a1 33     ld   ($33A1),a
452f: 41           ld   b,c
4530: 37           scf
4531: 64           ld   h,h
4532: 35           dec  (hl)
4533: 97           sub  a
4534: 2e 0d        ld   l,$0D
4536: 30 07        jr   nc,$453F
4538: 0a           ld   a,(bc)
4539: 08           ex   af,af'
453a: 0b           dec  bc
453b: 09           add  hl,bc
453c: 19           add  hl,de
453d: 0a           ld   a,(bc)
453e: 0c           inc  c
453f: 0b           dec  bc
4540: 0d           dec  c
4541: 0c           inc  c
4542: 0e 0d        ld   c,$0D
4544: 0f           rrca
4545: 1a           ld   a,(de)
4546: 00           nop
4547: 1b           dec  de
4548: 10 1e        djnz $4568
454a: 11 00 00     ld   de,$0000
454d: 00           nop
454e: 00           nop
454f: 00           nop
4550: 00           nop
4551: 00           nop
4552: 00           nop
4553: 00           nop
4554: 00           nop
4555: 00           nop
4556: 00           nop
4557: 00           nop
4558: 00           nop
4559: 00           nop
455a: 00           nop
455b: 00           nop
455c: 00           nop
455d: 00           nop
455e: 00           nop
455f: 2b           dec  hl
4560: 20 6a        jr   nz,$45CC
4562: 01 6b 02     ld   bc,$026B
4565: 59           ld   e,c
4566: 03           inc  bc
4567: 54           ld   d,h
4568: 04           inc  b
4569: 45           ld   b,l
456a: 05           dec  b
456b: 49           ld   c,c
456c: 1a           ld   a,(de)
456d: 52           ld   d,d
456e: 06 51        ld   b,$51
4570: 07           rlca
4571: 57           ld   d,a
4572: 08           ex   af,af'
4573: 3d           dec  a
4574: 09           add  hl,bc
4575: 5e           ld   e,(hl)
4576: 13           inc  de
4577: 71           ld   (hl),c
4578: 14           inc  d
4579: 29           add  hl,hl
457a: 15           dec  d
457b: 28 16        jr   z,$4593
457d: 22 1c 23     ld   ($231C),hl
4580: 1b           dec  de
4581: 2a 1d 79     ld   hl,($791D)
4584: 1e 74        ld   e,$74
4586: 1f           rra
4587: 5f           ld   e,a
4588: 17           rla
4589: 3f           ccf
458a: 21 6c 22     ld   hl,$226C
458d: 6d           ld   l,l
458e: 22 50 24     ld   ($2450),hl
4591: 58           ld   e,b
4592: 23           inc  hl
4593: 00           nop
4594: 00           nop
4595: 00           nop
4596: 00           nop
4597: 3e ff        ld   a,$FF
4599: 32 c1 38     ld   ($38C1),a
459c: 21 a3 2e     ld   hl,$2EA3
459f: 22 c3 38     ld   ($38C3),hl
45a2: c9           ret
45a3: af           xor  a
45a4: 32 c1 38     ld   ($38C1),a
45a7: 79           ld   a,c
45a8: fe 36        cp   $36
45aa: ca 7e 30     jp   z,$307E
45ad: fe 37        cp   $37
45af: ca 9d 30     jp   z,$309D
45b2: fe 41        cp   $41
45b4: ca c2 2f     jp   z,$2FC2
45b7: fe 42        cp   $42
45b9: ca cd 2f     jp   z,$2FCD
45bc: fe 49        cp   $49
45be: ca db 2f     jp   z,$2FDB
45c1: fe 4a        cp   $4A
45c3: ca e6 2f     jp   z,$2FE6
45c6: fe 4b        cp   $4B
45c8: ca f4 2f     jp   z,$2FF4
45cb: fe 4c        cp   $4C
45cd: ca ff 2f     jp   z,$2FFF
45d0: fe 2a        cp   $2A
45d2: ca 03 2f     jp   z,$2F03
45d5: f5           push af
45d6: 3a f8 54     ld   a,($54F8)
45d9: b7           or   a
45da: 28 24        jr   z,$4600
45dc: f1           pop  af
45dd: fe 4f        cp   $4F
45df: ca 0c 2f     jp   z,$2F0C
45e2: fe 51        cp   $51
45e4: ca 15 2f     jp   z,$2F15
45e7: fe 52        cp   $52
45e9: ca 1e 2f     jp   z,$2F1E
45ec: fe 53        cp   $53
45ee: ca 27 2f     jp   z,$2F27
45f1: 21 5d 2c     ld   hl,$2C5D
45f4: e5           push hl
45f5: fe 45        cp   $45
45f7: ca 93 2d     jp   z,$2D93
45fa: fe 46        cp   $46
45fc: ca 81 2d     jp   z,$2D81
45ff: c9           ret
4600: f1           pop  af
4601: 18 ee        jr   $45F1
4603: 21 d9 88     ld   hl,$88D9
4606: 22 be 2f     ld   ($2FBE),hl
4609: c3 30 2f     jp   $2F30
460c: 21 f6 88     ld   hl,$88F6
460f: 22 be 2f     ld   ($2FBE),hl
4612: c3 30 2f     jp   $2F30
4615: 21 66 89     ld   hl,$8966
4618: 22 be 2f     ld   ($2FBE),hl
461b: c3 30 2f     jp   $2F30
461e: 21 e5 89     ld   hl,$89E5
4621: 22 be 2f     ld   ($2FBE),hl
4624: c3 30 2f     jp   $2F30
4627: 21 83 8a     ld   hl,$8A83
462a: 22 be 2f     ld   ($2FBE),hl
462d: c3 30 2f     jp   $2F30
4630: 21 b9 88     ld   hl,$88B9
4633: 22 c0 2f     ld   ($2FC0),hl
4636: c3 39 2f     jp   $2F39
4639: 3e ff        ld   a,$FF
463b: 32 c1 38     ld   ($38C1),a
463e: 21 45 2f     ld   hl,$2F45
4641: 22 c3 38     ld   ($38C3),hl
4644: c9           ret
4645: 79           ld   a,c
4646: 21 00 00     ld   hl,$0000
4649: 22 bc 2f     ld   ($2FBC),hl
464c: fe 2f        cp   $2F
464e: c2 98 2f     jp   nz,$2F98
4651: 21 5a 2f     ld   hl,$2F5A
4654: 22 c3 38     ld   ($38C3),hl
4657: c3 5d 2c     jp   $2C5D
465a: 79           ld   a,c
465b: fe 0d        cp   $0D
465d: ca 98 2f     jp   z,$2F98
4660: fe 20        cp   $20
4662: ca 83 2f     jp   z,$2F83
4665: fe 2f        cp   $2F
4667: ca 9f 2f     jp   z,$2F9F
466a: fe 24        cp   $24
466c: ca 8c 2f     jp   z,$2F8C
466f: d6 30        sub  $30
4671: f5           push af
4672: 3e 0a        ld   a,$0A
4674: ed 5b bc 2f  ld   de,($2FBC)
4678: cd e2 8a     call $8AE2
467b: f1           pop  af
467c: 5f           ld   e,a
467d: 16 00        ld   d,$00
467f: 19           add  hl,de
4680: 22 bc 2f     ld   ($2FBC),hl
4683: 21 5a 2f     ld   hl,$2F5A
4686: 22 c3 38     ld   ($38C3),hl
4689: c3 5d 2c     jp   $2C5D
468c: af           xor  a
468d: 32 c1 38     ld   ($38C1),a
4690: 2a be 2f     ld   hl,($2FBE)
4693: 11 5d 2c     ld   de,$2C5D
4696: d5           push de
4697: e9           jp   (hl)
4698: af           xor  a
4699: 32 c1 38     ld   ($38C1),a
469c: c3 5d 2c     jp   $2C5D
469f: 2a c0 2f     ld   hl,($2FC0)
46a2: ed 5b bc 2f  ld   de,($2FBC)
46a6: 73           ld   (hl),e
46a7: 23           inc  hl
46a8: 72           ld   (hl),d
46a9: 23           inc  hl
46aa: 22 c0 2f     ld   ($2FC0),hl
46ad: 21 00 00     ld   hl,$0000
46b0: 22 bc 2f     ld   ($2FBC),hl
46b3: 21 5a 2f     ld   hl,$2F5A
46b6: 22 c3 38     ld   ($38C3),hl
46b9: c3 5d 2c     jp   $2C5D
46bc: 00           nop
46bd: 00           nop
46be: 00           nop
46bf: 00           nop
46c0: 00           nop
46c1: 00           nop
46c2: 3a c0 38     ld   a,($38C0)
46c5: f6 08        or   $08
46c7: 32 c0 38     ld   ($38C0),a
46ca: f2 5d 2c     jp   p,$2C5D
46cd: 3a c0 38     ld   a,($38C0)
46d0: 47           ld   b,a
46d1: 3e 08        ld   a,$08
46d3: 2f           cpl
46d4: a0           and  b
46d5: 32 c0 38     ld   ($38C0),a
46d8: f2 5d 2c     jp   p,$2C5D
46db: 3a c0 38     ld   a,($38C0)
46de: f6 80        or   $80
46e0: 32 c0 38     ld   ($38C0),a
46e3: c3 5d 2c     jp   $2C5D
46e6: 3a c0 38     ld   a,($38C0)
46e9: 47           ld   b,a
46ea: 3e 80        ld   a,$80
46ec: 2f           cpl
46ed: a0           and  b
46ee: 32 c0 38     ld   ($38C0),a
46f1: c3 5d 2c     jp   $2C5D
46f4: 3a c0 38     ld   a,($38C0)
46f7: f6 40        or   $40
46f9: 32 c0 38     ld   ($38C0),a
46fc: c3 5d 2c     jp   $2C5D
46ff: 3a c0 38     ld   a,($38C0)
4702: 47           ld   b,a
4703: 3e 40        ld   a,$40
4705: 2f           cpl
4706: a0           and  b
4707: 32 c0 38     ld   ($38C0),a
470a: c3 5d 2c     jp   $2C5D
470d: 3a 66 f0     ld   a,($F066)
4710: f6 01        or   $01
4712: 32 66 f0     ld   ($F066),a
4715: c9           ret
4716: 3e ff        ld   a,$FF
4718: 32 c1 38     ld   ($38C1),a
471b: 21 22 30     ld   hl,$3022
471e: 22 c3 38     ld   ($38C3),hl
4721: c9           ret
4722: 79           ld   a,c
4723: d6 20        sub  $20
4725: fe 19        cp   $19
4727: 30 03        jr   nc,$472C
4729: 32 c5 38     ld   ($38C5),a
472c: 21 35 30     ld   hl,$3035
472f: 22 c3 38     ld   ($38C3),hl
4732: c3 5d 2c     jp   $2C5D
4735: 79           ld   a,c
4736: d6 20        sub  $20
4738: fe 50        cp   $50
473a: 30 03        jr   nc,$473F
473c: 32 bd 38     ld   ($38BD),a
473f: af           xor  a
4740: 32 c1 38     ld   ($38C1),a
4743: 3a c5 38     ld   a,($38C5)
4746: 32 be 38     ld   ($38BE),a
4749: cd 68 37     call $3768
474c: c3 5d 2c     jp   $2C5D
474f: 3e ff        ld   a,$FF
4751: 32 c1 38     ld   ($38C1),a
4754: 21 5b 30     ld   hl,$305B
4757: 22 c3 38     ld   ($38C3),hl
475a: c9           ret
475b: 79           ld   a,c
475c: fe 30        cp   $30
475e: 28 0f        jr   z,$476F
4760: 3e 8f        ld   a,$8F
4762: 32 d5 38     ld   ($38D5),a
4765: af           xor  a
4766: 32 c1 38     ld   ($38C1),a
4769: cd 93 2d     call $2D93
476c: c3 5d 2c     jp   $2C5D
476f: af           xor  a
4770: 32 c1 38     ld   ($38C1),a
4773: 3e 0f        ld   a,$0F
4775: 32 d5 38     ld   ($38D5),a
4778: cd 81 2d     call $2D81
477b: c3 5d 2c     jp   $2C5D
477e: 3e ff        ld   a,$FF
4780: 32 c1 38     ld   ($38C1),a
4783: 21 8c 30     ld   hl,$308C
4786: 22 c3 38     ld   ($38C3),hl
4789: c3 5d 2c     jp   $2C5D
478c: af           xor  a
478d: 32 c1 38     ld   ($38C1),a
4790: 79           ld   a,c
4791: e6 0f        and  $0F
4793: ca 5d 2c     jp   z,$2C5D
4796: 3d           dec  a
4797: cd 7b 19     call $197B
479a: c3 5d 2c     jp   $2C5D
479d: 3e ff        ld   a,$FF
479f: 32 c1 38     ld   ($38C1),a
47a2: 21 ab 30     ld   hl,$30AB
47a5: 22 c3 38     ld   ($38C3),hl
47a8: c3 5d 2c     jp   $2C5D
47ab: af           xor  a
47ac: 32 c1 38     ld   ($38C1),a
47af: 79           ld   a,c
47b0: e6 0f        and  $0F
47b2: ca 5d 2c     jp   z,$2C5D
47b5: 3d           dec  a
47b6: cd 84 19     call $1984
47b9: c3 5d 2c     jp   $2C5D
47bc: 3a c0 38     ld   a,($38C0)
47bf: f6 04        or   $04
47c1: 32 c0 38     ld   ($38C0),a
47c4: f2 5d 2c     jp   p,$2C5D
47c7: c9           ret
47c8: 3a c0 38     ld   a,($38C0)
47cb: 47           ld   b,a
47cc: 3e 04        ld   a,$04
47ce: 2f           cpl
47cf: a0           and  b
47d0: 32 c0 38     ld   ($38C0),a
47d3: f2 5d 2c     jp   p,$2C5D
47d6: c9           ret
47d7: cd 01 31     call $3101
47da: 01 30 00     ld   bc,$0030
47dd: ff           rst  $38
47de: cd 01 31     call $3101
47e1: 01 02 00     ld   bc,$0002
47e4: f7           rst  $30
47e5: cd 01 31     call $3101
47e8: 00           nop
47e9: 22 80 80     ld   ($8080),hl
47ec: cd 01 31     call $3101
47ef: 00           nop
47f0: 12           ld   (de),a
47f1: 00           nop
47f2: 00           nop
47f3: cd 01 31     call $3101
47f6: 00           nop
47f7: 20 40        jr   nz,$4839
47f9: 40           ld   b,b
47fa: cd 01 31     call $3101
47fd: 00           nop
47fe: 12           ld   (de),a
47ff: 00           nop
4800: 00           nop
4801: cd 68 37     call $3768
4804: cd 49 35     call $3549
4807: f5           push af
4808: e6 33        and  $33
480a: cc 59 32     call z,$3259
480d: cd 0a 35     call $350A
4810: c1           pop  bc
4811: e1           pop  hl
4812: 78           ld   a,b
4813: e6 33        and  $33
4815: fe 30        cp   $30
4817: 7e           ld   a,(hl)
4818: 23           inc  hl
4819: 20 07        jr   nz,$4822
481b: b7           or   a
481c: 20 04        jr   nz,$4822
481e: 7e           ld   a,(hl)
481f: b0           or   b
4820: 18 01        jr   $4823
4822: 7e           ld   a,(hl)
4823: 5f           ld   e,a
4824: 23           inc  hl
4825: 7a           ld   a,d
4826: b6           or   (hl)
4827: 23           inc  hl
4828: a6           and  (hl)
4829: 47           ld   b,a
482a: 3a c0 38     ld   a,($38C0)
482d: b0           or   b
482e: b3           or   e
482f: 67           ld   h,a
4830: 2e 20        ld   l,$20
4832: 22 72 38     ld   ($3872),hl
4835: 21 70 38     ld   hl,$3870
4838: cd da 37     call $37DA
483b: 3a 26 27     ld   a,($2726)
483e: f5           push af
483f: 3e 01        ld   a,$01
4841: 32 26 27     ld   ($2726),a
4844: cd a6 2c     call $2CA6
4847: f1           pop  af
4848: 32 26 27     ld   ($2726),a
484b: cd 68 37     call $3768
484e: cd 6a 32     call $326A
4851: c8           ret  z
4852: cd 0a 35     call $350A
4855: 7a           ld   a,d
4856: 47           ld   b,a
4857: ee c8        xor  $C8
4859: 4f           ld   c,a
485a: cd 68 37     call $3768
485d: cd 49 35     call $3549
4860: cd 68 37     call $3768
4863: 7a           ld   a,d
4864: a1           and  c
4865: 4f           ld   c,a
4866: 7a           ld   a,d
4867: 2f           cpl
4868: a0           and  b
4869: 47           ld   b,a
486a: b1           or   c
486b: 28 3d        jr   z,$48AA
486d: cd 86 2d     call $2D86
4870: 2a bd 38     ld   hl,($38BD)
4873: 7c           ld   a,h
4874: fe 18        cp   $18
4876: ca f1 31     jp   z,$31F1
4879: 2a 6d 38     ld   hl,($386D)
487c: 3a d3 38     ld   a,($38D3)
487f: b7           or   a
4880: eb           ex   de,hl
4881: 20 1c        jr   nz,$489F
4883: 2a cb 38     ld   hl,($38CB)
4886: ed 52        sbc  hl,de
4888: c8           ret  z
4889: cd ad 31     call $31AD
488c: 28 16        jr   z,$48A4
488e: 3a b1 38     ld   a,($38B1)
4891: b7           or   a
4892: 28 10        jr   z,$48A4
4894: ed 5b c9 38  ld   de,($38C9)
4898: ed 53 6d 38  ld   ($386D),de
489c: cd cd 37     call $37CD
489f: 2a cf 38     ld   hl,($38CF)
48a2: ed 52        sbc  hl,de
48a4: c4 ad 31     call nz,$31AD
48a7: cd 97 2d     call $2D97
48aa: c3 68 37     jp   $3768
48ad: 22 ba 38     ld   ($38BA),hl
48b0: e5           push hl
48b1: cd 49 35     call $3549
48b4: e1           pop  hl
48b5: a1           and  c
48b6: 20 06        jr   nz,$48BE
48b8: 7a           ld   a,d
48b9: a0           and  b
48ba: a8           xor  b
48bb: ca 02 32     jp   z,$3202
48be: 7a           ld   a,d
48bf: e6 33        and  $33
48c1: 20 0b        jr   nz,$48CE
48c3: 2b           dec  hl
48c4: 7d           ld   a,l
48c5: b4           or   h
48c6: 20 e8        jr   nz,$48B0
48c8: 11 00 00     ld   de,$0000
48cb: c3 02 32     jp   $3202
48ce: 5f           ld   e,a
48cf: 1f           rra
48d0: 1f           rra
48d1: b3           or   e
48d2: e6 07        and  $07
48d4: 11 fa 31     ld   de,$31FA
48d7: 83           add  a,e
48d8: 5f           ld   e,a
48d9: 7a           ld   a,d
48da: ce 00        adc  a,$00
48dc: 57           ld   d,a
48dd: 1a           ld   a,(de)
48de: 57           ld   d,a
48df: 78           ld   a,b
48e0: b1           or   c
48e1: a2           and  d
48e2: 28 df        jr   z,$48C3
48e4: 7a           ld   a,d
48e5: e6 20        and  $20
48e7: 28 01        jr   z,$48EA
48e9: 2b           dec  hl
48ea: cd 02 32     call $3202
48ed: c8           ret  z
48ee: c3 ad 31     jp   $31AD
48f1: 3e 50        ld   a,$50
48f3: 95           sub  l
48f4: 26 00        ld   h,$00
48f6: 6f           ld   l,a
48f7: c3 a4 31     jp   $31A4
48fa: 00           nop
48fb: 40           ld   b,b
48fc: 08           ex   af,af'
48fd: 80           add  a,b
48fe: 00           nop
48ff: 28 c8        jr   z,$48C9
4901: 88           adc  a,b
4902: 7a           ld   a,d
4903: e6 c8        and  $C8
4905: 2f           cpl
4906: 57           ld   d,a
4907: d5           push de
4908: eb           ex   de,hl
4909: 2a ba 38     ld   hl,($38BA)
490c: ed 52        sbc  hl,de
490e: 2b           dec  hl
490f: 22 78 38     ld   ($3878),hl
4912: d1           pop  de
4913: 28 0e        jr   z,$4923
4915: 1e 3b        ld   e,$3B
4917: 78           ld   a,b
4918: b7           or   a
4919: c4 43 32     call nz,$3243
491c: 1e 3a        ld   e,$3A
491e: 79           ld   a,c
491f: b7           or   a
4920: c4 43 32     call nz,$3243
4923: 78           ld   a,b
4924: a2           and  d
4925: 47           ld   b,a
4926: 79           ld   a,c
4927: a2           and  d
4928: 4f           ld   c,a
4929: b0           or   b
492a: c8           ret  z
492b: ed 5b 78 38  ld   de,($3878)
492f: 00           nop
4930: 13           inc  de
4931: 2a 6d 38     ld   hl,($386D)
4934: 19           add  hl,de
4935: 22 6d 38     ld   ($386D),hl
4938: cd cd 37     call $37CD
493b: 2a ba 38     ld   hl,($38BA)
493e: ed 52        sbc  hl,de
4940: af           xor  a
4941: 3c           inc  a
4942: c9           ret
4943: 32 7c 38     ld   ($387C),a
4946: 7b           ld   a,e
4947: 32 7b 38     ld   ($387B),a
494a: cd cd 37     call $37CD
494d: 21 75 38     ld   hl,$3875
4950: c3 da 37     jp   $37DA
4953: 2a c6 38     ld   hl,($38C6)
4956: 2b           dec  hl
4957: 18 0d        jr   $4966
4959: af           xor  a
495a: 32 c8 38     ld   ($38C8),a
495d: 2a c6 38     ld   hl,($38C6)
4960: 23           inc  hl
4961: 18 03        jr   $4966
4963: 21 00 00     ld   hl,$0000
4966: 22 c6 38     ld   ($38C6),hl
4969: c9           ret
496a: 2a c6 38     ld   hl,($38C6)
496d: 7d           ld   a,l
496e: b4           or   h
496f: c9           ret
4970: 3a be 38     ld   a,($38BE)
4973: c3 93 34     jp   $3493
4976: 3a be 38     ld   a,($38BE)
4979: c3 58 34     jp   $3458
497c: cd aa 32     call $32AA
497f: 28 02        jr   z,$4983
4981: ed b8        lddr
4983: 23           inc  hl
4984: 36 20        ld   (hl),$20
4986: 23           inc  hl
4987: 36 04        ld   (hl),$04
4989: cd cd 37     call $37CD
498c: cd ea 34     call $34EA
498f: 2a bd 38     ld   hl,($38BD)
4992: e5           push hl
4993: 24           inc  h
4994: 2e 00        ld   l,$00
4996: 3a bf 38     ld   a,($38BF)
4999: bc           cp   h
499a: ca a3 32     jp   z,$32A3
499d: 22 bd 38     ld   ($38BD),hl
49a0: cd 4b 31     call $314B
49a3: e1           pop  hl
49a4: 22 bd 38     ld   ($38BD),hl
49a7: c3 4b 31     jp   $314B
49aa: 3a be 38     ld   a,($38BE)
49ad: 47           ld   b,a
49ae: cd be 34     call $34BE
49b1: 21 bc 38     ld   hl,$38BC
49b4: 7e           ld   a,(hl)
49b5: 23           inc  hl
49b6: 96           sub  (hl)
49b7: 3d           dec  a
49b8: 17           rla
49b9: 4f           ld   c,a
49ba: 06 00        ld   b,$00
49bc: 21 1d b2     ld   hl,$B21D
49bf: 11 1f b2     ld   de,$B21F
49c2: c9           ret
49c3: cd aa 32     call $32AA
49c6: 28 0b        jr   z,$49D3
49c8: ed 42        sbc  hl,bc
49ca: eb           ex   de,hl
49cb: ed 42        sbc  hl,bc
49cd: 13           inc  de
49ce: 23           inc  hl
49cf: ed b0        ldir
49d1: eb           ex   de,hl
49d2: 2b           dec  hl
49d3: 7e           ld   a,(hl)
49d4: 57           ld   d,a
49d5: cd 3c 35     call $353C
49d8: 23           inc  hl
49d9: 36 20        ld   (hl),$20
49db: 23           inc  hl
49dc: f6 04        or   $04
49de: 77           ld   (hl),a
49df: cd cd 37     call $37CD
49e2: cd ea 34     call $34EA
49e5: cd 68 37     call $3768
49e8: c3 4b 31     jp   $314B
49eb: 3e ff        ld   a,$FF
49ed: 32 da 38     ld   ($38DA),a
49f0: cd 0c 34     call $340C
49f3: af           xor  a
49f4: 32 da 38     ld   ($38DA),a
49f7: c9           ret
49f8: 3a bd 38     ld   a,($38BD)
49fb: cb 3f        srl  a
49fd: cb 3f        srl  a
49ff: cb 3f        srl  a
4a01: 5f           ld   e,a
4a02: 16 00        ld   d,$00
4a04: 21 1a 33     ld   hl,$331A
4a07: 19           add  hl,de
4a08: 7e           ld   a,(hl)
4a09: 32 bd 38     ld   ($38BD),a
4a0c: fe ff        cp   $FF
4a0e: 20 06        jr   nz,$4A16
4a10: cd 73 33     call $3373
4a13: cd 64 33     call $3364
4a16: cd 68 37     call $3768
4a19: c9           ret
4a1a: 08           ex   af,af'
4a1b: 10 18        djnz $4A35
4a1d: 20 28        jr   nz,$4A47
4a1f: 30 38        jr   nc,$4A59
4a21: 40           ld   b,b
4a22: 48           ld   c,b
4a23: ff           rst  $38
4a24: 3a bd 38     ld   a,($38BD)
4a27: b7           or   a
4a28: 28 08        jr   z,$4A32
4a2a: d6 01        sub  $01
4a2c: cb 3f        srl  a
4a2e: cb 3f        srl  a
4a30: cb 3f        srl  a
4a32: 5f           ld   e,a
4a33: 16 00        ld   d,$00
4a35: 21 4d 33     ld   hl,$334D
4a38: 19           add  hl,de
4a39: 7e           ld   a,(hl)
4a3a: 32 bd 38     ld   ($38BD),a
4a3d: fe ff        cp   $FF
4a3f: 20 08        jr   nz,$4A49
4a41: 3e 4f        ld   a,$4F
4a43: 32 bd 38     ld   ($38BD),a
4a46: cd 93 33     call $3393
4a49: cd 68 37     call $3768
4a4c: c9           ret
4a4d: ff           rst  $38
4a4e: 08           ex   af,af'
4a4f: 10 18        djnz $4A69
4a51: 20 28        jr   nz,$4A7B
4a53: 30 36        jr   nc,$4A8B
4a55: 40           ld   b,b
4a56: 48           ld   c,b
4a57: 21 bd 38     ld   hl,$38BD
4a5a: 34           inc  (hl)
4a5b: 7e           ld   a,(hl)
4a5c: 2b           dec  hl
4a5d: be           cp   (hl)
4a5e: da 68 37     jp   c,$3768
4a61: cd 73 33     call $3373
4a64: 21 be 38     ld   hl,$38BE
4a67: 34           inc  (hl)
4a68: 7e           ld   a,(hl)
4a69: 23           inc  hl
4a6a: be           cp   (hl)
4a6b: c2 68 37     jp   nz,$3768
4a6e: 2b           dec  hl
4a6f: 35           dec  (hl)
4a70: c3 c4 2c     jp   $2CC4
4a73: af           xor  a
4a74: 32 bd 38     ld   ($38BD),a
4a77: c3 68 37     jp   $3768
4a7a: 21 bd 38     ld   hl,$38BD
4a7d: 35           dec  (hl)
4a7e: f2 68 37     jp   p,$3768
4a81: 2b           dec  hl
4a82: 7e           ld   a,(hl)
4a83: 23           inc  hl
4a84: 3d           dec  a
4a85: 77           ld   (hl),a
4a86: 23           inc  hl
4a87: 35           dec  (hl)
4a88: f2 68 37     jp   p,$3768
4a8b: 23           inc  hl
4a8c: 7e           ld   a,(hl)
4a8d: 3d           dec  a
4a8e: 2b           dec  hl
4a8f: 77           ld   (hl),a
4a90: c3 68 37     jp   $3768
4a93: 21 be 38     ld   hl,$38BE
4a96: 35           dec  (hl)
4a97: f2 68 37     jp   p,$3768
4a9a: 23           inc  hl
4a9b: 7e           ld   a,(hl)
4a9c: 3d           dec  a
4a9d: 2b           dec  hl
4a9e: 77           ld   (hl),a
4a9f: 18 ef        jr   $4A90
4aa1: 3e 04        ld   a,$04
4aa3: 32 c0 38     ld   ($38C0),a
4aa6: cd 10 2d     call $2D10
4aa9: cd 75 2d     call $2D75
4aac: 2a c9 38     ld   hl,($38C9)
4aaf: ed 4b d1 38  ld   bc,($38D1)
4ab3: 11 20 04     ld   de,$0420
4ab6: cd 38 34     call $3438
4ab9: 3a f8 54     ld   a,($54F8)
4abc: b7           or   a
4abd: c2 d4 33     jp   nz,$33D4
4ac0: cd 62 37     call $3762
4ac3: af           xor  a
4ac4: 32 da 38     ld   ($38DA),a
4ac7: 32 59 89     ld   ($8959),a
4aca: c3 63 32     jp   $3263
4acd: 3e ff        ld   a,$FF
4acf: 32 da 38     ld   ($38DA),a
4ad2: 18 d2        jr   $4AA6
4ad4: 21 00 00     ld   hl,$0000
4ad7: 06 04        ld   b,$04
4ad9: c5           push bc
4ada: e5           push hl
4adb: 01 ff 3f     ld   bc,$3FFF
4ade: 11 00 00     ld   de,$0000
4ae1: cd 38 34     call $3438
4ae4: e1           pop  hl
4ae5: 11 00 40     ld   de,$4000
4ae8: 19           add  hl,de
4ae9: c1           pop  bc
4aea: 10 ed        djnz $4AD9
4aec: c3 c0 33     jp   $33C0
4aef: 3e ff        ld   a,$FF
4af1: 32 da 38     ld   ($38DA),a
4af4: 21 bf 38     ld   hl,$38BF
4af7: 7e           ld   a,(hl)
4af8: 2b           dec  hl
4af9: 96           sub  (hl)
4afa: 3d           dec  a
4afb: 28 0f        jr   z,$4B0C
4afd: 47           ld   b,a
4afe: 4e           ld   c,(hl)
4aff: 0c           inc  c
4b00: c5           push bc
4b01: 3a c0 38     ld   a,($38C0)
4b04: 57           ld   d,a
4b05: 79           ld   a,c
4b06: cd 26 34     call $3426
4b09: c1           pop  bc
4b0a: 10 f3        djnz $4AFF
4b0c: 21 bc 38     ld   hl,$38BC
4b0f: 7e           ld   a,(hl)
4b10: 23           inc  hl
4b11: 96           sub  (hl)
4b12: 4f           ld   c,a
4b13: 06 00        ld   b,$00
4b15: 1e 20        ld   e,$20
4b17: 3a c0 38     ld   a,($38C0)
4b1a: 57           ld   d,a
4b1b: cd 68 37     call $3768
4b1e: cd 46 34     call $3446
4b21: c3 4b 31     jp   $314B
4b24: 16 04        ld   d,$04
4b26: 67           ld   h,a
4b27: 2e 00        ld   l,$00
4b29: cd 6b 37     call $376B
4b2c: ed 4b bc 38  ld   bc,($38BC)
4b30: 06 00        ld   b,$00
4b32: 2a 6d 38     ld   hl,($386D)
4b35: c3 38 34     jp   $3438
4b38: 1e 20        ld   e,$20
4b3a: 3a da 38     ld   a,($38DA)
4b3d: fe ff        cp   $FF
4b3f: 20 02        jr   nz,$4B43
4b41: 1e 00        ld   e,$00
4b43: cd ca 37     call $37CA
4b46: 0b           dec  bc
4b47: ed 43 91 38  ld   ($3891),bc
4b4b: ed 53 95 38  ld   ($3895),de
4b4f: 21 8e 38     ld   hl,$388E
4b52: cd da 37     call $37DA
4b55: c3 68 37     jp   $3768
4b58: b7           or   a
4b59: ca c4 2c     jp   z,$2CC4
4b5c: f5           push af
4b5d: cd 86 2d     call $2D86
4b60: f1           pop  af
4b61: 47           ld   b,a
4b62: 3e 17        ld   a,$17
4b64: 90           sub  b
4b65: 28 0f        jr   z,$4B76
4b67: 4f           ld   c,a
4b68: 04           inc  b
4b69: cd be 34     call $34BE
4b6c: 25           dec  h
4b6d: cd 6b 37     call $376B
4b70: cd ea 34     call $34EA
4b73: 0d           dec  c
4b74: 20 f2        jr   nz,$4B68
4b76: 3e 17        ld   a,$17
4b78: cd 24 34     call $3424
4b7b: 2a bd 38     ld   hl,($38BD)
4b7e: 2e 00        ld   l,$00
4b80: e5           push hl
4b81: 26 17        ld   h,$17
4b83: 22 bd 38     ld   ($38BD),hl
4b86: cd 4b 31     call $314B
4b89: e1           pop  hl
4b8a: 22 bd 38     ld   ($38BD),hl
4b8d: cd 97 2d     call $2D97
4b90: c3 4b 31     jp   $314B
4b93: f5           push af
4b94: cd 86 2d     call $2D86
4b97: f1           pop  af
4b98: f5           push af
4b99: 47           ld   b,a
4b9a: 3e 17        ld   a,$17
4b9c: 90           sub  b
4b9d: 28 11        jr   z,$4BB0
4b9f: 4f           ld   c,a
4ba0: 06 16        ld   b,$16
4ba2: cd be 34     call $34BE
4ba5: 24           inc  h
4ba6: cd 6b 37     call $376B
4ba9: cd ea 34     call $34EA
4bac: 05           dec  b
4bad: 0d           dec  c
4bae: 20 f2        jr   nz,$4BA2
4bb0: f1           pop  af
4bb1: cd 24 34     call $3424
4bb4: af           xor  a
4bb5: 32 bd 38     ld   ($38BD),a
4bb8: cd 97 2d     call $2D97
4bbb: c3 4b 31     jp   $314B
4bbe: 60           ld   h,b
4bbf: 2e 00        ld   l,$00
4bc1: e5           push hl
4bc2: cd 6b 37     call $376B
4bc5: cd ca 34     call $34CA
4bc8: e1           pop  hl
4bc9: c9           ret
4bca: e5           push hl
4bcb: c5           push bc
4bcc: 21 98 38     ld   hl,$3898
4bcf: cd da 37     call $37DA
4bd2: 3a bc 38     ld   a,($38BC)
4bd5: 6f           ld   l,a
4bd6: 26 00        ld   h,$00
4bd8: 29           add  hl,hl
4bd9: eb           ex   de,hl
4bda: 2a d8 38     ld   hl,($38D8)
4bdd: cd 0a 38     call $380A
4be0: 77           ld   (hl),a
4be1: 23           inc  hl
4be2: 1b           dec  de
4be3: 7a           ld   a,d
4be4: b3           or   e
4be5: 20 f6        jr   nz,$4BDD
4be7: c1           pop  bc
4be8: e1           pop  hl
4be9: c9           ret
4bea: e5           push hl
4beb: c5           push bc
4bec: 21 a0 38     ld   hl,$38A0
4bef: cd da 37     call $37DA
4bf2: 3a bc 38     ld   a,($38BC)
4bf5: 6f           ld   l,a
4bf6: 26 00        ld   h,$00
4bf8: 29           add  hl,hl
4bf9: eb           ex   de,hl
4bfa: 2a d8 38     ld   hl,($38D8)
4bfd: 7e           ld   a,(hl)
4bfe: cd fa 37     call $37FA
4c01: 23           inc  hl
4c02: 1b           dec  de
4c03: 7a           ld   a,d
4c04: b3           or   e
4c05: 20 f6        jr   nz,$4BFD
4c07: c1           pop  bc
4c08: e1           pop  hl
4c09: c9           ret
4c0a: cd 68 37     call $3768
4c0d: 2a 6d 38     ld   hl,($386D)
4c10: e5           push hl
4c11: e5           push hl
4c12: ed 5b aa 38  ld   de,($38AA)
4c16: af           xor  a
4c17: ed 52        sbc  hl,de
4c19: e1           pop  hl
4c1a: 28 18        jr   z,$4C34
4c1c: e5           push hl
4c1d: ed 5b c9 38  ld   de,($38C9)
4c21: b7           or   a
4c22: ed 52        sbc  hl,de
4c24: e1           pop  hl
4c25: c2 2b 35     jp   nz,$352B
4c28: 2a cb 38     ld   hl,($38CB)
4c2b: 2b           dec  hl
4c2c: cd ca 37     call $37CA
4c2f: cd 39 35     call $3539
4c32: e6 c8        and  $C8
4c34: 57           ld   d,a
4c35: e1           pop  hl
4c36: c3 ca 37     jp   $37CA
4c39: cd 49 35     call $3549
4c3c: e6 30        and  $30
4c3e: ee 30        xor  $30
4c40: 7a           ld   a,d
4c41: 20 02        jr   nz,$4C45
4c43: f6 08        or   $08
4c45: e6 c8        and  $C8
4c47: 57           ld   d,a
4c48: c9           ret
4c49: 21 01 00     ld   hl,$0001
4c4c: 22 81 38     ld   ($3881),hl
4c4f: 21 7e 38     ld   hl,$387E
4c52: cd da 37     call $37DA
4c55: cd 0a 38     call $380A
4c58: 57           ld   d,a
4c59: c9           ret
4c5a: 3e 0d        ld   a,$0D
4c5c: c3 f4 37     jp   $37F4
4c5f: 3e 0c        ld   a,$0C
4c61: c3 f4 37     jp   $37F4
4c64: 3e 20        ld   a,$20
4c66: c3 62 2c     jp   $2C62
4c69: 32 45 36     ld   ($3645),a
4c6c: ed 43 43 36  ld   ($3643),bc
4c70: f5           push af
4c71: 3e ff        ld   a,$FF
4c73: 32 55 12     ld   ($1255),a
4c76: 3a c0 38     ld   a,($38C0)
4c79: 32 48 36     ld   ($3648),a
4c7c: f1           pop  af
4c7d: 22 46 36     ld   ($3646),hl
4c80: cb 6f        bit  5,a
4c82: c2 23 36     jp   nz,$3623
4c85: cb 47        bit  0,a
4c87: 3e ff        ld   a,$FF
4c89: 20 01        jr   nz,$4C8C
4c8b: af           xor  a
4c8c: 32 d7 38     ld   ($38D7),a
4c8f: 3a 3d 36     ld   a,($363D)
4c92: b7           or   a
4c93: 20 17        jr   nz,$4CAC
4c95: 3e ff        ld   a,$FF
4c97: 32 3d 36     ld   ($363D),a
4c9a: 2a bd 38     ld   hl,($38BD)
4c9d: 22 3e 36     ld   ($363E),hl
4ca0: 3a d7 38     ld   a,($38D7)
4ca3: b7           or   a
4ca4: 21 80 b1     ld   hl,$B180
4ca7: c4 49 36     call nz,$3649
4caa: 18 15        jr   $4CC1
4cac: 3e ff        ld   a,$FF
4cae: 32 40 36     ld   ($3640),a
4cb1: 2a bd 38     ld   hl,($38BD)
4cb4: 22 41 36     ld   ($3641),hl
4cb7: 3a d7 38     ld   a,($38D7)
4cba: b7           or   a
4cbb: 21 20 b2     ld   hl,$B220
4cbe: c4 49 36     call nz,$3649
4cc1: 3a 45 36     ld   a,($3645)
4cc4: cb 67        bit  4,a
4cc6: 20 05        jr   nz,$4CCD
4cc8: 3e 18        ld   a,$18
4cca: cd 24 34     call $3424
4ccd: 21 00 18     ld   hl,$1800
4cd0: cd 65 37     call $3765
4cd3: 3a 45 36     ld   a,($3645)
4cd6: cb 4f        bit  1,a
4cd8: 28 0c        jr   z,$4CE6
4cda: cd d7 30     call $30D7
4cdd: ed 4b 43 36  ld   bc,($3643)
4ce1: 0c           inc  c
4ce2: ed 43 43 36  ld   ($3643),bc
4ce6: 3a 45 36     ld   a,($3645)
4ce9: cb 5f        bit  3,a
4ceb: c4 a6 18     call nz,$18A6
4cee: 21 00 18     ld   hl,$1800
4cf1: ed 4b 43 36  ld   bc,($3643)
4cf5: 06 00        ld   b,$00
4cf7: 09           add  hl,bc
4cf8: cd 65 37     call $3765
4cfb: 3a 45 36     ld   a,($3645)
4cfe: cb 57        bit  2,a
4d00: 28 03        jr   z,$4D05
4d02: cd c8 30     call $30C8
4d05: 2a 46 36     ld   hl,($3646)
4d08: e5           push hl
4d09: e1           pop  hl
4d0a: 7e           ld   a,(hl)
4d0b: b7           or   a
4d0c: 28 08        jr   z,$4D16
4d0e: 23           inc  hl
4d0f: e5           push hl
4d10: 4f           ld   c,a
4d11: cd 62 2c     call $2C62
4d14: 18 f3        jr   $4D09
4d16: 21 80 b1     ld   hl,$B180
4d19: 22 d8 38     ld   ($38D8),hl
4d1c: cd 86 2d     call $2D86
4d1f: cd bc 30     call $30BC
4d22: c9           ret
4d23: ed 5b bd 38  ld   de,($38BD)
4d27: d5           push de
4d28: cd c1 35     call $35C1
4d2b: e1           pop  hl
4d2c: cd 65 37     call $3765
4d2f: cd 97 2d     call $2D97
4d32: 3a 48 36     ld   a,($3648)
4d35: 32 c0 38     ld   ($38C0),a
4d38: af           xor  a
4d39: 32 55 12     ld   ($1255),a
4d3c: c9           ret
4d3d: 00           nop
4d3e: 00           nop
4d3f: 00           nop
4d40: 00           nop
4d41: 00           nop
4d42: 00           nop
4d43: 00           nop
4d44: 00           nop
4d45: 00           nop
4d46: 00           nop
4d47: 00           nop
4d48: 04           inc  b
4d49: 22 d8 38     ld   ($38D8),hl
4d4c: 21 00 18     ld   hl,$1800
4d4f: cd 6b 37     call $376B
4d52: cd ca 34     call $34CA
4d55: c9           ret
4d56: 21 d7 38     ld   hl,$38D7
4d59: a6           and  (hl)
4d5a: 20 08        jr   nz,$4D64
4d5c: 3e 18        ld   a,$18
4d5e: cd 24 34     call $3424
4d61: c3 89 36     jp   $3689
4d64: 3a 40 36     ld   a,($3640)
4d67: b7           or   a
4d68: 28 0f        jr   z,$4D79
4d6a: af           xor  a
4d6b: 32 40 36     ld   ($3640),a
4d6e: 21 20 b2     ld   hl,$B220
4d71: cd a8 36     call $36A8
4d74: 2a 41 36     ld   hl,($3641)
4d77: 18 1c        jr   $4D95
4d79: af           xor  a
4d7a: 32 3d 36     ld   ($363D),a
4d7d: 32 d7 38     ld   ($38D7),a
4d80: 32 40 36     ld   ($3640),a
4d83: 21 80 b1     ld   hl,$B180
4d86: cd a8 36     call $36A8
4d89: af           xor  a
4d8a: 32 55 12     ld   ($1255),a
4d8d: 3e ff        ld   a,$FF
4d8f: 32 59 12     ld   ($1259),a
4d92: 2a 3e 36     ld   hl,($363E)
4d95: cd 65 37     call $3765
4d98: 21 80 b1     ld   hl,$B180
4d9b: 22 d8 38     ld   ($38D8),hl
4d9e: cd 97 2d     call $2D97
4da1: 3a 48 36     ld   a,($3648)
4da4: 32 c0 38     ld   ($38C0),a
4da7: c9           ret
4da8: 22 d8 38     ld   ($38D8),hl
4dab: 26 18        ld   h,$18
4dad: 2e 00        ld   l,$00
4daf: cd 6b 37     call $376B
4db2: cd ea 34     call $34EA
4db5: c9           ret
4db6: 3e ff        ld   a,$FF
4db8: 32 54 12     ld   ($1254),a
4dbb: e5           push hl
4dbc: 2a bd 38     ld   hl,($38BD)
4dbf: 22 22 37     ld   ($3722),hl
4dc2: e1           pop  hl
4dc3: cd 6b 37     call $376B
4dc6: 21 86 38     ld   hl,$3886
4dc9: cd da 37     call $37DA
4dcc: cd 0a 38     call $380A
4dcf: 32 20 37     ld   ($3720),a
4dd2: b7           or   a
4dd3: 28 02        jr   z,$4DD7
4dd5: d6 20        sub  $20
4dd7: 57           ld   d,a
4dd8: d5           push de
4dd9: cd 0a 38     call $380A
4ddc: d1           pop  de
4ddd: 5f           ld   e,a
4dde: 32 21 37     ld   ($3721),a
4de1: d5           push de
4de2: 21 1f 37     ld   hl,$371F
4de5: 72           ld   (hl),d
4de6: af           xor  a
4de7: ed 6f        rld  (hl)
4de9: 57           ld   d,a
4dea: 5e           ld   e,(hl)
4deb: e1           pop  hl
4dec: 7d           ld   a,l
4ded: f5           push af
4dee: 21 11 55     ld   hl,$5511
4df1: 19           add  hl,de
4df2: 01 08 00     ld   bc,$0008
4df5: 11 2c 37     ld   de,$372C
4df8: ed b0        ldir
4dfa: 01 08 00     ld   bc,$0008
4dfd: 11 24 37     ld   de,$3724
4e00: ed b0        ldir
4e02: f1           pop  af
4e03: e6 08        and  $08
4e05: 21 24 37     ld   hl,$3724
4e08: c4 34 37     call nz,$3734
4e0b: af           xor  a
4e0c: 32 54 12     ld   ($1254),a
4e0f: 2a 22 37     ld   hl,($3722)
4e12: 22 bd 38     ld   ($38BD),hl
4e15: 21 20 37     ld   hl,$3720
4e18: 46           ld   b,(hl)
4e19: 23           inc  hl
4e1a: 4e           ld   c,(hl)
4e1b: 21 24 37     ld   hl,$3724
4e1e: c9           ret
4e1f: 00           nop
4e20: 00           nop
4e21: 00           nop
4e22: 00           nop
4e23: 00           nop
4e24: 00           nop
4e25: 00           nop
4e26: 00           nop
4e27: 00           nop
4e28: 00           nop
4e29: 00           nop
4e2a: 00           nop
4e2b: 00           nop
4e2c: 00           nop
4e2d: 00           nop
4e2e: 00           nop
4e2f: 00           nop
4e30: 00           nop
4e31: 00           nop
4e32: 00           nop
4e33: 00           nop
4e34: 06 10        ld   b,$10
4e36: 7e           ld   a,(hl)
4e37: 2f           cpl
4e38: 77           ld   (hl),a
4e39: 23           inc  hl
4e3a: 10 fa        djnz $4E36
4e3c: c9           ret
4e3d: 2a bd 38     ld   hl,($38BD)
4e40: c9           ret
4e41: 3a be 38     ld   a,($38BE)
4e44: c6 20        add  a,$20
4e46: 47           ld   b,a
4e47: 3a bd 38     ld   a,($38BD)
4e4a: c6 20        add  a,$20
4e4c: 4f           ld   c,a
4e4d: c5           push bc
4e4e: cd 6a 16     call $166A
4e51: c1           pop  bc
4e52: 78           ld   a,b
4e53: c5           push bc
4e54: cd 81 16     call $1681
4e57: c1           pop  bc
4e58: 79           ld   a,c
4e59: cd 81 16     call $1681
4e5c: 3e 0d        ld   a,$0D
4e5e: cd 81 16     call $1681
4e61: c9           ret
4e62: 21 00 00     ld   hl,$0000
4e65: 22 bd 38     ld   ($38BD),hl
4e68: 2a bd 38     ld   hl,($38BD)
4e6b: d5           push de
4e6c: af           xor  a
4e6d: 32 d3 38     ld   ($38D3),a
4e70: 7c           ld   a,h
4e71: fe 18        cp   $18
4e73: 20 20        jr   nz,$4E95
4e75: 3a 59 89     ld   a,($8959)
4e78: b7           or   a
4e79: 28 11        jr   z,$4E8C
4e7b: e5           push hl
4e7c: 2a d1 38     ld   hl,($38D1)
4e7f: ed 5b 62 89  ld   de,($8962)
4e83: 19           add  hl,de
4e84: 22 62 89     ld   ($8962),hl
4e87: e1           pop  hl
4e88: 26 00        ld   h,$00
4e8a: 18 09        jr   $4E95
4e8c: 26 00        ld   h,$00
4e8e: ed 5b cd 38  ld   de,($38CD)
4e92: 19           add  hl,de
4e93: 18 29        jr   $4EBE
4e95: 11 14 38     ld   de,$3814
4e98: 7d           ld   a,l
4e99: 6c           ld   l,h
4e9a: 26 00        ld   h,$00
4e9c: 29           add  hl,hl
4e9d: 19           add  hl,de
4e9e: 86           add  a,(hl)
4e9f: 5f           ld   e,a
4ea0: 23           inc  hl
4ea1: 7e           ld   a,(hl)
4ea2: ce 00        adc  a,$00
4ea4: 57           ld   d,a
4ea5: 2a aa 38     ld   hl,($38AA)
4ea8: 19           add  hl,de
4ea9: e5           push hl
4eaa: ed 5b cb 38  ld   de,($38CB)
4eae: af           xor  a
4eaf: ed 52        sbc  hl,de
4eb1: eb           ex   de,hl
4eb2: e1           pop  hl
4eb3: 38 09        jr   c,$4EBE
4eb5: 2a c9 38     ld   hl,($38C9)
4eb8: 19           add  hl,de
4eb9: 3e 01        ld   a,$01
4ebb: 32 d3 38     ld   ($38D3),a
4ebe: d1           pop  de
4ebf: 3a 59 89     ld   a,($8959)
4ec2: b7           or   a
4ec3: 28 05        jr   z,$4ECA
4ec5: ed 5b 62 89  ld   de,($8962)
4ec9: 19           add  hl,de
4eca: 22 6d 38     ld   ($386D),hl
4ecd: 21 6b 38     ld   hl,$386B
4ed0: c3 da 37     jp   $37DA
4ed3: ed 5b 62 89  ld   de,($8962)
4ed7: 19           add  hl,de
4ed8: 18 e4        jr   $4EBE
4eda: c5           push bc
4edb: 46           ld   b,(hl)
4edc: 23           inc  hl
4edd: 78           ld   a,b
4ede: b7           or   a
4edf: 28 11        jr   z,$4EF2
4ee1: 7e           ld   a,(hl)
4ee2: 23           inc  hl
4ee3: cd f4 37     call $37F4
4ee6: 05           dec  b
4ee7: 28 f2        jr   z,$4EDB
4ee9: 7e           ld   a,(hl)
4eea: 23           inc  hl
4eeb: cd fa 37     call $37FA
4eee: 10 f9        djnz $4EE9
4ef0: 18 e9        jr   $4EDB
4ef2: c1           pop  bc
4ef3: c9           ret
4ef4: cd 00 38     call $3800
4ef7: d3 39        out  ($39),a
4ef9: c9           ret
4efa: cd 00 38     call $3800
4efd: d3 38        out  ($38),a
4eff: c9           ret
4f00: f5           push af
4f01: db 38        in   a,($38)
4f03: e6 02        and  $02
4f05: c2 01 38     jp   nz,$3801
4f08: f1           pop  af
4f09: c9           ret
4f0a: db 38        in   a,($38)
4f0c: e6 01        and  $01
4f0e: ca 0a 38     jp   z,$380A
4f11: db 39        in   a,($39)
4f13: c9           ret
4f14: 00           nop
4f15: 00           nop
4f16: 50           ld   d,b
4f17: 00           nop
4f18: a0           and  b
4f19: 00           nop
4f1a: f0           ret  p
4f1b: 00           nop
4f1c: 40           ld   b,b
4f1d: 01 90 01     ld   bc,$0190
4f20: e0           ret  po
4f21: 01 30 02     ld   bc,$0230
4f24: 80           add  a,b
4f25: 02           ld   (bc),a
4f26: d0           ret  nc
4f27: 02           ld   (bc),a
4f28: 20 03        jr   nz,$4F2D
4f2a: 70           ld   (hl),b
4f2b: 03           inc  bc
4f2c: c0           ret  nz
4f2d: 03           inc  bc
4f2e: 10 04        djnz $4F34
4f30: 60           ld   h,b
4f31: 04           inc  b
4f32: b0           or   b
4f33: 04           inc  b
4f34: 00           nop
4f35: 05           dec  b
4f36: 50           ld   d,b
4f37: 05           dec  b
4f38: a0           and  b
4f39: 05           dec  b
4f3a: f0           ret  p
4f3b: 05           dec  b
4f3c: 40           ld   b,b
4f3d: 06 90        ld   b,$90
4f3f: 06 e0        ld   b,$E0
4f41: 06 30        ld   b,$30
4f43: 07           rlca
4f44: 80           add  a,b
4f45: 07           rlca
4f46: 09           add  hl,bc
4f47: 0e 14        ld   c,$14
4f49: 4e           ld   c,(hl)
4f4a: 43           ld   b,e
4f4b: 0d           dec  c
4f4c: 11 01 90     ld   de,$9001
4f4f: 29           add  hl,hl
4f50: 00           nop
4f51: 04           inc  b
4f52: 4b           ld   c,e
4f53: 0f           rrca
4f54: 6d           ld   l,l
4f55: 70           ld   (hl),b
4f56: 00           nop
4f57: 02           ld   (bc),a
4f58: 46           ld   b,(hl)
4f59: 00           nop
4f5a: 00           nop
4f5b: 02           ld   (bc),a
4f5c: 47           ld   b,a
4f5d: 50           ld   d,b
4f5e: 00           nop
4f5f: 05           dec  b
4f60: 70           ld   (hl),b
4f61: 00           nop
4f62: 00           nop
4f63: 00           nop
4f64: 19           add  hl,de
4f65: 00           nop
4f66: 03           inc  bc
4f67: 4a           ld   c,d
4f68: ff           rst  $38
4f69: ff           rst  $38
4f6a: 00           nop
4f6b: 03           inc  bc
4f6c: 49           ld   c,c
4f6d: 00           nop
4f6e: 00           nop
4f6f: 00           nop
4f70: 03           inc  bc
4f71: 20 00        jr   nz,$4F73
4f73: 00           nop
4f74: 00           nop
4f75: 04           inc  b
4f76: 4c           ld   c,h
4f77: 02           ld   (bc),a
4f78: 00           nop
4f79: 00           nop
4f7a: 02           ld   (bc),a
4f7b: 00           nop
4f7c: 00           nop
4f7d: 00           nop
4f7e: 04           inc  b
4f7f: 4c           ld   c,h
4f80: 02           ld   (bc),a
4f81: 00           nop
4f82: 00           nop
4f83: 01 b8 00     ld   bc,$00B8
4f86: 04           inc  b
4f87: 4c           ld   c,h
4f88: 02           ld   (bc),a
4f89: 01 00 01     ld   bc,$0100
4f8c: a0           and  b
4f8d: 00           nop
4f8e: 04           inc  b
4f8f: 4c           ld   c,h
4f90: 02           ld   (bc),a
4f91: 00           nop
4f92: 00           nop
4f93: 03           inc  bc
4f94: 20 00        jr   nz,$4F96
4f96: 00           nop
4f97: 00           nop
4f98: 04           inc  b
4f99: 4c           ld   c,h
4f9a: 02           ld   (bc),a
4f9b: 50           ld   d,b
4f9c: 00           nop
4f9d: 01 a0 00     ld   bc,$00A0
4fa0: 04           inc  b
4fa1: 4c           ld   c,h
4fa2: 02           ld   (bc),a
4fa3: 00           nop
4fa4: 00           nop
4fa5: 01 20 00     ld   bc,$0020
4fa8: 0d           dec  c
4fa9: 70           ld   (hl),b
4faa: 00           nop
4fab: 00           nop
4fac: 00           nop
4fad: 00           nop
4fae: 00           nop
4faf: 00           nop
4fb0: 00           nop
4fb1: 00           nop
4fb2: af           xor  a
4fb3: ff           rst  $38
4fb4: 00           nop
4fb5: 01 02 4c     ld   bc,$4C02
4fb8: 02           ld   (bc),a
4fb9: 00           nop
4fba: 00           nop
4fbb: 00           nop
4fbc: 50           ld   d,b
4fbd: 00           nop
4fbe: 00           nop
4fbf: 18 04        jr   $4FC5
4fc1: 00           nop
4fc2: 00           nop
4fc3: 00           nop
4fc4: 00           nop
4fc5: 00           nop
4fc6: 00           nop
4fc7: 00           nop
4fc8: 00           nop
4fc9: 00           nop
4fca: 00           nop
4fcb: 80           add  a,b
4fcc: 07           rlca
4fcd: af           xor  a
4fce: ff           rst  $38
4fcf: 80           add  a,b
4fd0: 07           rlca
4fd1: 80           add  a,b
4fd2: 07           rlca
4fd3: 00           nop
4fd4: 44           ld   b,h
4fd5: 8f           adc  a,a
4fd6: 00           nop
4fd7: 00           nop
4fd8: 80           add  a,b
4fd9: b1           or   c
4fda: 00           nop
4fdb: 00           nop
4fdc: 54           ld   d,h
4fdd: 56           ld   d,(hl)
4fde: 2d           dec  l
4fdf: 39           add  hl,sp
4fe0: 32 30 00     ld   ($0030),a
4fe3: 00           nop
4fe4: 34           inc  (hl)
4fe5: 00           nop
4fe6: 00           nop
4fe7: 00           nop
4fe8: 00           nop
4fe9: 00           nop
4fea: 00           nop
4feb: 00           nop
4fec: 00           nop
4fed: 00           nop
4fee: 00           nop
4fef: 00           nop
4ff0: 00           nop
4ff1: 00           nop
4ff2: 00           nop
4ff3: 00           nop
4ff4: 00           nop
4ff5: 00           nop
4ff6: 00           nop
4ff7: 00           nop
4ff8: 00           nop
4ff9: 00           nop
4ffa: 00           nop
4ffb: 00           nop
4ffc: 00           nop
4ffd: 00           nop
4ffe: 00           nop
4fff: 00           nop
5000: 00           nop
5001: 00           nop
5002: 00           nop
5003: 00           nop
5004: 00           nop
5005: 00           nop
5006: 00           nop
5007: 00           nop
5008: 00           nop
5009: 00           nop
500a: 00           nop
500b: 00           nop
500c: 00           nop
500d: 00           nop
500e: 00           nop
500f: 00           nop
5010: 00           nop
5011: 00           nop
5012: 00           nop
5013: 00           nop
5014: 00           nop
5015: 00           nop
5016: 00           nop
5017: 00           nop
5018: 00           nop
5019: 00           nop
501a: 00           nop
501b: 00           nop
501c: 00           nop
501d: 00           nop
501e: 00           nop
501f: 00           nop
5020: 00           nop
5021: 00           nop
5022: 00           nop
5023: 00           nop
5024: 00           nop
5025: 00           nop
5026: 00           nop
5027: 00           nop
5028: 00           nop
5029: 00           nop
502a: 00           nop
502b: 00           nop
502c: 00           nop
502d: 00           nop
502e: 00           nop
502f: 00           nop
5030: 00           nop
5031: 00           nop
5032: 00           nop
5033: 00           nop
5034: 00           nop
5035: 00           nop
5036: 00           nop
5037: 00           nop
5038: 00           nop
5039: 00           nop
503a: 00           nop
503b: 00           nop
503c: 00           nop
503d: 00           nop
503e: 00           nop
503f: 00           nop
5040: 00           nop
5041: 00           nop
5042: 00           nop
5043: 00           nop
5044: 00           nop
5045: 00           nop
5046: 00           nop
5047: 00           nop
5048: 00           nop
5049: 00           nop
504a: 00           nop
504b: 00           nop
504c: 00           nop
504d: 00           nop
504e: 00           nop
504f: 00           nop
5050: 00           nop
5051: 00           nop
5052: 00           nop
5053: 00           nop
5054: 00           nop
5055: 00           nop
5056: 00           nop
5057: 00           nop
5058: 00           nop
5059: 00           nop
505a: 00           nop
505b: 00           nop
505c: 00           nop
505d: 00           nop
505e: 00           nop
505f: 00           nop
5060: 00           nop
5061: 00           nop
5062: 00           nop
5063: 00           nop
5064: 00           nop
5065: 00           nop
5066: 00           nop
5067: 00           nop
5068: 00           nop
5069: 00           nop
506a: 00           nop
506b: 00           nop
506c: 00           nop
506d: 00           nop
506e: 00           nop
506f: 00           nop
5070: 00           nop
5071: 00           nop
5072: 00           nop
5073: 00           nop
5074: 00           nop
5075: 00           nop
5076: 00           nop
5077: 00           nop
5078: 00           nop
5079: 00           nop
507a: 00           nop
507b: 00           nop
507c: 00           nop
507d: 00           nop
507e: 00           nop
507f: 00           nop
5080: 00           nop
5081: 00           nop
5082: 00           nop
5083: 00           nop
5084: 00           nop
5085: 00           nop
5086: 00           nop
5087: 00           nop
5088: 00           nop
5089: 00           nop
508a: 00           nop
508b: 00           nop
508c: 00           nop
508d: 00           nop
508e: 00           nop
508f: 00           nop
5090: 00           nop
5091: 00           nop
5092: 00           nop
5093: 00           nop
5094: 00           nop
5095: 00           nop
5096: 00           nop
5097: 00           nop
5098: 00           nop
5099: 00           nop
509a: 00           nop
509b: 00           nop
509c: 00           nop
509d: 00           nop
509e: 00           nop
509f: 00           nop
50a0: 00           nop
50a1: 00           nop
50a2: 00           nop
50a3: 00           nop
50a4: 00           nop
50a5: 00           nop
50a6: 00           nop
50a7: 00           nop
50a8: 00           nop
50a9: 00           nop
50aa: 00           nop
50ab: 00           nop
50ac: 00           nop
50ad: 00           nop
50ae: 00           nop
50af: 00           nop
50b0: 00           nop
50b1: 00           nop
50b2: 00           nop
50b3: 00           nop
50b4: 00           nop
50b5: 00           nop
50b6: 00           nop
50b7: 00           nop
50b8: 00           nop
50b9: 00           nop
50ba: 00           nop
50bb: 00           nop
50bc: 00           nop
50bd: 00           nop
50be: 00           nop
50bf: 00           nop
50c0: 00           nop
50c1: 00           nop
50c2: 00           nop
50c3: 00           nop
50c4: 00           nop
50c5: 00           nop
50c6: 00           nop
50c7: 00           nop
50c8: 00           nop
50c9: 00           nop
50ca: 00           nop
50cb: 00           nop
50cc: 00           nop
50cd: 00           nop
50ce: 00           nop
50cf: 00           nop
50d0: 00           nop
50d1: 00           nop
50d2: 00           nop
50d3: 00           nop
50d4: 00           nop
50d5: 00           nop
50d6: 00           nop
50d7: 00           nop
50d8: 00           nop
50d9: 00           nop
50da: 00           nop
50db: 00           nop
50dc: 00           nop
50dd: 00           nop
50de: 00           nop
50df: 00           nop
50e0: 00           nop
50e1: 00           nop
50e2: 00           nop
50e3: 00           nop
50e4: 00           nop
50e5: 00           nop
50e6: 00           nop
50e7: 00           nop
50e8: 00           nop
50e9: 00           nop
50ea: c3 10 3a     jp   $3A10
50ed: c3 4d 49     jp   $494D
50f0: c3 e0 3c     jp   $3CE0
50f3: c3 d5 3c     jp   $3CD5
50f6: c3 7a 4d     jp   $4D7A
50f9: c3 9f 4d     jp   $4D9F
50fc: c3 a4 4c     jp   $4CA4
50ff: c3 44 4b     jp   $4B44
5102: c3 1a 4c     jp   $4C1A
5105: 50           ld   d,b
5106: 80           add  a,b
5107: 02           ld   (bc),a
5108: 80           add  a,b
5109: 3e 00        ld   a,$00
510b: 00           nop
510c: 00           nop
510d: 00           nop
510e: 00           nop
510f: 00           nop
5110: 21 c6 4f     ld   hl,$4FC6
5113: 71           ld   (hl),c
5114: 3e ff        ld   a,$FF
5116: 32 54 12     ld   ($1254),a
5119: cd 30 4b     call $4B30
511c: 3a a3 4f     ld   a,($4FA3)
511f: b7           or   a
5120: c2 e6 3c     jp   nz,$3CE6
5123: 3a a2 4f     ld   a,($4FA2)
5126: b7           or   a
5127: 28 04        jr   z,$512D
5129: 2a a4 4f     ld   hl,($4FA4)
512c: e9           jp   (hl)
512d: 3a c6 4f     ld   a,($4FC6)
5130: b7           or   a
5131: 28 13        jr   z,$5146
5133: fe 20        cp   $20
5135: da fa 3c     jp   c,$3CFA
5138: 3a 31 27     ld   a,($2731)
513b: b7           or   a
513c: 28 02        jr   z,$5140
513e: cb b9        res  7,c
5140: 3a c6 4f     ld   a,($4FC6)
5143: cd 4b 3a     call $3A4B
5146: af           xor  a
5147: 32 54 12     ld   ($1254),a
514a: c9           ret
514b: 32 8f 4f     ld   ($4F8F),a
514e: 21 9b 4f     ld   hl,$4F9B
5151: 3a 9c 4f     ld   a,($4F9C)
5154: b6           or   (hl)
5155: cc 61 3a     call z,$3A61
5158: ca 92 3a     jp   z,$3A92
515b: c4 0f 3b     call nz,$3B0F
515e: c3 92 3a     jp   $3A92
5161: 3a 8f 4f     ld   a,($4F8F)
5164: f5           push af
5165: 21 90 4f     ld   hl,$4F90
5168: 96           sub  (hl)
5169: 32 8f 4f     ld   ($4F8F),a
516c: 21 8f 4f     ld   hl,$4F8F
516f: af           xor  a
5170: ed 6f        rld  (hl)
5172: 57           ld   d,a
5173: 5e           ld   e,(hl)
5174: f1           pop  af
5175: e6 80        and  $80
5177: 21 11 55     ld   hl,$5511
517a: 20 03        jr   nz,$517F
517c: 2a 91 4f     ld   hl,($4F91)
517f: 19           add  hl,de
5180: 01 08 00     ld   bc,$0008
5183: 11 08 4f     ld   de,$4F08
5186: ed b0        ldir
5188: 01 08 00     ld   bc,$0008
518b: 11 19 4f     ld   de,$4F19
518e: ed b0        ldir
5190: af           xor  a
5191: c9           ret
5192: cd 26 44     call $4426
5195: 28 2d        jr   z,$51C4
5197: 2a 94 4f     ld   hl,($4F94)
519a: cd 2a 49     call $492A
519d: 32 89 4f     ld   ($4F89),a
51a0: e6 0f        and  $0F
51a2: c4 ec 3a     call nz,$3AEC
51a5: 3a 89 4f     ld   a,($4F89)
51a8: e6 40        and  $40
51aa: 28 05        jr   z,$51B1
51ac: 3e ff        ld   a,$FF
51ae: 32 0e 4f     ld   ($4F0E),a
51b1: 3a 89 4f     ld   a,($4F89)
51b4: e6 80        and  $80
51b6: 28 2b        jr   z,$51E3
51b8: 21 08 4f     ld   hl,$4F08
51bb: cd 04 3b     call $3B04
51be: 21 19 4f     ld   hl,$4F19
51c1: cd 04 3b     call $3B04
51c4: 3a c1 4f     ld   a,($4FC1)
51c7: fe ff        cp   $FF
51c9: 20 05        jr   nz,$51D0
51cb: 3e ff        ld   a,$FF
51cd: 32 0e 4f     ld   ($4F0E),a
51d0: 3a c2 4f     ld   a,($4FC2)
51d3: fe ff        cp   $FF
51d5: 20 0c        jr   nz,$51E3
51d7: 21 08 4f     ld   hl,$4F08
51da: cd 04 3b     call $3B04
51dd: 21 19 4f     ld   hl,$4F19
51e0: cd 04 3b     call $3B04
51e3: 21 05 4f     ld   hl,$4F05
51e6: cd 3f 4e     call $4E3F
51e9: c3 50 3b     jp   $3B50
51ec: e5           push hl
51ed: 2a 94 4f     ld   hl,($4F94)
51f0: cd 15 49     call $4915
51f3: e1           pop  hl
51f4: 77           ld   (hl),a
51f5: 32 89 4f     ld   ($4F89),a
51f8: f5           push af
51f9: 2a 94 4f     ld   hl,($4F94)
51fc: cd e1 42     call $42E1
51ff: f1           pop  af
5200: cd a3 41     call $41A3
5203: c9           ret
5204: f5           push af
5205: 06 08        ld   b,$08
5207: 7e           ld   a,(hl)
5208: 2f           cpl
5209: 77           ld   (hl),a
520a: 23           inc  hl
520b: 10 fa        djnz $5207
520d: f1           pop  af
520e: c9           ret
520f: 3a 8f 4f     ld   a,($4F8F)
5212: d6 20        sub  $20
5214: 32 8f 4f     ld   ($4F8F),a
5217: cd 4d 47     call $474D
521a: 21 00 bf     ld   hl,$BF00
521d: 19           add  hl,de
521e: e5           push hl
521f: 3a 9b 4f     ld   a,($4F9B)
5222: b7           or   a
5223: ca 3b 3b     jp   z,$3B3B
5226: e1           pop  hl
5227: 11 08 4f     ld   de,$4F08
522a: 01 08 00     ld   bc,$0008
522d: ed b0        ldir
522f: 21 63 4f     ld   hl,$4F63
5232: 11 19 4f     ld   de,$4F19
5235: 01 08 00     ld   bc,$0008
5238: ed b0        ldir
523a: c9           ret
523b: e1           pop  hl
523c: 11 19 4f     ld   de,$4F19
523f: 01 08 00     ld   bc,$0008
5242: ed b0        ldir
5244: 21 63 4f     ld   hl,$4F63
5247: 11 08 4f     ld   de,$4F08
524a: 01 08 00     ld   bc,$0008
524d: ed b0        ldir
524f: c9           ret
5250: 21 94 4f     ld   hl,$4F94
5253: 34           inc  (hl)
5254: 7e           ld   a,(hl)
5255: 2b           dec  hl
5256: be           cp   (hl)
5257: 20 19        jr   nz,$5272
5259: 23           inc  hl
525a: 3a 26 27     ld   a,($2726)
525d: b7           or   a
525e: 20 04        jr   nz,$5264
5260: 35           dec  (hl)
5261: c3 bb 4d     jp   $4DBB
5264: af           xor  a
5265: 77           ld   (hl),a
5266: 23           inc  hl
5267: 34           inc  (hl)
5268: 7e           ld   a,(hl)
5269: 23           inc  hl
526a: be           cp   (hl)
526b: 20 f4        jr   nz,$5261
526d: 2b           dec  hl
526e: 35           dec  (hl)
526f: c3 8f 3b     jp   $3B8F
5272: cb 3f        srl  a
5274: 38 12        jr   c,$5288
5276: 3e 00        ld   a,$00
5278: 32 ca 4e     ld   ($4ECA),a
527b: 2a c8 4e     ld   hl,($4EC8)
527e: 23           inc  hl
527f: 22 c8 4e     ld   ($4EC8),hl
5282: 21 c5 4e     ld   hl,$4EC5
5285: c3 3f 4e     jp   $4E3F
5288: 3e 80        ld   a,$80
528a: 32 ca 4e     ld   ($4ECA),a
528d: 18 f3        jr   $5282
528f: 3a bd 4f     ld   a,($4FBD)
5292: f5           push af
5293: cd d5 3c     call $3CD5
5296: 3e 00        ld   a,$00
5298: cd 5a 47     call $475A
529b: cd 71 3c     call $3C71
529e: 3e 17        ld   a,$17
52a0: cd 5a 47     call $475A
52a3: cd 26 44     call $4426
52a6: 28 37        jr   z,$52DF
52a8: 06 17        ld   b,$17
52aa: 26 01        ld   h,$01
52ac: 2e 00        ld   l,$00
52ae: c5           push bc
52af: e5           push hl
52b0: cd 72 45     call $4572
52b3: e1           pop  hl
52b4: 24           inc  h
52b5: 2c           inc  l
52b6: c1           pop  bc
52b7: 10 f5        djnz $52AE
52b9: 26 17        ld   h,$17
52bb: 2e 00        ld   l,$00
52bd: cd 2a 49     call $492A
52c0: 3a 05 3a     ld   a,($3A05)
52c3: 47           ld   b,a
52c4: af           xor  a
52c5: 77           ld   (hl),a
52c6: 23           inc  hl
52c7: 10 fc        djnz $52C5
52c9: 21 00 00     ld   hl,$0000
52cc: 3e 00        ld   a,$00
52ce: cd a3 41     call $41A3
52d1: 26 16        ld   h,$16
52d3: 2e 4f        ld   l,$4F
52d5: cd 2a 49     call $492A
52d8: 26 17        ld   h,$17
52da: 2e 00        ld   l,$00
52dc: cd a3 41     call $41A3
52df: 3a a9 4f     ld   a,($4FA9)
52e2: 3c           inc  a
52e3: 32 a9 4f     ld   ($4FA9),a
52e6: fe 18        cp   $18
52e8: cc 00 44     call z,$4400
52eb: f1           pop  af
52ec: b7           or   a
52ed: 28 03        jr   z,$52F2
52ef: cd e0 3c     call $3CE0
52f2: c3 bb 4d     jp   $4DBB
52f5: f5           push af
52f6: 3a c4 4f     ld   a,($4FC4)
52f9: b7           or   a
52fa: 20 3b        jr   nz,$5337
52fc: 2a aa 4f     ld   hl,($4FAA)
52ff: 22 7e 4f     ld   ($4F7E),hl
5302: ed 5b 08 3a  ld   de,($3A08)
5306: ed 53 ae 4f  ld   ($4FAE),de
530a: 19           add  hl,de
530b: 22 ac 4f     ld   ($4FAC),hl
530e: 22 82 4f     ld   ($4F82),hl
5311: af           xor  a
5312: 32 80 4f     ld   ($4F80),a
5315: 32 84 4f     ld   ($4F84),a
5318: 3e 40        ld   a,$40
531a: 32 85 4f     ld   ($4F85),a
531d: 3e 19        ld   a,$19
531f: f6 40        or   $40
5321: 32 81 4f     ld   ($4F81),a
5324: 3e 02        ld   a,$02
5326: 32 88 4f     ld   ($4F88),a
5329: db 38        in   a,($38)
532b: e6 20        and  $20
532d: 28 fa        jr   z,$5329
532f: 21 7b 4f     ld   hl,$4F7B
5332: cd 3f 4e     call $4E3F
5335: f1           pop  af
5336: c9           ret
5337: 2a aa 4f     ld   hl,($4FAA)
533a: 22 7e 4f     ld   ($4F7E),hl
533d: ed 5b 08 3a  ld   de,($3A08)
5341: ed 53 ae 4f  ld   ($4FAE),de
5345: 19           add  hl,de
5346: 22 ac 4f     ld   ($4FAC),hl
5349: 22 82 4f     ld   ($4F82),hl
534c: 3a 99 4f     ld   a,($4F99)
534f: 32 80 4f     ld   ($4F80),a
5352: 32 84 4f     ld   ($4F84),a
5355: af           xor  a
5356: 32 85 4f     ld   ($4F85),a
5359: 3e 19        ld   a,$19
535b: 32 81 4f     ld   ($4F81),a
535e: 3e 02        ld   a,$02
5360: 32 88 4f     ld   ($4F88),a
5363: db 38        in   a,($38)
5365: e6 20        and  $20
5367: 28 fa        jr   z,$5363
5369: 21 7b 4f     ld   hl,$4F7B
536c: cd 3f 4e     call $4E3F
536f: 18 c4        jr   $5335
5371: 3a f6 54     ld   a,($54F6)
5374: e6 02        and  $02
5376: c0           ret  nz
5377: 2a 7e 4f     ld   hl,($4F7E)
537a: ed 5b 06 3a  ld   de,($3A06)
537e: 19           add  hl,de
537f: 22 7e 4f     ld   ($4F7E),hl
5382: af           xor  a
5383: 2a ae 4f     ld   hl,($4FAE)
5386: ed 52        sbc  hl,de
5388: 22 ae 4f     ld   ($4FAE),hl
538b: ed 5b aa 4f  ld   de,($4FAA)
538f: ed 53 82 4f  ld   ($4F82),de
5393: ed 52        sbc  hl,de
5395: 22 b0 4f     ld   ($4FB0),hl
5398: 3a 81 4f     ld   a,($4F81)
539b: e6 3f        and  $3F
539d: 3d           dec  a
539e: cc f5 3b     call z,$3BF5
53a1: 28 20        jr   z,$53C3
53a3: f5           push af
53a4: 3a c4 4f     ld   a,($4FC4)
53a7: b7           or   a
53a8: 20 25        jr   nz,$53CF
53aa: f1           pop  af
53ab: f6 40        or   $40
53ad: 32 81 4f     ld   ($4F81),a
53b0: 3a 85 4f     ld   a,($4F85)
53b3: e6 3f        and  $3F
53b5: 3c           inc  a
53b6: f5           push af
53b7: 3a c4 4f     ld   a,($4FC4)
53ba: b7           or   a
53bb: 20 15        jr   nz,$53D2
53bd: f1           pop  af
53be: f6 40        or   $40
53c0: 32 85 4f     ld   ($4F85),a
53c3: db 38        in   a,($38)
53c5: e6 20        and  $20
53c7: 28 fa        jr   z,$53C3
53c9: 21 7b 4f     ld   hl,$4F7B
53cc: c3 3f 4e     jp   $4E3F
53cf: f1           pop  af
53d0: 18 db        jr   $53AD
53d2: f1           pop  af
53d3: 18 eb        jr   $53C0
53d5: af           xor  a
53d6: 32 bd 4f     ld   ($4FBD),a
53d9: c9           ret
53da: cd e0 3c     call $3CE0
53dd: c3 46 3a     jp   $3A46
53e0: 3e ff        ld   a,$FF
53e2: 32 bd 4f     ld   ($4FBD),a
53e5: c9           ret
53e6: af           xor  a
53e7: 32 a3 4f     ld   ($4FA3),a
53ea: 3a c6 4f     ld   a,($4FC6)
53ed: 21 95 3d     ld   hl,$3D95
53f0: 06 1d        ld   b,$1D
53f2: 18 0b        jr   $53FF
53f4: 3e ff        ld   a,$FF
53f6: 32 a3 4f     ld   ($4FA3),a
53f9: c9           ret
53fa: 21 6d 3d     ld   hl,$3D6D
53fd: 06 14        ld   b,$14
53ff: be           cp   (hl)
5400: 28 07        jr   z,$5409
5402: 23           inc  hl
5403: 23           inc  hl
5404: 10 f9        djnz $53FF
5406: c3 46 3a     jp   $3A46
5409: 23           inc  hl
540a: 7e           ld   a,(hl)
540b: 16 00        ld   d,$00
540d: 87           add  a,a
540e: 21 1f 3d     ld   hl,$3D1F
5411: 5f           ld   e,a
5412: 19           add  hl,de
5413: 5e           ld   e,(hl)
5414: 23           inc  hl
5415: 56           ld   d,(hl)
5416: 21 46 3a     ld   hl,$3A46
5419: e5           push hl
541a: d5           push de
541b: 2a 94 4f     ld   hl,($4F94)
541e: c9           ret
541f: 44           ld   b,h
5420: 46           ld   b,(hl)
5421: 97           sub  a
5422: 3f           ccf
5423: bf           cp   a
5424: 3f           ccf
5425: da 46 92     jp   c,$9246
5428: 45           ld   b,l
5429: 2d           dec  l
542a: 44           ld   b,h
542b: 33           inc  sp
542c: 44           ld   b,h
542d: 39           add  hl,sp
542e: 44           ld   b,h
542f: 71           ld   (hl),c
5430: 44           ld   b,h
5431: 11 3f a6     ld   de,$A63F
5434: 18 1d        jr   $5453
5436: 46           ld   b,(hl)
5437: 03           inc  bc
5438: 46           ld   b,(hl)
5439: 36 46        ld   (hl),$46
543b: f6 45        or   $45
543d: 16 46        ld   d,$46
543f: f4 3c b5     call p,$B53C
5442: 4d           ld   c,l
5443: 46           ld   b,(hl)
5444: 3a 29 40     ld   a,($4029)
5447: 2f           cpl
5448: 40           ld   b,b
5449: 86           add  a,(hl)
544a: 3f           ccf
544b: 75           ld   (hl),l
544c: 3f           ccf
544d: 35           dec  (hl)
544e: 40           ld   b,b
544f: 3b           dec  sp
5450: 40           ld   b,b
5451: 9a           sbc  a,d
5452: 45           ld   b,l
5453: c6 45        add  a,$45
5455: 9c           sbc  a,h
5456: 18 a1        jr   $53F9
5458: 18 99        jr   $53F3
545a: 46           ld   b,(hl)
545b: d5           push de
545c: 46           ld   b,(hl)
545d: 8d           adc  a,l
545e: 45           ld   b,l
545f: 44           ld   b,h
5460: 46           ld   b,(hl)
5461: 4e           ld   c,(hl)
5462: 3f           ccf
5463: 7e           ld   a,(hl)
5464: 4d           ld   c,l
5465: e0           ret  po
5466: 3f           ccf
5467: 08           ex   af,af'
5468: 40           ld   b,b
5469: cf           rst  $08
546a: 3d           dec  a
546b: 08           ex   af,af'
546c: 3f           ccf
546d: 07           rlca
546e: 0a           ld   a,(bc)
546f: 08           ex   af,af'
5470: 0b           dec  bc
5471: 09           add  hl,bc
5472: 19           add  hl,de
5473: 0a           ld   a,(bc)
5474: 0c           inc  c
5475: 0b           dec  bc
5476: 0d           dec  c
5477: 0c           inc  c
5478: 0e 0d        ld   c,$0D
547a: 0f           rrca
547b: 1a           ld   a,(de)
547c: 00           nop
547d: 1b           dec  de
547e: 10 1e        djnz $549E
5480: 11 00 00     ld   de,$0000
5483: 00           nop
5484: 00           nop
5485: 00           nop
5486: 00           nop
5487: 00           nop
5488: 00           nop
5489: 00           nop
548a: 00           nop
548b: 00           nop
548c: 00           nop
548d: 00           nop
548e: 00           nop
548f: 00           nop
5490: 00           nop
5491: 00           nop
5492: 00           nop
5493: 00           nop
5494: 00           nop
5495: 2b           dec  hl
5496: 20 6a        jr   nz,$5502
5498: 01 6b 02     ld   bc,$026B
549b: 59           ld   e,c
549c: 03           inc  bc
549d: 54           ld   d,h
549e: 04           inc  b
549f: 45           ld   b,l
54a0: 05           dec  b
54a1: 49           ld   c,c
54a2: 1a           ld   a,(de)
54a3: 52           ld   d,d
54a4: 06 51        ld   b,$51
54a6: 07           rlca
54a7: 57           ld   d,a
54a8: 08           ex   af,af'
54a9: 3d           dec  a
54aa: 09           add  hl,bc
54ab: 5e           ld   e,(hl)
54ac: 13           inc  de
54ad: 71           ld   (hl),c
54ae: 14           inc  d
54af: 29           add  hl,hl
54b0: 15           dec  d
54b1: 28 16        jr   z,$54C9
54b3: 22 1c 23     ld   ($231C),hl
54b6: 1b           dec  de
54b7: 2a 1d 79     ld   hl,($791D)
54ba: 1e 74        ld   e,$74
54bc: 1f           rra
54bd: 5f           ld   e,a
54be: 17           rla
54bf: 2e 21        ld   l,$21
54c1: 3f           ccf
54c2: 22 6c 23     ld   ($236C),hl
54c5: 6d           ld   l,l
54c6: 24           inc  h
54c7: 58           ld   e,b
54c8: 25           dec  h
54c9: 50           ld   d,b
54ca: 26 00        ld   h,$00
54cc: 00           nop
54cd: 00           nop
54ce: 00           nop
54cf: 3e ff        ld   a,$FF
54d1: 32 a2 4f     ld   ($4FA2),a
54d4: 21 db 3d     ld   hl,$3DDB
54d7: 22 a4 4f     ld   ($4FA4),hl
54da: c9           ret
54db: af           xor  a
54dc: 32 a2 4f     ld   ($4FA2),a
54df: 3a c6 4f     ld   a,($4FC6)
54e2: fe 31        cp   $31
54e4: ca 41 40     jp   z,$4041
54e7: fe 32        cp   $32
54e9: ca b2 40     jp   z,$40B2
54ec: fe 33        cp   $33
54ee: ca 35 41     jp   z,$4135
54f1: fe 34        cp   $34
54f3: ca 41 41     jp   z,$4141
54f6: fe 35        cp   $35
54f8: ca 4d 41     jp   z,$414D
54fb: fe 36        cp   $36
54fd: ca 55 41     jp   z,$4155
5500: fe 37        cp   $37
5502: ca 70 41     jp   z,$4170
5505: fe 38        cp   $38
5507: ca 8b 41     jp   z,$418B
550a: fe 39        cp   $39
550c: ca 8c 41     jp   z,$418C
550f: fe 41        cp   $41
5511: ca 8d 41     jp   z,$418D
5514: fe 42        cp   $42
5516: ca 93 41     jp   z,$4193
5519: fe 43        cp   $43
551b: ca 98 41     jp   z,$4198
551e: fe 44        cp   $44
5520: ca 9e 41     jp   z,$419E
5523: fe 45        cp   $45
5525: ca da 3c     jp   z,$3CDA
5528: fe 46        cp   $46
552a: ca d5 3c     jp   z,$3CD5
552d: fe 2a        cp   $2A
552f: ca 63 3e     jp   z,$3E63
5532: fe 53        cp   $53
5534: ca 5d 3e     jp   z,$3E5D
5537: f5           push af
5538: 3a f8 54     ld   a,($54F8)
553b: b7           or   a
553c: 28 11        jr   z,$554F
553e: f1           pop  af
553f: fe 51        cp   $51
5541: ca 51 3e     jp   z,$3E51
5544: fe 52        cp   $52
5546: ca 57 3e     jp   z,$3E57
5549: fe 4f        cp   $4F
554b: ca 69 3e     jp   z,$3E69
554e: c9           ret
554f: f1           pop  af
5550: c9           ret
5551: 21 66 89     ld   hl,$8966
5554: c3 6f 3e     jp   $3E6F
5557: 21 e5 89     ld   hl,$89E5
555a: c3 6f 3e     jp   $3E6F
555d: 21 83 8a     ld   hl,$8A83
5560: c3 6f 3e     jp   $3E6F
5563: 21 d9 88     ld   hl,$88D9
5566: c3 6f 3e     jp   $3E6F
5569: 21 f6 88     ld   hl,$88F6
556c: c3 6f 3e     jp   $3E6F
556f: 22 04 3f     ld   ($3F04),hl
5572: 21 b9 88     ld   hl,$88B9
5575: 22 06 3f     ld   ($3F06),hl
5578: c3 7b 3e     jp   $3E7B
557b: 3e ff        ld   a,$FF
557d: 32 a2 4f     ld   ($4FA2),a
5580: 21 87 3e     ld   hl,$3E87
5583: 22 a4 4f     ld   ($4FA4),hl
5586: c9           ret
5587: 3a c6 4f     ld   a,($4FC6)
558a: 21 00 00     ld   hl,$0000
558d: 22 02 3f     ld   ($3F02),hl
5590: fe 2f        cp   $2F
5592: c2 de 3e     jp   nz,$3EDE
5595: 21 9e 3e     ld   hl,$3E9E
5598: 22 a4 4f     ld   ($4FA4),hl
559b: c3 46 3a     jp   $3A46
559e: 3a c6 4f     ld   a,($4FC6)
55a1: fe 0d        cp   $0D
55a3: ca de 3e     jp   z,$3EDE
55a6: fe 20        cp   $20
55a8: ca c9 3e     jp   z,$3EC9
55ab: fe 2f        cp   $2F
55ad: ca e5 3e     jp   z,$3EE5
55b0: fe 24        cp   $24
55b2: ca d2 3e     jp   z,$3ED2
55b5: d6 30        sub  $30
55b7: f5           push af
55b8: 3e 0a        ld   a,$0A
55ba: ed 5b 02 3f  ld   de,($3F02)
55be: cd e2 8a     call $8AE2
55c1: f1           pop  af
55c2: 5f           ld   e,a
55c3: 16 00        ld   d,$00
55c5: 19           add  hl,de
55c6: 22 02 3f     ld   ($3F02),hl
55c9: 21 9e 3e     ld   hl,$3E9E
55cc: 22 a4 4f     ld   ($4FA4),hl
55cf: c3 46 3a     jp   $3A46
55d2: af           xor  a
55d3: 32 a2 4f     ld   ($4FA2),a
55d6: 2a 04 3f     ld   hl,($3F04)
55d9: 11 46 3a     ld   de,$3A46
55dc: d5           push de
55dd: e9           jp   (hl)
55de: af           xor  a
55df: 32 a2 4f     ld   ($4FA2),a
55e2: c3 46 3a     jp   $3A46
55e5: 2a 06 3f     ld   hl,($3F06)
55e8: ed 5b 02 3f  ld   de,($3F02)
55ec: 73           ld   (hl),e
55ed: 23           inc  hl
55ee: 72           ld   (hl),d
55ef: 23           inc  hl
55f0: 22 06 3f     ld   ($3F06),hl
55f3: 21 00 00     ld   hl,$0000
55f6: 22 02 3f     ld   ($3F02),hl
55f9: 21 9e 3e     ld   hl,$3E9E
55fc: 22 a4 4f     ld   ($4FA4),hl
55ff: c3 46 3a     jp   $3A46
5602: 00           nop
5603: 00           nop
5604: 00           nop
5605: 00           nop
5606: 00           nop
5607: 00           nop
5608: 3a 66 f0     ld   a,($F066)
560b: f6 01        or   $01
560d: 32 66 f0     ld   ($F066),a
5610: c9           ret
5611: 3e ff        ld   a,$FF
5613: 32 a2 4f     ld   ($4FA2),a
5616: 21 1d 3f     ld   hl,$3F1D
5619: 22 a4 4f     ld   ($4FA4),hl
561c: c9           ret
561d: 3a c6 4f     ld   a,($4FC6)
5620: d6 20        sub  $20
5622: fe 19        cp   $19
5624: 30 03        jr   nc,$5629
5626: 32 a6 4f     ld   ($4FA6),a
5629: 21 32 3f     ld   hl,$3F32
562c: 22 a4 4f     ld   ($4FA4),hl
562f: c3 46 3a     jp   $3A46
5632: 3a c6 4f     ld   a,($4FC6)
5635: d6 20        sub  $20
5637: fe 50        cp   $50
5639: 30 03        jr   nc,$563E
563b: 32 94 4f     ld   ($4F94),a
563e: af           xor  a
563f: 32 a2 4f     ld   ($4FA2),a
5642: 3a a6 4f     ld   a,($4FA6)
5645: 32 95 4f     ld   ($4F95),a
5648: cd bb 4d     call $4DBB
564b: c3 46 3a     jp   $3A46
564e: 3e ff        ld   a,$FF
5650: 32 a2 4f     ld   ($4FA2),a
5653: 21 5a 3f     ld   hl,$3F5A
5656: 22 a4 4f     ld   ($4FA4),hl
5659: c9           ret
565a: 3a c6 4f     ld   a,($4FC6)
565d: d6 30        sub  $30
565f: c2 71 3f     jp   nz,$3F71
5662: 3e 0f        ld   a,$0F
5664: 32 ba 4f     ld   ($4FBA),a
5667: af           xor  a
5668: 32 a2 4f     ld   ($4FA2),a
566b: cd e0 3c     call $3CE0
566e: c3 46 3a     jp   $3A46
5671: 3e 8f        ld   a,$8F
5673: 18 ef        jr   $5664
5675: 3e ff        ld   a,$FF
5677: 32 bf 4f     ld   ($4FBF),a
567a: 3a 9a 4f     ld   a,($4F9A)
567d: f6 01        or   $01
567f: 32 9a 4f     ld   ($4F9A),a
5682: cd 59 40     call $4059
5685: c9           ret
5686: 3e 00        ld   a,$00
5688: 32 bf 4f     ld   ($4FBF),a
568b: 3a 9a 4f     ld   a,($4F9A)
568e: e6 fe        and  $FE
5690: 32 9a 4f     ld   ($4F9A),a
5693: cd 59 40     call $4059
5696: c9           ret
5697: 3e ff        ld   a,$FF
5699: 32 c0 4f     ld   ($4FC0),a
569c: 2a 94 4f     ld   hl,($4F94)
569f: cd 2a 49     call $492A
56a2: f5           push af
56a3: f6 01        or   $01
56a5: 77           ld   (hl),a
56a6: f1           pop  af
56a7: f6 80        or   $80
56a9: f5           push af
56aa: 2a 94 4f     ld   hl,($4F94)
56ad: cd e1 42     call $42E1
56b0: e5           push hl
56b1: cd bb 4d     call $4DBB
56b4: cd b8 44     call $44B8
56b7: cd 50 3b     call $3B50
56ba: e1           pop  hl
56bb: f1           pop  af
56bc: c3 a3 41     jp   $41A3
56bf: 2a 94 4f     ld   hl,($4F94)
56c2: cd 2a 49     call $492A
56c5: e6 7f        and  $7F
56c7: f5           push af
56c8: f6 04        or   $04
56ca: 77           ld   (hl),a
56cb: 2a 94 4f     ld   hl,($4F94)
56ce: cd e1 42     call $42E1
56d1: e5           push hl
56d2: cd bb 4d     call $4DBB
56d5: cd b8 44     call $44B8
56d8: cd 50 3b     call $3B50
56db: e1           pop  hl
56dc: f1           pop  af
56dd: c3 a3 41     jp   $41A3
56e0: 3e ff        ld   a,$FF
56e2: 32 c0 4f     ld   ($4FC0),a
56e5: 2a 94 4f     ld   hl,($4F94)
56e8: cd 2a 49     call $492A
56eb: f5           push af
56ec: f6 02        or   $02
56ee: 77           ld   (hl),a
56ef: f1           pop  af
56f0: f6 40        or   $40
56f2: f5           push af
56f3: 2a 94 4f     ld   hl,($4F94)
56f6: cd e1 42     call $42E1
56f9: e5           push hl
56fa: cd bb 4d     call $4DBB
56fd: cd b8 44     call $44B8
5700: cd 50 3b     call $3B50
5703: e1           pop  hl
5704: f1           pop  af
5705: c3 a3 41     jp   $41A3
5708: 2a 94 4f     ld   hl,($4F94)
570b: cd 2a 49     call $492A
570e: e6 bf        and  $BF
5710: f5           push af
5711: f6 08        or   $08
5713: 77           ld   (hl),a
5714: 2a 94 4f     ld   hl,($4F94)
5717: cd e1 42     call $42E1
571a: e5           push hl
571b: cd bb 4d     call $4DBB
571e: cd b8 44     call $44B8
5721: cd 50 3b     call $3B50
5724: e1           pop  hl
5725: f1           pop  af
5726: c3 a3 41     jp   $41A3
5729: cd b8 44     call $44B8
572c: c3 50 3b     jp   $3B50
572f: cd b8 44     call $44B8
5732: c3 50 3b     jp   $3B50
5735: cd b8 44     call $44B8
5738: c3 50 3b     jp   $3B50
573b: cd b8 44     call $44B8
573e: c3 50 3b     jp   $3B50
5741: 3e ff        ld   a,$FF
5743: 32 a2 4f     ld   ($4FA2),a
5746: 21 4d 40     ld   hl,$404D
5749: 22 a4 4f     ld   ($4FA4),hl
574c: c9           ret
574d: af           xor  a
574e: 32 a2 4f     ld   ($4FA2),a
5751: 3a c6 4f     ld   a,($4FC6)
5754: d6 30        sub  $30
5756: 32 9a 4f     ld   ($4F9A),a
5759: 3a 3f 27     ld   a,($273F)
575c: b7           or   a
575d: 28 17        jr   z,$5776
575f: 3a 9a 4f     ld   a,($4F9A)
5762: fe 04        cp   $04
5764: d0           ret  nc
5765: 67           ld   h,a
5766: cb 24        sla  h
5768: 2e 00        ld   l,$00
576a: 11 00 d2     ld   de,$D200
576d: 19           add  hl,de
576e: 11 11 5b     ld   de,$5B11
5771: 01 00 02     ld   bc,$0200
5774: ed b0        ldir
5776: 3a 9a 4f     ld   a,($4F9A)
5779: fe 00        cp   $00
577b: 28 15        jr   z,$5792
577d: fe 02        cp   $02
577f: 28 16        jr   z,$5797
5781: fe 04        cp   $04
5783: 28 17        jr   z,$579C
5785: fe 01        cp   $01
5787: 28 18        jr   z,$57A1
5789: fe 03        cp   $03
578b: 28 19        jr   z,$57A6
578d: fe 05        cp   $05
578f: 28 1a        jr   z,$57AB
5791: c9           ret
5792: 21 11 55     ld   hl,$5511
5795: 18 17        jr   $57AE
5797: 21 00 c6     ld   hl,$C600
579a: 18 12        jr   $57AE
579c: 21 00 d2     ld   hl,$D200
579f: 18 0d        jr   $57AE
57a1: 21 11 63     ld   hl,$6311
57a4: 18 08        jr   $57AE
57a6: 21 00 cc     ld   hl,$CC00
57a9: 18 03        jr   $57AE
57ab: 21 00 d8     ld   hl,$D800
57ae: 22 91 4f     ld   ($4F91),hl
57b1: c9           ret
57b2: 3e ff        ld   a,$FF
57b4: 32 a2 4f     ld   ($4FA2),a
57b7: 21 be 40     ld   hl,$40BE
57ba: 22 a4 4f     ld   ($4FA4),hl
57bd: c9           ret
57be: 3a c6 4f     ld   a,($4FC6)
57c1: 21 f7 4f     ld   hl,$4FF7
57c4: 77           ld   (hl),a
57c5: 22 08 50     ld   ($5008),hl
57c8: 06 10        ld   b,$10
57ca: 0e 00        ld   c,$00
57cc: ed 43 8c 4f  ld   ($4F8C),bc
57d0: 3e ff        ld   a,$FF
57d2: 32 a2 4f     ld   ($4FA2),a
57d5: 21 dc 40     ld   hl,$40DC
57d8: 22 a4 4f     ld   ($4FA4),hl
57db: c9           ret
57dc: 2a 08 50     ld   hl,($5008)
57df: 23           inc  hl
57e0: 22 08 50     ld   ($5008),hl
57e3: 3a c6 4f     ld   a,($4FC6)
57e6: 77           ld   (hl),a
57e7: ed 4b 8c 4f  ld   bc,($4F8C)
57eb: 10 df        djnz $57CC
57ed: af           xor  a
57ee: 32 a2 4f     ld   ($4FA2),a
57f1: 21 f7 4f     ld   hl,$4FF7
57f4: 7e           ld   a,(hl)
57f5: 32 8f 4f     ld   ($4F8F),a
57f8: 23           inc  hl
57f9: 11 e7 4f     ld   de,$4FE7
57fc: 01 10 00     ld   bc,$0010
57ff: ed b0        ldir
5801: 3a 8f 4f     ld   a,($4F8F)
5804: 21 90 4f     ld   hl,$4F90
5807: 96           sub  (hl)
5808: 32 8f 4f     ld   ($4F8F),a
580b: 21 8f 4f     ld   hl,$4F8F
580e: af           xor  a
580f: ed 6f        rld  (hl)
5811: 57           ld   d,a
5812: 5e           ld   e,(hl)
5813: 21 00 d2     ld   hl,$D200
5816: 19           add  hl,de
5817: 22 ce 4f     ld   ($4FCE),hl
581a: 21 ee 4f     ld   hl,$4FEE
581d: ed 5b ce 4f  ld   de,($4FCE)
5821: 06 08        ld   b,$08
5823: 7e           ld   a,(hl)
5824: 12           ld   (de),a
5825: 13           inc  de
5826: 2b           dec  hl
5827: 10 fa        djnz $5823
5829: 21 f6 4f     ld   hl,$4FF6
582c: 06 08        ld   b,$08
582e: 7e           ld   a,(hl)
582f: 12           ld   (de),a
5830: 13           inc  de
5831: 2b           dec  hl
5832: 10 fa        djnz $582E
5834: c9           ret
5835: f5           push af
5836: 3e ff        ld   a,$FF
5838: 32 9b 4f     ld   ($4F9B),a
583b: af           xor  a
583c: 32 9c 4f     ld   ($4F9C),a
583f: f1           pop  af
5840: c9           ret
5841: f5           push af
5842: 3e ff        ld   a,$FF
5844: 32 9c 4f     ld   ($4F9C),a
5847: af           xor  a
5848: 32 9b 4f     ld   ($4F9B),a
584b: f1           pop  af
584c: c9           ret
584d: af           xor  a
584e: 32 9b 4f     ld   ($4F9B),a
5851: 32 9c 4f     ld   ($4F9C),a
5854: c9           ret
5855: 3e ff        ld   a,$FF
5857: 32 a2 4f     ld   ($4FA2),a
585a: 21 61 41     ld   hl,$4161
585d: 22 a4 4f     ld   ($4FA4),hl
5860: c9           ret
5861: af           xor  a
5862: 32 a2 4f     ld   ($4FA2),a
5865: 3a c6 4f     ld   a,($4FC6)
5868: e6 0f        and  $0F
586a: c8           ret  z
586b: 3d           dec  a
586c: cd 7b 19     call $197B
586f: c9           ret
5870: 3e ff        ld   a,$FF
5872: 32 a2 4f     ld   ($4FA2),a
5875: 21 7c 41     ld   hl,$417C
5878: 22 a4 4f     ld   ($4FA4),hl
587b: c9           ret
587c: af           xor  a
587d: 32 a2 4f     ld   ($4FA2),a
5880: 3a c6 4f     ld   a,($4FC6)
5883: e6 0f        and  $0F
5885: c8           ret  z
5886: 3d           dec  a
5887: cd 84 19     call $1984
588a: c9           ret
588b: c9           ret
588c: c9           ret
588d: 3e ff        ld   a,$FF
588f: 32 c2 4f     ld   ($4FC2),a
5892: c9           ret
5893: af           xor  a
5894: 32 c2 4f     ld   ($4FC2),a
5897: c9           ret
5898: 3e ff        ld   a,$FF
589a: 32 c1 4f     ld   ($4FC1),a
589d: c9           ret
589e: af           xor  a
589f: 32 c1 4f     ld   ($4FC1),a
58a2: c9           ret
58a3: 32 c9 4f     ld   ($4FC9),a
58a6: af           xor  a
58a7: 32 d0 4f     ld   ($4FD0),a
58aa: 32 d1 4f     ld   ($4FD1),a
58ad: 22 e0 4f     ld   ($4FE0),hl
58b0: 22 d4 4f     ld   ($4FD4),hl
58b3: 22 d6 4f     ld   ($4FD6),hl
58b6: cd 2a 49     call $492A
58b9: 22 ca 4f     ld   ($4FCA),hl
58bc: 3a c9 4f     ld   a,($4FC9)
58bf: e6 40        and  $40
58c1: 32 d2 4f     ld   ($4FD2),a
58c4: 3a c9 4f     ld   a,($4FC9)
58c7: e6 80        and  $80
58c9: 32 d3 4f     ld   ($4FD3),a
58cc: 3a d0 4f     ld   a,($4FD0)
58cf: fe 00        cp   $00
58d1: cc 5c 42     call z,$425C
58d4: 3a d1 4f     ld   a,($4FD1)
58d7: fe 00        cp   $00
58d9: cc 9f 42     call z,$429F
58dc: 21 d0 4f     ld   hl,$4FD0
58df: 3a d1 4f     ld   a,($4FD1)
58e2: a6           and  (hl)
58e3: 20 19        jr   nz,$58FE
58e5: 2a ca 4f     ld   hl,($4FCA)
58e8: 23           inc  hl
58e9: 3e ff        ld   a,$FF
58eb: be           cp   (hl)
58ec: 20 07        jr   nz,$58F5
58ee: 23           inc  hl
58ef: be           cp   (hl)
58f0: 20 03        jr   nz,$58F5
58f2: c3 fe 41     jp   $41FE
58f5: 2a ca 4f     ld   hl,($4FCA)
58f8: 23           inc  hl
58f9: 22 ca 4f     ld   ($4FCA),hl
58fc: 18 ce        jr   $58CC
58fe: 2a e0 4f     ld   hl,($4FE0)
5901: ed 5b d4 4f  ld   de,($4FD4)
5905: cd 39 42     call $4239
5908: 28 13        jr   z,$591D
590a: 2a e0 4f     ld   hl,($4FE0)
590d: cd be 4d     call $4DBE
5910: 2a e0 4f     ld   hl,($4FE0)
5913: ed 5b d4 4f  ld   de,($4FD4)
5917: cd 44 42     call $4244
591a: cd f8 42     call $42F8
591d: 2a e0 4f     ld   hl,($4FE0)
5920: cd be 4d     call $4DBE
5923: 2a e0 4f     ld   hl,($4FE0)
5926: ed 5b d6 4f  ld   de,($4FD6)
592a: cd 39 42     call $4239
592d: 28 06        jr   z,$5935
592f: cd 44 42     call $4244
5932: cd 71 43     call $4371
5935: cd bb 4d     call $4DBB
5938: c9           ret
5939: d5           push de
593a: e5           push hl
593b: 7c           ld   a,h
593c: aa           xor  d
593d: 20 02        jr   nz,$5941
593f: 7d           ld   a,l
5940: ab           xor  e
5941: e1           pop  hl
5942: d1           pop  de
5943: c9           ret
5944: 7a           ld   a,d
5945: bc           cp   h
5946: 20 08        jr   nz,$5950
5948: 7b           ld   a,e
5949: 95           sub  l
594a: f5           push af
594b: 21 00 00     ld   hl,$0000
594e: 18 0a        jr   $595A
5950: 3a 05 3a     ld   a,($3A05)
5953: 95           sub  l
5954: f5           push af
5955: 7a           ld   a,d
5956: 94           sub  h
5957: 3d           dec  a
5958: 67           ld   h,a
5959: 6b           ld   l,e
595a: f1           pop  af
595b: c9           ret
595c: 3e 02        ld   a,$02
595e: 2a ca 4f     ld   hl,($4FCA)
5961: a6           and  (hl)
5962: c4 99 42     call nz,$4299
5965: 20 22        jr   nz,$5989
5967: 3a d2 4f     ld   a,($4FD2)
596a: e6 40        and  $40
596c: 28 08        jr   z,$5976
596e: 3e 08        ld   a,$08
5970: 2a ca 4f     ld   hl,($4FCA)
5973: a6           and  (hl)
5974: 20 23        jr   nz,$5999
5976: 3a d2 4f     ld   a,($4FD2)
5979: 4f           ld   c,a
597a: 7e           ld   a,(hl)
597b: e6 40        and  $40
597d: a9           xor  c
597e: 28 19        jr   z,$5999
5980: 2a d4 4f     ld   hl,($4FD4)
5983: cd e1 42     call $42E1
5986: 22 d4 4f     ld   ($4FD4),hl
5989: 2a ca 4f     ld   hl,($4FCA)
598c: 3e 40        ld   a,$40
598e: 2f           cpl
598f: a6           and  (hl)
5990: 21 d2 4f     ld   hl,$4FD2
5993: b6           or   (hl)
5994: 2a ca 4f     ld   hl,($4FCA)
5997: 77           ld   (hl),a
5998: c9           ret
5999: 3e ff        ld   a,$FF
599b: 32 d0 4f     ld   ($4FD0),a
599e: c9           ret
599f: 2a ca 4f     ld   hl,($4FCA)
59a2: 3e 01        ld   a,$01
59a4: a6           and  (hl)
59a5: c4 db 42     call nz,$42DB
59a8: 20 22        jr   nz,$59CC
59aa: 3a d3 4f     ld   a,($4FD3)
59ad: e6 80        and  $80
59af: 28 08        jr   z,$59B9
59b1: 3e 04        ld   a,$04
59b3: 2a ca 4f     ld   hl,($4FCA)
59b6: a6           and  (hl)
59b7: 20 22        jr   nz,$59DB
59b9: 3a d3 4f     ld   a,($4FD3)
59bc: 4f           ld   c,a
59bd: 7e           ld   a,(hl)
59be: e6 80        and  $80
59c0: a9           xor  c
59c1: 28 18        jr   z,$59DB
59c3: 2a d6 4f     ld   hl,($4FD6)
59c6: cd e1 42     call $42E1
59c9: 22 d6 4f     ld   ($4FD6),hl
59cc: 2a ca 4f     ld   hl,($4FCA)
59cf: 3e 7f        ld   a,$7F
59d1: a6           and  (hl)
59d2: 21 d3 4f     ld   hl,$4FD3
59d5: b6           or   (hl)
59d6: 2a ca 4f     ld   hl,($4FCA)
59d9: 77           ld   (hl),a
59da: c9           ret
59db: 3e ff        ld   a,$FF
59dd: 32 d1 4f     ld   ($4FD1),a
59e0: c9           ret
59e1: 2c           inc  l
59e2: 7d           ld   a,l
59e3: c5           push bc
59e4: f5           push af
59e5: 3a 05 3a     ld   a,($3A05)
59e8: 47           ld   b,a
59e9: f1           pop  af
59ea: b8           cp   b
59eb: c1           pop  bc
59ec: c0           ret  nz
59ed: 7c           ld   a,h
59ee: fe 18        cp   $18
59f0: 28 04        jr   z,$59F6
59f2: 24           inc  h
59f3: 2e 00        ld   l,$00
59f5: c9           ret
59f6: 2d           dec  l
59f7: c9           ret
59f8: e5           push hl
59f9: cd 4d 47     call $474D
59fc: ed 53 ff 4e  ld   ($4EFF),de
5a00: ed 53 01 4f  ld   ($4F01),de
5a04: 2a e0 4f     ld   hl,($4FE0)
5a07: 7c           ld   a,h
5a08: 32 d8 4f     ld   ($4FD8),a
5a0b: 3e 01        ld   a,$01
5a0d: f6 20        or   $20
5a0f: cd 66 4e     call $4E66
5a12: 21 ef 4e     ld   hl,$4EEF
5a15: cd 3f 4e     call $4E3F
5a18: e1           pop  hl
5a19: e5           push hl
5a1a: 7c           ld   a,h
5a1b: 47           ld   b,a
5a1c: fe 00        cp   $00
5a1e: 28 14        jr   z,$5A34
5a20: c5           push bc
5a21: 3a d8 4f     ld   a,($4FD8)
5a24: 3c           inc  a
5a25: 32 d8 4f     ld   ($4FD8),a
5a28: 67           ld   h,a
5a29: 2e 00        ld   l,$00
5a2b: cd be 4d     call $4DBE
5a2e: cd 5e 43     call $435E
5a31: c1           pop  bc
5a32: 10 ec        djnz $5A20
5a34: e1           pop  hl
5a35: 7d           ld   a,l
5a36: fe 00        cp   $00
5a38: 28 1e        jr   z,$5A58
5a3a: e5           push hl
5a3b: 3a d8 4f     ld   a,($4FD8)
5a3e: 3c           inc  a
5a3f: 67           ld   h,a
5a40: 2e 00        ld   l,$00
5a42: cd be 4d     call $4DBE
5a45: e1           pop  hl
5a46: 7d           ld   a,l
5a47: cd 4d 47     call $474D
5a4a: ed 53 ff 4e  ld   ($4EFF),de
5a4e: ed 53 01 4f  ld   ($4F01),de
5a52: 21 ef 4e     ld   hl,$4EEF
5a55: cd 3f 4e     call $4E3F
5a58: 3e 20        ld   a,$20
5a5a: cd 66 4e     call $4E66
5a5d: c9           ret
5a5e: ed 5b 0a 3a  ld   de,($3A0A)
5a62: ed 53 ff 4e  ld   ($4EFF),de
5a66: ed 53 01 4f  ld   ($4F01),de
5a6a: 21 ef 4e     ld   hl,$4EEF
5a6d: cd 3f 4e     call $4E3F
5a70: c9           ret
5a71: e5           push hl
5a72: f5           push af
5a73: 2a e0 4f     ld   hl,($4FE0)
5a76: 7c           ld   a,h
5a77: 32 d8 4f     ld   ($4FD8),a
5a7a: cd dc 43     call $43DC
5a7d: f1           pop  af
5a7e: cd 4d 47     call $474D
5a81: ed 53 e9 4e  ld   ($4EE9),de
5a85: ed 53 eb 4e  ld   ($4EEB),de
5a89: 3e 01        ld   a,$01
5a8b: f6 20        or   $20
5a8d: cd 66 4e     call $4E66
5a90: 21 d9 4e     ld   hl,$4ED9
5a93: cd 3f 4e     call $4E3F
5a96: e1           pop  hl
5a97: e5           push hl
5a98: 7c           ld   a,h
5a99: 47           ld   b,a
5a9a: fe 00        cp   $00
5a9c: 28 14        jr   z,$5AB2
5a9e: c5           push bc
5a9f: 3a d8 4f     ld   a,($4FD8)
5aa2: 3c           inc  a
5aa3: 32 d8 4f     ld   ($4FD8),a
5aa6: 67           ld   h,a
5aa7: 2e 00        ld   l,$00
5aa9: cd be 4d     call $4DBE
5aac: cd e8 43     call $43E8
5aaf: c1           pop  bc
5ab0: 10 ec        djnz $5A9E
5ab2: e1           pop  hl
5ab3: 7d           ld   a,l
5ab4: fe 00        cp   $00
5ab6: 28 1e        jr   z,$5AD6
5ab8: e5           push hl
5ab9: 3a d8 4f     ld   a,($4FD8)
5abc: 3c           inc  a
5abd: 67           ld   h,a
5abe: 2e 00        ld   l,$00
5ac0: cd be 4d     call $4DBE
5ac3: e1           pop  hl
5ac4: 7d           ld   a,l
5ac5: cd 4d 47     call $474D
5ac8: ed 53 e9 4e  ld   ($4EE9),de
5acc: ed 53 eb 4e  ld   ($4EEB),de
5ad0: 21 d9 4e     ld   hl,$4ED9
5ad3: cd 3f 4e     call $4E3F
5ad6: 3e 20        ld   a,$20
5ad8: cd 66 4e     call $4E66
5adb: c9           ret
5adc: 06 08        ld   b,$08
5ade: 3e ff        ld   a,$FF
5ae0: 21 dc 4e     ld   hl,$4EDC
5ae3: 77           ld   (hl),a
5ae4: 23           inc  hl
5ae5: 10 fc        djnz $5AE3
5ae7: c9           ret
5ae8: ed 5b 0a 3a  ld   de,($3A0A)
5aec: ed 53 e9 4e  ld   ($4EE9),de
5af0: ed 53 eb 4e  ld   ($4EEB),de
5af4: cd dc 43     call $43DC
5af7: 21 d9 4e     ld   hl,$4ED9
5afa: cd 3f 4e     call $4E3F
5afd: c9           ret
5afe: c9           ret
5aff: c9           ret
5b00: af           xor  a
5b01: 32 c0 4f     ld   ($4FC0),a
5b04: ed 4b 0e 3a  ld   bc,($3A0E)
5b08: 21 7e a2     ld   hl,$A27E
5b0b: af           xor  a
5b0c: 77           ld   (hl),a
5b0d: 23           inc  hl
5b0e: 0b           dec  bc
5b0f: 79           ld   a,c
5b10: b0           or   b
5b11: 20 f8        jr   nz,$5B0B
5b13: 21 05 3a     ld   hl,$3A05
5b16: 4e           ld   c,(hl)
5b17: 06 00        ld   b,$00
5b19: 21 0a 50     ld   hl,$500A
5b1c: af           xor  a
5b1d: 77           ld   (hl),a
5b1e: 23           inc  hl
5b1f: 0b           dec  bc
5b20: 79           ld   a,c
5b21: b0           or   b
5b22: c2 1c 44     jp   nz,$441C
5b25: c9           ret
5b26: 3a c0 4f     ld   a,($4FC0)
5b29: b7           or   a
5b2a: c9           ret
5b2b: af           xor  a
5b2c: c9           ret
5b2d: 3a 95 4f     ld   a,($4F95)
5b30: c3 07 48     jp   $4807
5b33: 3a 95 4f     ld   a,($4F95)
5b36: c3 9d 47     jp   $479D
5b39: 3a 93 4f     ld   a,($4F93)
5b3c: 21 94 4f     ld   hl,$4F94
5b3f: 96           sub  (hl)
5b40: 3d           dec  a
5b41: 28 0d        jr   z,$5B50
5b43: f5           push af
5b44: 2a 94 4f     ld   hl,($4F94)
5b47: 5d           ld   e,l
5b48: 1c           inc  e
5b49: 54           ld   d,h
5b4a: 4f           ld   c,a
5b4b: 06 00        ld   b,$00
5b4d: cd f7 44     call $44F7
5b50: 2a 94 4f     ld   hl,($4F94)
5b53: cd be 4d     call $4DBE
5b56: cd b8 44     call $44B8
5b59: f1           pop  af
5b5a: 4f           ld   c,a
5b5b: 2a 94 4f     ld   hl,($4F94)
5b5e: 54           ld   d,h
5b5f: 5d           ld   e,l
5b60: 1c           inc  e
5b61: cd dc 44     call $44DC
5b64: 2a 94 4f     ld   hl,($4F94)
5b67: cd 15 49     call $4915
5b6a: 2a 94 4f     ld   hl,($4F94)
5b6d: cd a3 41     call $41A3
5b70: c9           ret
5b71: 3a 93 4f     ld   a,($4F93)
5b74: 21 94 4f     ld   hl,$4F94
5b77: 96           sub  (hl)
5b78: 3d           dec  a
5b79: 28 0d        jr   z,$5B88
5b7b: f5           push af
5b7c: 2a 94 4f     ld   hl,($4F94)
5b7f: 5d           ld   e,l
5b80: 54           ld   d,h
5b81: 2c           inc  l
5b82: 4f           ld   c,a
5b83: 06 00        ld   b,$00
5b85: cd f7 44     call $44F7
5b88: 3a 95 4f     ld   a,($4F95)
5b8b: 67           ld   h,a
5b8c: f5           push af
5b8d: 3a 05 3a     ld   a,($3A05)
5b90: 3d           dec  a
5b91: 6f           ld   l,a
5b92: f1           pop  af
5b93: cd be 4d     call $4DBE
5b96: cd b8 44     call $44B8
5b99: 2a 94 4f     ld   hl,($4F94)
5b9c: cd be 4d     call $4DBE
5b9f: f1           pop  af
5ba0: ed 5b 94 4f  ld   de,($4F94)
5ba4: 62           ld   h,d
5ba5: 6b           ld   l,e
5ba6: 2c           inc  l
5ba7: 4f           ld   c,a
5ba8: cd dc 44     call $44DC
5bab: 2a 94 4f     ld   hl,($4F94)
5bae: cd 15 49     call $4915
5bb1: 2a 94 4f     ld   hl,($4F94)
5bb4: c3 a3 41     jp   $41A3
5bb7: c9           ret
5bb8: f5           push af
5bb9: 11 dc 4e     ld   de,$4EDC
5bbc: 21 63 4f     ld   hl,$4F63
5bbf: 01 08 00     ld   bc,$0008
5bc2: ed b0        ldir
5bc4: 3e 0f        ld   a,$0F
5bc6: 32 e7 4e     ld   ($4EE7),a
5bc9: 01 08 00     ld   bc,$0008
5bcc: ed 43 e9 4e  ld   ($4EE9),bc
5bd0: ed 43 eb 4e  ld   ($4EEB),bc
5bd4: 21 d9 4e     ld   hl,$4ED9
5bd7: cd 3f 4e     call $4E3F
5bda: f1           pop  af
5bdb: c9           ret
5bdc: 06 00        ld   b,$00
5bde: c5           push bc
5bdf: d5           push de
5be0: c5           push bc
5be1: cd 2a 49     call $492A
5be4: c1           pop  bc
5be5: 11 80 b1     ld   de,$B180
5be8: ed b0        ldir
5bea: d1           pop  de
5beb: eb           ex   de,hl
5bec: cd 2a 49     call $492A
5bef: 11 80 b1     ld   de,$B180
5bf2: eb           ex   de,hl
5bf3: c1           pop  bc
5bf4: ed b0        ldir
5bf6: c9           ret
5bf7: e5           push hl
5bf8: 21 80 b1     ld   hl,$B180
5bfb: 22 70 45     ld   ($4570),hl
5bfe: e1           pop  hl
5bff: ed 53 e2 4f  ld   ($4FE2),de
5c03: 41           ld   b,c
5c04: c5           push bc
5c05: c5           push bc
5c06: e5           push hl
5c07: cd 24 45     call $4524
5c0a: e1           pop  hl
5c0b: 2c           inc  l
5c0c: c1           pop  bc
5c0d: 10 f6        djnz $5C05
5c0f: 21 80 b1     ld   hl,$B180
5c12: 22 70 45     ld   ($4570),hl
5c15: 2a e2 4f     ld   hl,($4FE2)
5c18: c1           pop  bc
5c19: c5           push bc
5c1a: e5           push hl
5c1b: cd 4a 45     call $454A
5c1e: e1           pop  hl
5c1f: 2c           inc  l
5c20: c1           pop  bc
5c21: 10 f6        djnz $5C19
5c23: c9           ret
5c24: e5           push hl
5c25: cd be 4d     call $4DBE
5c28: e1           pop  hl
5c29: cb 3d        srl  l
5c2b: 3e b8        ld   a,$B8
5c2d: 38 02        jr   c,$5C31
5c2f: 3e b0        ld   a,$B0
5c31: 32 4a 4f     ld   ($4F4A),a
5c34: 21 40 4f     ld   hl,$4F40
5c37: cd 3f 4e     call $4E3F
5c3a: 2a 70 45     ld   hl,($4570)
5c3d: 06 10        ld   b,$10
5c3f: cd 7e 4e     call $4E7E
5c42: 77           ld   (hl),a
5c43: 23           inc  hl
5c44: 10 f9        djnz $5C3F
5c46: 22 70 45     ld   ($4570),hl
5c49: c9           ret
5c4a: cd be 4d     call $4DBE
5c4d: 06 08        ld   b,$08
5c4f: 11 0f 4f     ld   de,$4F0F
5c52: 2a 70 45     ld   hl,($4570)
5c55: 7e           ld   a,(hl)
5c56: 12           ld   (de),a
5c57: 23           inc  hl
5c58: 1b           dec  de
5c59: 10 fa        djnz $5C55
5c5b: 11 20 4f     ld   de,$4F20
5c5e: 06 08        ld   b,$08
5c60: 7e           ld   a,(hl)
5c61: 12           ld   (de),a
5c62: 23           inc  hl
5c63: 1b           dec  de
5c64: 10 fa        djnz $5C60
5c66: 22 70 45     ld   ($4570),hl
5c69: 21 05 4f     ld   hl,$4F05
5c6c: cd 3f 4e     call $4E3F
5c6f: c9           ret
5c70: 00           nop
5c71: 00           nop
5c72: e5           push hl
5c73: 65           ld   h,l
5c74: 2e 00        ld   l,$00
5c76: cd 2a 49     call $492A
5c79: eb           ex   de,hl
5c7a: e1           pop  hl
5c7b: d5           push de
5c7c: 2e 00        ld   l,$00
5c7e: cd 2a 49     call $492A
5c81: d1           pop  de
5c82: f5           push af
5c83: 3a 05 3a     ld   a,($3A05)
5c86: 4f           ld   c,a
5c87: 06 00        ld   b,$00
5c89: f1           pop  af
5c8a: ed b0        ldir
5c8c: c9           ret
5c8d: 3e ff        ld   a,$FF
5c8f: 32 db 4f     ld   ($4FDB),a
5c92: cd 09 47     call $4709
5c95: af           xor  a
5c96: 32 db 4f     ld   ($4FDB),a
5c99: c9           ret
5c9a: 3a 94 4f     ld   a,($4F94)
5c9d: cb 3f        srl  a
5c9f: cb 3f        srl  a
5ca1: cb 3f        srl  a
5ca3: 5f           ld   e,a
5ca4: 16 00        ld   d,$00
5ca6: 21 bc 45     ld   hl,$45BC
5ca9: 19           add  hl,de
5caa: 7e           ld   a,(hl)
5cab: 32 94 4f     ld   ($4F94),a
5cae: fe ff        cp   $FF
5cb0: 20 06        jr   nz,$5CB8
5cb2: cd 16 46     call $4616
5cb5: cd 03 46     call $4603
5cb8: cd bb 4d     call $4DBB
5cbb: c9           ret
5cbc: 08           ex   af,af'
5cbd: 10 18        djnz $5CD7
5cbf: 20 28        jr   nz,$5CE9
5cc1: 30 38        jr   nc,$5CFB
5cc3: 40           ld   b,b
5cc4: 48           ld   c,b
5cc5: ff           rst  $38
5cc6: 3a 94 4f     ld   a,($4F94)
5cc9: cb 3f        srl  a
5ccb: cb 3f        srl  a
5ccd: cb 3f        srl  a
5ccf: 5f           ld   e,a
5cd0: 16 00        ld   d,$00
5cd2: 21 ec 45     ld   hl,$45EC
5cd5: 19           add  hl,de
5cd6: 7e           ld   a,(hl)
5cd7: 32 94 4f     ld   ($4F94),a
5cda: fe ff        cp   $FF
5cdc: 20 08        jr   nz,$5CE6
5cde: 3e 4f        ld   a,$4F
5ce0: 32 94 4f     ld   ($4F94),a
5ce3: cd 36 46     call $4636
5ce6: cd bb 4d     call $4DBB
5ce9: c3 46 3a     jp   $3A46
5cec: ff           rst  $38
5ced: 08           ex   af,af'
5cee: 10 18        djnz $5D08
5cf0: 20 28        jr   nz,$5D1A
5cf2: 30 36        jr   nc,$5D2A
5cf4: 40           ld   b,b
5cf5: 48           ld   c,b
5cf6: 21 94 4f     ld   hl,$4F94
5cf9: 34           inc  (hl)
5cfa: 7e           ld   a,(hl)
5cfb: 2b           dec  hl
5cfc: be           cp   (hl)
5cfd: da bb 4d     jp   c,$4DBB
5d00: cd 16 46     call $4616
5d03: 21 95 4f     ld   hl,$4F95
5d06: 3e 18        ld   a,$18
5d08: be           cp   (hl)
5d09: c8           ret  z
5d0a: 34           inc  (hl)
5d0b: 7e           ld   a,(hl)
5d0c: 23           inc  hl
5d0d: be           cp   (hl)
5d0e: c2 bb 4d     jp   nz,$4DBB
5d11: 2b           dec  hl
5d12: 35           dec  (hl)
5d13: c3 8f 3b     jp   $3B8F
5d16: af           xor  a
5d17: 32 94 4f     ld   ($4F94),a
5d1a: c3 bb 4d     jp   $4DBB
5d1d: 21 94 4f     ld   hl,$4F94
5d20: 35           dec  (hl)
5d21: f2 bb 4d     jp   p,$4DBB
5d24: 2b           dec  hl
5d25: 7e           ld   a,(hl)
5d26: 23           inc  hl
5d27: 3d           dec  a
5d28: 77           ld   (hl),a
5d29: 23           inc  hl
5d2a: 35           dec  (hl)
5d2b: f2 bb 4d     jp   p,$4DBB
5d2e: 23           inc  hl
5d2f: 7e           ld   a,(hl)
5d30: 3d           dec  a
5d31: 2b           dec  hl
5d32: 77           ld   (hl),a
5d33: c3 bb 4d     jp   $4DBB
5d36: 21 95 4f     ld   hl,$4F95
5d39: 35           dec  (hl)
5d3a: f2 bb 4d     jp   p,$4DBB
5d3d: 23           inc  hl
5d3e: 7e           ld   a,(hl)
5d3f: 3d           dec  a
5d40: 2b           dec  hl
5d41: 77           ld   (hl),a
5d42: 18 ef        jr   $5D33
5d44: 3e 0c        ld   a,$0C
5d46: cd 66 4e     call $4E66
5d49: cd f5 3b     call $3BF5
5d4c: 3a c4 4f     ld   a,($4FC4)
5d4f: b7           or   a
5d50: 28 06        jr   z,$5D58
5d52: cd a0 46     call $46A0
5d55: c3 84 46     jp   $4684
5d58: 2a aa 4f     ld   hl,($4FAA)
5d5b: ed 4b b2 4f  ld   bc,($4FB2)
5d5f: 11 00 00     ld   de,$0000
5d62: cd 83 47     call $4783
5d65: 3a f8 54     ld   a,($54F8)
5d68: b7           or   a
5d69: ca 84 46     jp   z,$4684
5d6c: 21 00 00     ld   hl,$0000
5d6f: 06 04        ld   b,$04
5d71: c5           push bc
5d72: e5           push hl
5d73: 01 ff 3f     ld   bc,$3FFF
5d76: 11 00 00     ld   de,$0000
5d79: cd 83 47     call $4783
5d7c: e1           pop  hl
5d7d: 11 00 40     ld   de,$4000
5d80: 19           add  hl,de
5d81: c1           pop  bc
5d82: 10 ed        djnz $5D71
5d84: cd b5 4d     call $4DB5
5d87: db 38        in   a,($38)
5d89: e6 20        and  $20
5d8b: 28 fa        jr   z,$5D87
5d8d: 3e 0d        ld   a,$0D
5d8f: cd 66 4e     call $4E66
5d92: af           xor  a
5d93: 32 db 4f     ld   ($4FDB),a
5d96: c3 00 44     jp   $4400
5d99: 3e ff        ld   a,$FF
5d9b: 32 db 4f     ld   ($4FDB),a
5d9e: 18 a4        jr   $5D44
5da0: 3e 01        ld   a,$01
5da2: cd b0 46     call $46B0
5da5: 3e 02        ld   a,$02
5da7: cd b0 46     call $46B0
5daa: 3e 04        ld   a,$04
5dac: cd b0 46     call $46B0
5daf: c9           ret
5db0: f5           push af
5db1: db 38        in   a,($38)
5db3: e6 08        and  $08
5db5: 20 fa        jr   nz,$5DB1
5db7: f1           pop  af
5db8: d3 2d        out  ($2D),a
5dba: 2a aa 4f     ld   hl,($4FAA)
5dbd: 3e 00        ld   a,$00
5dbf: 22 c8 4e     ld   ($4EC8),hl
5dc2: 32 ca 4e     ld   ($4ECA),a
5dc5: 21 c5 4e     ld   hl,$4EC5
5dc8: cd 49 4e     call $4E49
5dcb: 01 80 3e     ld   bc,$3E80
5dce: 11 00 00     ld   de,$0000
5dd1: cd 8b 47     call $478B
5dd4: c9           ret
5dd5: 3e ff        ld   a,$FF
5dd7: 32 db 4f     ld   ($4FDB),a
5dda: 21 96 4f     ld   hl,$4F96
5ddd: 7e           ld   a,(hl)
5dde: 2b           dec  hl
5ddf: 96           sub  (hl)
5de0: 3d           dec  a
5de1: 28 14        jr   z,$5DF7
5de3: 47           ld   b,a
5de4: 4e           ld   c,(hl)
5de5: 0c           inc  c
5de6: c5           push bc
5de7: 3a a1 4f     ld   a,($4FA1)
5dea: 57           ld   d,a
5deb: 79           ld   a,c
5dec: c5           push bc
5ded: cd 5a 47     call $475A
5df0: c1           pop  bc
5df1: cd f9 46     call $46F9
5df4: c1           pop  bc
5df5: 10 ee        djnz $5DE5
5df7: 18 10        jr   $5E09
5df9: 61           ld   h,c
5dfa: 2e 00        ld   l,$00
5dfc: cd 2a 49     call $492A
5dff: 3a 05 3a     ld   a,($3A05)
5e02: 47           ld   b,a
5e03: af           xor  a
5e04: 77           ld   (hl),a
5e05: 23           inc  hl
5e06: 10 fc        djnz $5E04
5e08: c9           ret
5e09: 21 93 4f     ld   hl,$4F93
5e0c: 7e           ld   a,(hl)
5e0d: 23           inc  hl
5e0e: 96           sub  (hl)
5e0f: f5           push af
5e10: cd 4d 47     call $474D
5e13: ed 53 e9 4e  ld   ($4EE9),de
5e17: ed 53 eb 4e  ld   ($4EEB),de
5e1b: 3e 0f        ld   a,$0F
5e1d: 32 e7 4e     ld   ($4EE7),a
5e20: 21 63 4f     ld   hl,$4F63
5e23: 11 dc 4e     ld   de,$4EDC
5e26: 01 08 00     ld   bc,$0008
5e29: ed b0        ldir
5e2b: cd bb 4d     call $4DBB
5e2e: 21 d9 4e     ld   hl,$4ED9
5e31: cd 3f 4e     call $4E3F
5e34: 2a 94 4f     ld   hl,($4F94)
5e37: cd 2a 49     call $492A
5e3a: f1           pop  af
5e3b: 47           ld   b,a
5e3c: af           xor  a
5e3d: 77           ld   (hl),a
5e3e: 23           inc  hl
5e3f: 10 fc        djnz $5E3D
5e41: 2a 94 4f     ld   hl,($4F94)
5e44: cd 15 49     call $4915
5e47: 2a 94 4f     ld   hl,($4F94)
5e4a: c3 a3 41     jp   $41A3
5e4d: 5f           ld   e,a
5e4e: af           xor  a
5e4f: 16 00        ld   d,$00
5e51: 06 03        ld   b,$03
5e53: cb 23        sla  e
5e55: cb 12        rl   d
5e57: 10 fa        djnz $5E53
5e59: c9           ret
5e5a: 67           ld   h,a
5e5b: 2e 00        ld   l,$00
5e5d: cd be 4d     call $4DBE
5e60: 21 63 4f     ld   hl,$4F63
5e63: 11 dc 4e     ld   de,$4EDC
5e66: 01 08 00     ld   bc,$0008
5e69: ed b0        ldir
5e6b: ed 4b 0a 3a  ld   bc,($3A0A)
5e6f: ed 43 e9 4e  ld   ($4EE9),bc
5e73: ed 43 eb 4e  ld   ($4EEB),bc
5e77: 3e 0f        ld   a,$0F
5e79: 32 e7 4e     ld   ($4EE7),a
5e7c: 21 d9 4e     ld   hl,$4ED9
5e7f: cd 3f 4e     call $4E3F
5e82: c9           ret
5e83: c5           push bc
5e84: 11 00 00     ld   de,$0000
5e87: cd fd 4d     call $4DFD
5e8a: c1           pop  bc
5e8b: 0b           dec  bc
5e8c: ed 43 cf 4e  ld   ($4ECF),bc
5e90: ed 53 d7 4e  ld   ($4ED7),de
5e94: 21 cb 4e     ld   hl,$4ECB
5e97: cd 49 4e     call $4E49
5e9a: c3 bb 4d     jp   $4DBB
5e9d: b7           or   a
5e9e: ca 8f 3b     jp   z,$3B8F
5ea1: 47           ld   b,a
5ea2: 3e 17        ld   a,$17
5ea4: 90           sub  b
5ea5: 28 2d        jr   z,$5ED4
5ea7: 4f           ld   c,a
5ea8: 50           ld   d,b
5ea9: 04           inc  b
5eaa: ed 53 9d 4f  ld   ($4F9D),de
5eae: ed 43 9f 4f  ld   ($4F9F),bc
5eb2: 6a           ld   l,d
5eb3: 60           ld   h,b
5eb4: cd 72 45     call $4572
5eb7: cd 57 48     call $4857
5eba: ed 5b 9d 4f  ld   de,($4F9D)
5ebe: 62           ld   h,d
5ebf: 2e 4f        ld   l,$4F
5ec1: cd be 4d     call $4DBE
5ec4: cd c8 48     call $48C8
5ec7: ed 4b 9f 4f  ld   bc,($4F9F)
5ecb: ed 5b 9d 4f  ld   de,($4F9D)
5ecf: 14           inc  d
5ed0: 04           inc  b
5ed1: 0d           dec  c
5ed2: 20 d6        jr   nz,$5EAA
5ed4: 3e 17        ld   a,$17
5ed6: cd 5a 47     call $475A
5ed9: 0e 17        ld   c,$17
5edb: cd f9 46     call $46F9
5ede: 2a 94 4f     ld   hl,($4F94)
5ee1: 2e 00        ld   l,$00
5ee3: e5           push hl
5ee4: 26 16        ld   h,$16
5ee6: f5           push af
5ee7: 3a 05 3a     ld   a,($3A05)
5eea: 3d           dec  a
5eeb: 6f           ld   l,a
5eec: f1           pop  af
5eed: cd 15 49     call $4915
5ef0: 26 17        ld   h,$17
5ef2: 2e 00        ld   l,$00
5ef4: cd a3 41     call $41A3
5ef7: cd e0 3c     call $3CE0
5efa: e1           pop  hl
5efb: 22 94 4f     ld   ($4F94),hl
5efe: cd 15 49     call $4915
5f01: 2a 94 4f     ld   hl,($4F94)
5f04: c3 a3 41     jp   $41A3
5f07: f5           push af
5f08: 47           ld   b,a
5f09: 3e 17        ld   a,$17
5f0b: 90           sub  b
5f0c: 28 2f        jr   z,$5F3D
5f0e: 4f           ld   c,a
5f0f: 06 16        ld   b,$16
5f11: 16 17        ld   d,$17
5f13: ed 53 9d 4f  ld   ($4F9D),de
5f17: ed 43 9f 4f  ld   ($4F9F),bc
5f1b: 60           ld   h,b
5f1c: 6a           ld   l,d
5f1d: cd 72 45     call $4572
5f20: cd 57 48     call $4857
5f23: ed 5b 9d 4f  ld   de,($4F9D)
5f27: 62           ld   h,d
5f28: 2e 4f        ld   l,$4F
5f2a: cd be 4d     call $4DBE
5f2d: cd c8 48     call $48C8
5f30: ed 5b 9d 4f  ld   de,($4F9D)
5f34: 15           dec  d
5f35: ed 4b 9f 4f  ld   bc,($4F9F)
5f39: 05           dec  b
5f3a: 0d           dec  c
5f3b: 20 d6        jr   nz,$5F13
5f3d: f1           pop  af
5f3e: f5           push af
5f3f: cd 5a 47     call $475A
5f42: f1           pop  af
5f43: 4f           ld   c,a
5f44: cd f9 46     call $46F9
5f47: af           xor  a
5f48: 32 94 4f     ld   ($4F94),a
5f4b: 2a 94 4f     ld   hl,($4F94)
5f4e: cd 15 49     call $4915
5f51: 2a 94 4f     ld   hl,($4F94)
5f54: c3 a3 41     jp   $41A3
5f57: ed 4b 9f 4f  ld   bc,($4F9F)
5f5b: 60           ld   h,b
5f5c: 3a 05 3a     ld   a,($3A05)
5f5f: 3d           dec  a
5f60: 6f           ld   l,a
5f61: cd be 4d     call $4DBE
5f64: cd 68 48     call $4868
5f67: c9           ret
5f68: 21 80 b1     ld   hl,$B180
5f6b: 3a c4 4f     ld   a,($4FC4)
5f6e: b7           or   a
5f6f: c2 b6 48     jp   nz,$48B6
5f72: cd 76 48     call $4876
5f75: c9           ret
5f76: e5           push hl
5f77: 3a 55 12     ld   a,($1255)
5f7a: b7           or   a
5f7b: 21 80 02     ld   hl,$0280
5f7e: 20 03        jr   nz,$5F83
5f80: 2a 06 3a     ld   hl,($3A06)
5f83: 7c           ld   a,h
5f84: f6 40        or   $40
5f86: 67           ld   h,a
5f87: 22 30 4f     ld   ($4F30),hl
5f8a: 21 28 4f     ld   hl,$4F28
5f8d: cd 3f 4e     call $4E3F
5f90: e1           pop  hl
5f91: 3a 55 12     ld   a,($1255)
5f94: b7           or   a
5f95: 01 80 02     ld   bc,$0280
5f98: 20 04        jr   nz,$5F9E
5f9a: ed 4b 06 3a  ld   bc,($3A06)
5f9e: af           xor  a
5f9f: cb 20        sla  b
5fa1: cb 21        sla  c
5fa3: 78           ld   a,b
5fa4: ce 00        adc  a,$00
5fa6: 47           ld   b,a
5fa7: cd 7e 4e     call $4E7E
5faa: 77           ld   (hl),a
5fab: 23           inc  hl
5fac: 0b           dec  bc
5fad: 78           ld   a,b
5fae: b1           or   c
5faf: 20 f6        jr   nz,$5FA7
5fb1: 3e 20        ld   a,$20
5fb3: d3 39        out  ($39),a
5fb5: c9           ret
5fb6: 22 bb 4f     ld   ($4FBB),hl
5fb9: 21 05 3a     ld   hl,$3A05
5fbc: 46           ld   b,(hl)
5fbd: 0e 00        ld   c,$00
5fbf: 2a 9f 4f     ld   hl,($4F9F)
5fc2: 2e 00        ld   l,$00
5fc4: cd 04 4c     call $4C04
5fc7: c9           ret
5fc8: 21 80 b1     ld   hl,$B180
5fcb: 3a c4 4f     ld   a,($4FC4)
5fce: b7           or   a
5fcf: c2 01 49     jp   nz,$4901
5fd2: cd d6 48     call $48D6
5fd5: c9           ret
5fd6: e5           push hl
5fd7: 21 34 4f     ld   hl,$4F34
5fda: cd 3f 4e     call $4E3F
5fdd: e1           pop  hl
5fde: 3a 55 12     ld   a,($1255)
5fe1: b7           or   a
5fe2: 01 80 02     ld   bc,$0280
5fe5: 20 04        jr   nz,$5FEB
5fe7: ed 4b 06 3a  ld   bc,($3A06)
5feb: af           xor  a
5fec: cb 20        sla  b
5fee: cb 21        sla  c
5ff0: 78           ld   a,b
5ff1: ce 00        adc  a,$00
5ff3: 47           ld   b,a
5ff4: 7e           ld   a,(hl)
5ff5: 23           inc  hl
5ff6: cd 6c 4e     call $4E6C
5ff9: d3 38        out  ($38),a
5ffb: 0b           dec  bc
5ffc: 78           ld   a,b
5ffd: b1           or   c
5ffe: 20 f4        jr   nz,$5FF4
6000: c9           ret
6001: 22 bb 4f     ld   ($4FBB),hl
6004: 21 05 3a     ld   hl,$3A05
6007: 46           ld   b,(hl)
6008: 0e 00        ld   c,$00
600a: ed 5b 9d 4f  ld   de,($4F9D)
600e: 62           ld   h,d
600f: 2e 00        ld   l,$00
6011: cd 78 4c     call $4C78
6014: c9           ret
6015: 7c           ld   a,h
6016: b5           or   l
6017: 28 0f        jr   z,$6028
6019: 7c           ld   a,h
601a: fe 18        cp   $18
601c: 20 04        jr   nz,$6022
601e: 7d           ld   a,l
601f: b7           or   a
6020: 28 06        jr   z,$6028
6022: cd 2a 49     call $492A
6025: 2b           dec  hl
6026: 7e           ld   a,(hl)
6027: c9           ret
6028: af           xor  a
6029: c9           ret
602a: e5           push hl
602b: 5c           ld   e,h
602c: cb 23        sla  e
602e: 16 00        ld   d,$00
6030: 21 ac 50     ld   hl,$50AC
6033: 19           add  hl,de
6034: 5e           ld   e,(hl)
6035: 23           inc  hl
6036: 56           ld   d,(hl)
6037: e1           pop  hl
6038: 26 00        ld   h,$00
603a: 19           add  hl,de
603b: eb           ex   de,hl
603c: 21 7e a2     ld   hl,$A27E
603f: 19           add  hl,de
6040: 7e           ld   a,(hl)
6041: c9           ret
6042: 3e 0d        ld   a,$0D
6044: c3 66 4e     jp   $4E66
6047: 3e 0c        ld   a,$0C
6049: c3 66 4e     jp   $4E66
604c: c9           ret
604d: 32 8e 4f     ld   ($4F8E),a
6050: 3a 54 12     ld   a,($1254)
6053: f5           push af
6054: 3e ff        ld   a,$FF
6056: 32 54 12     ld   ($1254),a
6059: 3a f5 54     ld   a,($54F5)
605c: 32 c4 4e     ld   ($4EC4),a
605f: 3e 0c        ld   a,$0C
6061: cd 66 4e     call $4E66
6064: 3a c4 4f     ld   a,($4FC4)
6067: b7           or   a
6068: c2 a7 4a     jp   nz,$4AA7
606b: 21 ba 4e     ld   hl,$4EBA
606e: cd 3f 4e     call $4E3F
6071: 3e 40        ld   a,$40
6073: 32 c5 4f     ld   ($4FC5),a
6076: 3a c4 4e     ld   a,($4EC4)
6079: 21 93 4f     ld   hl,$4F93
607c: 77           ld   (hl),a
607d: 21 05 3a     ld   hl,$3A05
6080: 77           ld   (hl),a
6081: 3a 05 3a     ld   a,($3A05)
6084: 4f           ld   c,a
6085: 06 00        ld   b,$00
6087: 21 0a 50     ld   hl,$500A
608a: 09           add  hl,bc
608b: 23           inc  hl
608c: 36 ff        ld   (hl),$FF
608e: 23           inc  hl
608f: 36 ff        ld   (hl),$FF
6091: 3a 05 3a     ld   a,($3A05)
6094: 11 18 00     ld   de,$0018
6097: cd e2 8a     call $8AE2
609a: eb           ex   de,hl
609b: 21 7e a2     ld   hl,$A27E
609e: 19           add  hl,de
609f: 36 ff        ld   (hl),$FF
60a1: 23           inc  hl
60a2: 36 ff        ld   (hl),$FF
60a4: 3a 05 3a     ld   a,($3A05)
60a7: 11 08 00     ld   de,$0008
60aa: cd e2 8a     call $8AE2
60ad: 22 06 3a     ld   ($3A06),hl
60b0: eb           ex   de,hl
60b1: 3e 19        ld   a,$19
60b3: cd e2 8a     call $8AE2
60b6: 22 08 3a     ld   ($3A08),hl
60b9: 3a 05 3a     ld   a,($3A05)
60bc: 11 08 00     ld   de,$0008
60bf: cd e2 8a     call $8AE2
60c2: 22 0a 3a     ld   ($3A0A),hl
60c5: eb           ex   de,hl
60c6: 3e 02        ld   a,$02
60c8: cd e2 8a     call $8AE2
60cb: 22 0c 3a     ld   ($3A0C),hl
60ce: 3a 05 3a     ld   a,($3A05)
60d1: 11 18 00     ld   de,$0018
60d4: cd e2 8a     call $8AE2
60d7: 22 0e 3a     ld   ($3A0E),hl
60da: 3e 00        ld   a,$00
60dc: 21 ac 50     ld   hl,$50AC
60df: f5           push af
60e0: e5           push hl
60e1: ed 5b 93 4f  ld   de,($4F93)
60e5: 16 00        ld   d,$00
60e7: cd e2 8a     call $8AE2
60ea: eb           ex   de,hl
60eb: e1           pop  hl
60ec: f1           pop  af
60ed: 73           ld   (hl),e
60ee: 23           inc  hl
60ef: 72           ld   (hl),d
60f0: 23           inc  hl
60f1: 3c           inc  a
60f2: fe 19        cp   $19
60f4: c2 df 49     jp   nz,$49DF
60f7: 2b           dec  hl
60f8: 2b           dec  hl
60f9: 34           inc  (hl)
60fa: 34           inc  (hl)
60fb: 3e 08        ld   a,$08
60fd: 21 88 4e     ld   hl,$4E88
6100: f5           push af
6101: e5           push hl
6102: ed 5b 93 4f  ld   de,($4F93)
6106: 16 00        ld   d,$00
6108: cd e2 8a     call $8AE2
610b: ed 5b 93 4f  ld   de,($4F93)
610f: cb 3b        srl  e
6111: 16 00        ld   d,$00
6113: af           xor  a
6114: ed 52        sbc  hl,de
6116: eb           ex   de,hl
6117: e1           pop  hl
6118: f1           pop  af
6119: 73           ld   (hl),e
611a: 23           inc  hl
611b: 72           ld   (hl),d
611c: 23           inc  hl
611d: c6 08        add  a,$08
611f: fe d0        cp   $D0
6121: c2 00 4a     jp   nz,$4A00
6124: 3a 93 4f     ld   a,($4F93)
6127: 5f           ld   e,a
6128: 16 00        ld   d,$00
612a: 3e c8        ld   a,$C8
612c: cd e2 8a     call $8AE2
612f: 22 b0 4f     ld   ($4FB0),hl
6132: 22 ac 4f     ld   ($4FAC),hl
6135: 22 b2 4f     ld   ($4FB2),hl
6138: 3a 8e 4f     ld   a,($4F8E)
613b: b7           or   a
613c: 28 03        jr   z,$6141
613e: 22 ae 4f     ld   ($4FAE),hl
6141: db 38        in   a,($38)
6143: e6 08        and  $08
6145: 20 fa        jr   nz,$6141
6147: 3e 02        ld   a,$02
6149: d3 2d        out  ($2D),a
614b: 3a 8e 4f     ld   a,($4F8E)
614e: b7           or   a
614f: ca 61 4a     jp   z,$4A61
6152: 3a c4 4f     ld   a,($4FC4)
6155: b7           or   a
6156: 28 03        jr   z,$615B
6158: cd a0 46     call $46A0
615b: cd 44 46     call $4644
615e: c3 75 4a     jp   $4A75
6161: 3a f6 54     ld   a,($54F6)
6164: fe 02        cp   $02
6166: cc bd 4a     call z,$4ABD
6169: db 38        in   a,($38)
616b: e6 20        and  $20
616d: 28 fa        jr   z,$6169
616f: 21 7b 4f     ld   hl,$4F7B
6172: cd 3f 4e     call $4E3F
6175: cd bb 4d     call $4DBB
6178: 3a f6 54     ld   a,($54F6)
617b: fe 02        cp   $02
617d: 28 1e        jr   z,$619D
617f: 11 00 20     ld   de,$2000
6182: cd f5 08     call $08F5
6185: 3e 70        ld   a,$70
6187: d3 03        out  ($03),a
6189: 3e 70        ld   a,$70
618b: d3 01        out  ($01),a
618d: af           xor  a
618e: 32 be 4f     ld   ($4FBE),a
6191: d3 01        out  ($01),a
6193: 3e 12        ld   a,$12
6195: d3 18        out  ($18),a
6197: 3e 20        ld   a,$20
6199: d3 08        out  ($08),a
619b: d3 0c        out  ($0C),a
619d: 3e 0d        ld   a,$0D
619f: cd 66 4e     call $4E66
61a2: f1           pop  af
61a3: 32 54 12     ld   ($1254),a
61a6: c9           ret
61a7: af           xor  a
61a8: 32 e8 4e     ld   ($4EE8),a
61ab: 32 fe 4e     ld   ($4EFE),a
61ae: 32 14 4f     ld   ($4F14),a
61b1: 32 25 4f     ld   ($4F25),a
61b4: 32 c5 4f     ld   ($4FC5),a
61b7: 32 49 4f     ld   ($4F49),a
61ba: c3 76 49     jp   $4976
61bd: f5           push af
61be: 2a aa 4f     ld   hl,($4FAA)
61c1: 22 7e 4f     ld   ($4F7E),hl
61c4: ed 5b 08 3a  ld   de,($3A08)
61c8: ed 53 ae 4f  ld   ($4FAE),de
61cc: 19           add  hl,de
61cd: 22 ac 4f     ld   ($4FAC),hl
61d0: 22 82 4f     ld   ($4F82),hl
61d3: af           xor  a
61d4: 32 80 4f     ld   ($4F80),a
61d7: 32 84 4f     ld   ($4F84),a
61da: 3a c5 4f     ld   a,($4FC5)
61dd: 32 85 4f     ld   ($4F85),a
61e0: 3e 19        ld   a,$19
61e2: 21 c5 4f     ld   hl,$4FC5
61e5: b6           or   (hl)
61e6: 32 81 4f     ld   ($4F81),a
61e9: 3e 02        ld   a,$02
61eb: 32 88 4f     ld   ($4F88),a
61ee: f1           pop  af
61ef: c9           ret
61f0: 3a f6 54     ld   a,($54F6)
61f3: fe 01        cp   $01
61f5: 20 32        jr   nz,$6229
61f7: 3e ff        ld   a,$FF
61f9: d3 01        out  ($01),a
61fb: af           xor  a
61fc: d3 01        out  ($01),a
61fe: 3a 54 12     ld   a,($1254)
6201: b7           or   a
6202: 20 25        jr   nz,$6229
6204: 3a bd 4f     ld   a,($4FBD)
6207: b7           or   a
6208: 28 1f        jr   z,$6229
620a: 21 be 4f     ld   hl,$4FBE
620d: 7e           ld   a,(hl)
620e: 2f           cpl
620f: b7           or   a
6210: 20 07        jr   nz,$6219
6212: 3a 27 27     ld   a,($2727)
6215: b7           or   a
6216: 28 11        jr   z,$6229
6218: af           xor  a
6219: 77           ld   (hl),a
621a: 21 c5 4e     ld   hl,$4EC5
621d: cd 3f 4e     call $4E3F
6220: cd 14 4e     call $4E14
6223: 21 c5 4e     ld   hl,$4EC5
6226: cd 3f 4e     call $4E3F
6229: 3e 20        ld   a,$20
622b: d3 08        out  ($08),a
622d: d3 0c        out  ($0C),a
622f: c9           ret
6230: 3a be 4f     ld   a,($4FBE)
6233: b7           or   a
6234: 28 0d        jr   z,$6243
6236: af           xor  a
6237: 32 be 4f     ld   ($4FBE),a
623a: cd 0e 4e     call $4E0E
623d: cd 14 4e     call $4E14
6240: cd 0e 4e     call $4E0E
6243: c9           ret
6244: 32 f8 4b     ld   ($4BF8),a
6247: ed 43 f9 4b  ld   ($4BF9),bc
624b: f5           push af
624c: 3e ff        ld   a,$FF
624e: 32 55 12     ld   ($1255),a
6251: 32 54 12     ld   ($1254),a
6254: f1           pop  af
6255: e5           push hl
6256: b7           or   a
6257: 3e ff        ld   a,$FF
6259: 20 01        jr   nz,$625C
625b: af           xor  a
625c: 32 f7 4b     ld   ($4BF7),a
625f: 3a f1 4b     ld   a,($4BF1)
6262: b7           or   a
6263: 20 17        jr   nz,$627C
6265: 3e ff        ld   a,$FF
6267: 32 f1 4b     ld   ($4BF1),a
626a: 2a 94 4f     ld   hl,($4F94)
626d: 22 f2 4b     ld   ($4BF2),hl
6270: 3a f7 4b     ld   a,($4BF7)
6273: b7           or   a
6274: 21 80 b1     ld   hl,$B180
6277: c4 fb 4b     call nz,$4BFB
627a: 18 15        jr   $6291
627c: 3e ff        ld   a,$FF
627e: 32 f4 4b     ld   ($4BF4),a
6281: 2a 94 4f     ld   hl,($4F94)
6284: 22 f5 4b     ld   ($4BF5),hl
6287: 3a f7 4b     ld   a,($4BF7)
628a: b7           or   a
628b: 21 80 b6     ld   hl,$B680
628e: c4 fb 4b     call nz,$4BFB
6291: 3a f8 4b     ld   a,($4BF8)
6294: cb 67        bit  4,a
6296: 20 09        jr   nz,$62A1
6298: 21 00 18     ld   hl,$1800
629b: cd b8 4d     call $4DB8
629e: cd 09 47     call $4709
62a1: 21 00 18     ld   hl,$1800
62a4: cd b8 4d     call $4DB8
62a7: 3a f8 4b     ld   a,($4BF8)
62aa: cb 4f        bit  1,a
62ac: 28 14        jr   z,$62C2
62ae: cd 97 3f     call $3F97
62b1: ed 4b f9 4b  ld   bc,($4BF9)
62b5: 0c           inc  c
62b6: ed 43 f9 4b  ld   ($4BF9),bc
62ba: 3a f8 4b     ld   a,($4BF8)
62bd: cb 5f        bit  3,a
62bf: c4 a6 18     call nz,$18A6
62c2: 21 00 18     ld   hl,$1800
62c5: ed 4b f9 4b  ld   bc,($4BF9)
62c9: 06 00        ld   b,$00
62cb: 09           add  hl,bc
62cc: cd b8 4d     call $4DB8
62cf: 3a f8 4b     ld   a,($4BF8)
62d2: cb 57        bit  2,a
62d4: 20 03        jr   nz,$62D9
62d6: cd 86 3f     call $3F86
62d9: e1           pop  hl
62da: 7e           ld   a,(hl)
62db: b7           or   a
62dc: 28 08        jr   z,$62E6
62de: 23           inc  hl
62df: e5           push hl
62e0: 4f           ld   c,a
62e1: cd 4b 3a     call $3A4B
62e4: 18 f3        jr   $62D9
62e6: 21 80 b1     ld   hl,$B180
62e9: 22 bb 4f     ld   ($4FBB),hl
62ec: af           xor  a
62ed: 32 54 12     ld   ($1254),a
62f0: c9           ret
62f1: 00           nop
62f2: 00           nop
62f3: 00           nop
62f4: 00           nop
62f5: 00           nop
62f6: 00           nop
62f7: 00           nop
62f8: 00           nop
62f9: 00           nop
62fa: 00           nop
62fb: 22 bb 4f     ld   ($4FBB),hl
62fe: 21 00 18     ld   hl,$1800
6301: 01 00 50     ld   bc,$5000
6304: ed 5b bb 4f  ld   de,($4FBB)
6308: c5           push bc
6309: e5           push hl
630a: d5           push de
630b: cd a4 4c     call $4CA4
630e: d1           pop  de
630f: 01 10 00     ld   bc,$0010
6312: ed b0        ldir
6314: e1           pop  hl
6315: 2c           inc  l
6316: c1           pop  bc
6317: 10 ef        djnz $6308
6319: c9           ret
631a: f5           push af
631b: 3e ff        ld   a,$FF
631d: 32 54 12     ld   ($1254),a
6320: f1           pop  af
6321: 21 f7 4b     ld   hl,$4BF7
6324: a6           and  (hl)
6325: 20 0c        jr   nz,$6333
6327: 21 00 18     ld   hl,$1800
632a: cd b8 4d     call $4DB8
632d: cd 09 47     call $4709
6330: c3 52 4c     jp   $4C52
6333: 3a f4 4b     ld   a,($4BF4)
6336: b7           or   a
6337: 28 0f        jr   z,$6348
6339: af           xor  a
633a: 32 f4 4b     ld   ($4BF4),a
633d: 21 80 b6     ld   hl,$B680
6340: cd 6f 4c     call $4C6F
6343: 2a f5 4b     ld   hl,($4BF5)
6346: 18 16        jr   $635E
6348: af           xor  a
6349: 32 f1 4b     ld   ($4BF1),a
634c: 21 80 b1     ld   hl,$B180
634f: cd 6f 4c     call $4C6F
6352: af           xor  a
6353: 32 55 12     ld   ($1255),a
6356: 3e ff        ld   a,$FF
6358: 32 59 12     ld   ($1259),a
635b: 2a f2 4b     ld   hl,($4BF2)
635e: cd b8 4d     call $4DB8
6361: 21 80 b1     ld   hl,$B180
6364: 22 bb 4f     ld   ($4FBB),hl
6367: af           xor  a
6368: 32 54 12     ld   ($1254),a
636b: 32 be 4f     ld   ($4FBE),a
636e: c9           ret
636f: 22 bb 4f     ld   ($4FBB),hl
6372: 21 00 18     ld   hl,$1800
6375: 01 00 50     ld   bc,$5000
6378: ed 5b bb 4f  ld   de,($4FBB)
637c: c5           push bc
637d: e5           push hl
637e: d5           push de
637f: cd be 4d     call $4DBE
6382: e1           pop  hl
6383: 11 19 4f     ld   de,$4F19
6386: 01 08 00     ld   bc,$0008
6389: ed b0        ldir
638b: 11 08 4f     ld   de,$4F08
638e: 01 08 00     ld   bc,$0008
6391: ed b0        ldir
6393: eb           ex   de,hl
6394: d5           push de
6395: 21 05 4f     ld   hl,$4F05
6398: cd 3f 4e     call $4E3F
639b: d1           pop  de
639c: e1           pop  hl
639d: 2c           inc  l
639e: c1           pop  bc
639f: 10 db        djnz $637C
63a1: c9           ret
63a2: 00           nop
63a3: 00           nop
63a4: 3a 54 12     ld   a,($1254)
63a7: f5           push af
63a8: 3e ff        ld   a,$FF
63aa: 32 54 12     ld   ($1254),a
63ad: e5           push hl
63ae: cd 30 4b     call $4B30
63b1: e1           pop  hl
63b2: 22 3a 4d     ld   ($4D3A),hl
63b5: e5           push hl
63b6: e5           push hl
63b7: cd be 4d     call $4DBE
63ba: e1           pop  hl
63bb: cb 3d        srl  l
63bd: 3e b8        ld   a,$B8
63bf: 38 02        jr   c,$63C3
63c1: 3e b0        ld   a,$B0
63c3: 32 4a 4f     ld   ($4F4A),a
63c6: 21 2a 4d     ld   hl,$4D2A
63c9: 06 10        ld   b,$10
63cb: af           xor  a
63cc: 77           ld   (hl),a
63cd: 23           inc  hl
63ce: 10 fc        djnz $63CC
63d0: 3a c4 4f     ld   a,($4FC4)
63d3: b7           or   a
63d4: ca 0a 4d     jp   z,$4D0A
63d7: 3a c4 4f     ld   a,($4FC4)
63da: e6 01        and  $01
63dc: cd 10 4d     call $4D10
63df: 2a 3a 4d     ld   hl,($4D3A)
63e2: cd be 4d     call $4DBE
63e5: 3a c4 4f     ld   a,($4FC4)
63e8: e6 02        and  $02
63ea: cd 10 4d     call $4D10
63ed: 2a 3a 4d     ld   hl,($4D3A)
63f0: cd be 4d     call $4DBE
63f3: 3a c4 4f     ld   a,($4FC4)
63f6: e6 04        and  $04
63f8: cd 10 4d     call $4D10
63fb: e1           pop  hl
63fc: cd 2a 49     call $492A
63ff: 4f           ld   c,a
6400: 06 00        ld   b,$00
6402: 21 2a 4d     ld   hl,$4D2A
6405: f1           pop  af
6406: 32 54 12     ld   ($1254),a
6409: c9           ret
640a: cd 12 4d     call $4D12
640d: c3 fb 4c     jp   $4CFB
6410: d3 2d        out  ($2D),a
6412: 21 40 4f     ld   hl,$4F40
6415: cd 49 4e     call $4E49
6418: 21 39 4d     ld   hl,$4D39
641b: 06 10        ld   b,$10
641d: c5           push bc
641e: e5           push hl
641f: cd 7e 4e     call $4E7E
6422: e1           pop  hl
6423: b6           or   (hl)
6424: 77           ld   (hl),a
6425: 2b           dec  hl
6426: c1           pop  bc
6427: 10 f4        djnz $641D
6429: c9           ret
642a: 00           nop
642b: 00           nop
642c: 00           nop
642d: 00           nop
642e: 00           nop
642f: 00           nop
6430: 00           nop
6431: 00           nop
6432: 00           nop
6433: 00           nop
6434: 00           nop
6435: 00           nop
6436: 00           nop
6437: 00           nop
6438: 00           nop
6439: 00           nop
643a: 00           nop
643b: 00           nop
643c: 16 00        ld   d,$00
643e: 21 69 4d     ld   hl,$4D69
6441: f5           push af
6442: e6 0f        and  $0F
6444: 5f           ld   e,a
6445: 19           add  hl,de
6446: 4e           ld   c,(hl)
6447: f1           pop  af
6448: e6 f0        and  $F0
644a: 21 79 4d     ld   hl,$4D79
644d: 77           ld   (hl),a
644e: af           xor  a
644f: ed 6f        rld  (hl)
6451: 5f           ld   e,a
6452: 21 59 4d     ld   hl,$4D59
6455: 19           add  hl,de
6456: 7e           ld   a,(hl)
6457: b1           or   c
6458: c9           ret
6459: 00           nop
645a: 08           ex   af,af'
645b: 04           inc  b
645c: 0c           inc  c
645d: 02           ld   (bc),a
645e: 0a           ld   a,(bc)
645f: 06 0e        ld   b,$0E
6461: 01 09 05     ld   bc,$0509
6464: 0d           dec  c
6465: 03           inc  bc
6466: 0b           dec  bc
6467: 07           rlca
6468: 0f           rrca
6469: 00           nop
646a: 80           add  a,b
646b: 40           ld   b,b
646c: c0           ret  nz
646d: 20 a0        jr   nz,$640F
646f: 60           ld   h,b
6470: e0           ret  po
6471: 10 90        djnz $6403
6473: 50           ld   d,b
6474: d0           ret  nc
6475: 30 b0        jr   nc,$6427
6477: 70           ld   (hl),b
6478: f0           ret  p
6479: 00           nop
647a: 2a 94 4f     ld   hl,($4F94)
647d: c9           ret
647e: 3a 95 4f     ld   a,($4F95)
6481: c6 20        add  a,$20
6483: 47           ld   b,a
6484: 3a 94 4f     ld   a,($4F94)
6487: c6 20        add  a,$20
6489: 4f           ld   c,a
648a: c5           push bc
648b: cd 6a 16     call $166A
648e: c1           pop  bc
648f: 78           ld   a,b
6490: c5           push bc
6491: cd 81 16     call $1681
6494: c1           pop  bc
6495: 79           ld   a,c
6496: cd 81 16     call $1681
6499: 3e 0d        ld   a,$0D
649b: cd 81 16     call $1681
649e: c9           ret
649f: 3a 54 12     ld   a,($1254)
64a2: f5           push af
64a3: 3e ff        ld   a,$FF
64a5: 32 54 12     ld   ($1254),a
64a8: e5           push hl
64a9: cd 30 4b     call $4B30
64ac: e1           pop  hl
64ad: cd b8 4d     call $4DB8
64b0: f1           pop  af
64b1: 32 54 12     ld   ($1254),a
64b4: c9           ret
64b5: 21 00 00     ld   hl,$0000
64b8: 22 94 4f     ld   ($4F94),hl
64bb: 2a 94 4f     ld   hl,($4F94)
64be: af           xor  a
64bf: 32 b6 4f     ld   ($4FB6),a
64c2: 11 88 4e     ld   de,$4E88
64c5: 7d           ld   a,l
64c6: cb 3f        srl  a
64c8: 32 98 4f     ld   ($4F98),a
64cb: 3e 80        ld   a,$80
64cd: 38 02        jr   c,$64D1
64cf: 3e 00        ld   a,$00
64d1: f5           push af
64d2: 3a 98 4f     ld   a,($4F98)
64d5: 6c           ld   l,h
64d6: 26 00        ld   h,$00
64d8: 29           add  hl,hl
64d9: 19           add  hl,de
64da: 86           add  a,(hl)
64db: 5f           ld   e,a
64dc: 23           inc  hl
64dd: 7e           ld   a,(hl)
64de: ce 00        adc  a,$00
64e0: 57           ld   d,a
64e1: af           xor  a
64e2: 4b           ld   c,e
64e3: 42           ld   b,d
64e4: 2a ae 4f     ld   hl,($4FAE)
64e7: eb           ex   de,hl
64e8: ed 52        sbc  hl,de
64ea: 30 06        jr   nc,$64F2
64ec: 2a 7e 4f     ld   hl,($4F7E)
64ef: 09           add  hl,bc
64f0: 18 0a        jr   $64FC
64f2: ed 5b aa 4f  ld   de,($4FAA)
64f6: 19           add  hl,de
64f7: 3e 01        ld   a,$01
64f9: 32 b6 4f     ld   ($4FB6),a
64fc: f1           pop  af
64fd: 32 ca 4e     ld   ($4ECA),a
6500: 3a 59 89     ld   a,($8959)
6503: b7           or   a
6504: 28 05        jr   z,$650B
6506: ed 5b 62 89  ld   de,($8962)
650a: 19           add  hl,de
650b: 22 c8 4e     ld   ($4EC8),hl
650e: 21 c5 4e     ld   hl,$4EC5
6511: c3 3f 4e     jp   $4E3F
6514: 01 08 00     ld   bc,$0008
6517: 11 08 4f     ld   de,$4F08
651a: 21 6b 4f     ld   hl,$4F6B
651d: ed b0        ldir
651f: 11 19 4f     ld   de,$4F19
6522: 01 08 00     ld   bc,$0008
6525: ed b0        ldir
6527: 3e 20        ld   a,$20
6529: f6 01        or   $01
652b: cd 66 4e     call $4E66
652e: 21 05 4f     ld   hl,$4F05
6531: cd 3f 4e     call $4E3F
6534: 3e 20        ld   a,$20
6536: cd 66 4e     call $4E66
6539: 3e ff        ld   a,$FF
653b: 32 bd 4f     ld   ($4FBD),a
653e: c9           ret
653f: db 38        in   a,($38)
6541: e6 08        and  $08
6543: 20 fa        jr   nz,$653F
6545: 3e 02        ld   a,$02
6547: d3 2d        out  ($2D),a
6549: 46           ld   b,(hl)
654a: 23           inc  hl
654b: c5           push bc
654c: 7e           ld   a,(hl)
654d: cd 66 4e     call $4E66
6550: 23           inc  hl
6551: 3e 00        ld   a,$00
6553: be           cp   (hl)
6554: 28 0d        jr   z,$6563
6556: 46           ld   b,(hl)
6557: 0e 38        ld   c,$38
6559: 23           inc  hl
655a: cd 76 4e     call $4E76
655d: ed b3        otir
655f: c1           pop  bc
6560: 10 e9        djnz $654B
6562: c9           ret
6563: 23           inc  hl
6564: 18 f9        jr   $655F
6566: cd 6c 4e     call $4E6C
6569: d3 39        out  ($39),a
656b: c9           ret
656c: f5           push af
656d: db 38        in   a,($38)
656f: e6 02        and  $02
6571: c2 6d 4e     jp   nz,$4E6D
6574: f1           pop  af
6575: c9           ret
6576: db 38        in   a,($38)
6578: e6 04        and  $04
657a: ca 76 4e     jp   z,$4E76
657d: c9           ret
657e: db 38        in   a,($38)
6580: e6 01        and  $01
6582: ca 7e 4e     jp   z,$4E7E
6585: db 39        in   a,($39)
6587: c9           ret
6588: 58           ld   e,b
6589: 02           ld   (bc),a
658a: d8           ret  c
658b: 04           inc  b
658c: 58           ld   e,b
658d: 07           rlca
658e: d8           ret  c
658f: 09           add  hl,bc
6590: 58           ld   e,b
6591: 0c           inc  c
6592: d8           ret  c
6593: 0e 58        ld   c,$58
6595: 11 d8 13     ld   de,$13D8
6598: 58           ld   e,b
6599: 16 d8        ld   d,$D8
659b: 18 58        jr   $65F5
659d: 1b           dec  de
659e: d8           ret  c
659f: 1d           dec  e
65a0: 58           ld   e,b
65a1: 20 d8        jr   nz,$657B
65a3: 22 58 25     ld   ($2558),hl
65a6: d8           ret  c
65a7: 27           daa
65a8: 58           ld   e,b
65a9: 2a d8 2c     ld   hl,($2CD8)
65ac: 58           ld   e,b
65ad: 2f           cpl
65ae: d8           ret  c
65af: 31 58 34     ld   sp,$3458
65b2: d8           ret  c
65b3: 36 58        ld   (hl),$58
65b5: 39           add  hl,sp
65b6: d8           ret  c
65b7: 3b           dec  sp
65b8: 58           ld   e,b
65b9: 3e 03        ld   a,$03
65bb: 4b           ld   c,e
65bc: 01 00 46     ld   bc,$4600
65bf: 02           ld   (bc),a
65c0: 00           nop
65c1: 00           nop
65c2: 47           ld   b,a
65c3: 01 50 01     ld   bc,$0150
65c6: 49           ld   c,c
65c7: 03           inc  bc
65c8: 00           nop
65c9: 00           nop
65ca: 00           nop
65cb: 03           inc  bc
65cc: 4c           ld   c,h
65cd: 03           inc  bc
65ce: 02           ld   (bc),a
65cf: 00           nop
65d0: 00           nop
65d1: 4a           ld   c,d
65d2: 02           ld   (bc),a
65d3: ff           rst  $38
65d4: ff           rst  $38
65d5: 20 02        jr   nz,$65D9
65d7: 00           nop
65d8: 00           nop
65d9: 03           inc  bc
65da: 78           ld   a,b
65db: 08           ex   af,af'
65dc: 00           nop
65dd: 00           nop
65de: 00           nop
65df: 00           nop
65e0: 00           nop
65e1: 00           nop
65e2: 00           nop
65e3: 00           nop
65e4: 4c           ld   c,h
65e5: 07           rlca
65e6: 12           ld   (de),a
65e7: 0f           rrca
65e8: 40           ld   b,b
65e9: 00           nop
65ea: 00           nop
65eb: 00           nop
65ec: 00           nop
65ed: 68           ld   l,b
65ee: 00           nop
65ef: 03           inc  bc
65f0: 78           ld   a,b
65f1: 08           ex   af,af'
65f2: 00           nop
65f3: 00           nop
65f4: 00           nop
65f5: 00           nop
65f6: 00           nop
65f7: 00           nop
65f8: ff           rst  $38
65f9: 00           nop
65fa: 4c           ld   c,h
65fb: 07           rlca
65fc: 12           ld   (de),a
65fd: 07           rlca
65fe: 40           ld   b,b
65ff: 00           nop
6600: 00           nop
6601: 00           nop
6602: 00           nop
6603: 68           ld   l,b
6604: 00           nop
6605: 06 78        ld   b,$78
6607: 08           ex   af,af'
6608: 00           nop
6609: 00           nop
660a: 00           nop
660b: 00           nop
660c: 00           nop
660d: 00           nop
660e: 00           nop
660f: 00           nop
6610: 4c           ld   c,h
6611: 03           inc  bc
6612: 12           ld   (de),a
6613: 07           rlca
6614: 40           ld   b,b
6615: 68           ld   l,b
6616: 00           nop
6617: 78           ld   a,b
6618: 08           ex   af,af'
6619: 00           nop
661a: 00           nop
661b: 00           nop
661c: 00           nop
661d: 00           nop
661e: 00           nop
661f: 00           nop
6620: 00           nop
6621: 4c           ld   c,h
6622: 03           inc  bc
6623: 12           ld   (de),a
6624: 07           rlca
6625: 40           ld   b,b
6626: 68           ld   l,b
6627: 00           nop
6628: 03           inc  bc
6629: 4a           ld   c,d
662a: 02           ld   (bc),a
662b: ff           rst  $38
662c: ff           rst  $38
662d: 4c           ld   c,h
662e: 03           inc  bc
662f: 06 00        ld   b,$00
6631: 00           nop
6632: a0           and  b
6633: 00           nop
6634: 03           inc  bc
6635: 4a           ld   c,d
6636: 02           ld   (bc),a
6637: ff           rst  $38
6638: ff           rst  $38
6639: 4c           ld   c,h
663a: 03           inc  bc
663b: 06 00        ld   b,$00
663d: 00           nop
663e: 20 00        jr   nz,$6640
6640: 03           inc  bc
6641: 4a           ld   c,d
6642: 02           ld   (bc),a
6643: ff           rst  $38
6644: ff           rst  $38
6645: 4c           ld   c,h
6646: 03           inc  bc
6647: 04           inc  b
6648: 10 40        djnz $668A
664a: 00           nop
664b: 00           nop
664c: 02           ld   (bc),a
664d: 4c           ld   c,h
664e: 03           inc  bc
664f: 04           inc  b
6650: 00           nop
6651: 00           nop
6652: 00           nop
6653: 00           nop
6654: 04           inc  b
6655: 78           ld   a,b
6656: 02           ld   (bc),a
6657: ff           rst  $38
6658: ff           rst  $38
6659: 49           ld   c,c
665a: 03           inc  bc
665b: 00           nop
665c: 00           nop
665d: 00           nop
665e: 4c           ld   c,h
665f: 01 02 6c     ld   bc,$6C02
6662: 00           nop
6663: 00           nop
6664: 00           nop
6665: 00           nop
6666: 00           nop
6667: 00           nop
6668: 00           nop
6669: 00           nop
666a: 00           nop
666b: ff           rst  $38
666c: ff           rst  $38
666d: ff           rst  $38
666e: ff           rst  $38
666f: ff           rst  $38
6670: ff           rst  $38
6671: ff           rst  $38
6672: ff           rst  $38
6673: ff           rst  $38
6674: ff           rst  $38
6675: ff           rst  $38
6676: ff           rst  $38
6677: ff           rst  $38
6678: ff           rst  $38
6679: ff           rst  $38
667a: ff           rst  $38
667b: 02           ld   (bc),a
667c: 70           ld   (hl),b
667d: 08           ex   af,af'
667e: 00           nop
667f: 00           nop
6680: 00           nop
6681: 00           nop
6682: 00           nop
6683: 00           nop
6684: 00           nop
6685: 00           nop
6686: 4c           ld   c,h
6687: 01 02 00     ld   bc,$0002
668a: 00           nop
668b: 00           nop
668c: 00           nop
668d: 00           nop
668e: 00           nop
668f: 00           nop
6690: 20 11        jr   nz,$66A3
6692: 55           ld   d,l
6693: 50           ld   d,b
6694: 00           nop
6695: 00           nop
6696: 18 10        jr   $66A8
6698: 00           nop
6699: 00           nop
669a: 00           nop
669b: 00           nop
669c: 00           nop
669d: 00           nop
669e: 00           nop
669f: 00           nop
66a0: 00           nop
66a1: 04           inc  b
66a2: 00           nop
66a3: 00           nop
66a4: 00           nop
66a5: 00           nop
66a6: 00           nop
66a7: 00           nop
66a8: 00           nop
66a9: 00           nop
66aa: 00           nop
66ab: 00           nop
66ac: 80           add  a,b
66ad: 3e 80        ld   a,$80
66af: 3e 80        ld   a,$80
66b1: 3e 80        ld   a,$80
66b3: 3e 90        ld   a,$90
66b5: 01 00 00     ld   bc,$0000
66b8: 00           nop
66b9: 44           ld   b,h
66ba: 8f           adc  a,a
66bb: 00           nop
66bc: 00           nop
66bd: ff           rst  $38
66be: 00           nop
66bf: 00           nop
66c0: 00           nop
66c1: 00           nop
66c2: 00           nop
66c3: 01 00 00     ld   bc,$0000
66c6: 00           nop
66c7: 48           ld   c,b
66c8: 00           nop
66c9: 00           nop
66ca: 00           nop
66cb: 00           nop
66cc: 00           nop
66cd: 00           nop
66ce: 00           nop
66cf: 00           nop
66d0: 00           nop
66d1: 00           nop
66d2: 00           nop
66d3: 00           nop
66d4: 00           nop
66d5: 00           nop
66d6: 00           nop
66d7: 00           nop
66d8: 00           nop
66d9: 00           nop
66da: 00           nop
66db: 00           nop
66dc: 00           nop
66dd: 00           nop
66de: 00           nop
66df: 00           nop
66e0: 00           nop
66e1: 00           nop
66e2: 00           nop
66e3: 00           nop
66e4: 00           nop
66e5: 00           nop
66e6: 00           nop
66e7: 00           nop
66e8: 00           nop
66e9: 00           nop
66ea: 00           nop
66eb: 00           nop
66ec: 00           nop
66ed: 00           nop
66ee: 00           nop
66ef: 00           nop
66f0: 00           nop
66f1: 00           nop
66f2: 00           nop
66f3: 00           nop
66f4: 00           nop
66f5: 00           nop
66f6: 00           nop
66f7: 00           nop
66f8: 00           nop
66f9: 00           nop
66fa: 00           nop
66fb: 00           nop
66fc: 00           nop
66fd: 00           nop
66fe: 00           nop
66ff: 00           nop
6700: 00           nop
6701: 00           nop
6702: 00           nop
6703: 00           nop
6704: 00           nop
6705: 00           nop
6706: 00           nop
6707: 00           nop
6708: f7           rst  $30
6709: 4f           ld   c,a
670a: 00           nop
670b: 00           nop
670c: 00           nop
670d: 00           nop
670e: 00           nop
670f: 00           nop
6710: 00           nop
6711: 00           nop
6712: 00           nop
6713: 00           nop
6714: 00           nop
6715: 00           nop
6716: 00           nop
6717: 00           nop
6718: 00           nop
6719: 00           nop
671a: 00           nop
671b: 00           nop
671c: 00           nop
671d: 00           nop
671e: 00           nop
671f: 00           nop
6720: 00           nop
6721: 00           nop
6722: 00           nop
6723: 00           nop
6724: 00           nop
6725: 00           nop
6726: 00           nop
6727: 00           nop
6728: 00           nop
6729: 00           nop
672a: 00           nop
672b: 00           nop
672c: 00           nop
672d: 00           nop
672e: 00           nop
672f: 00           nop
6730: 00           nop
6731: 00           nop
6732: 00           nop
6733: 00           nop
6734: 00           nop
6735: 00           nop
6736: 00           nop
6737: 00           nop
6738: 00           nop
6739: 00           nop
673a: 00           nop
673b: 00           nop
673c: 00           nop
673d: 00           nop
673e: 00           nop
673f: 00           nop
6740: 00           nop
6741: 00           nop
6742: 00           nop
6743: 00           nop
6744: 00           nop
6745: 00           nop
6746: 00           nop
6747: 00           nop
6748: 00           nop
6749: 00           nop
674a: 00           nop
674b: 00           nop
674c: 00           nop
674d: 00           nop
674e: 00           nop
674f: 00           nop
6750: 00           nop
6751: 00           nop
6752: 00           nop
6753: 00           nop
6754: 00           nop
6755: 00           nop
6756: 00           nop
6757: 00           nop
6758: 00           nop
6759: 00           nop
675a: 00           nop
675b: 00           nop
675c: 00           nop
675d: 00           nop
675e: 00           nop
675f: 00           nop
6760: 00           nop
6761: 00           nop
6762: 00           nop
6763: 00           nop
6764: 00           nop
6765: 00           nop
6766: 00           nop
6767: 00           nop
6768: 00           nop
6769: 00           nop
676a: 00           nop
676b: 00           nop
676c: 00           nop
676d: 00           nop
676e: 00           nop
676f: 00           nop
6770: 00           nop
6771: 00           nop
6772: 00           nop
6773: 00           nop
6774: 00           nop
6775: 00           nop
6776: 00           nop
6777: 00           nop
6778: 00           nop
6779: 00           nop
677a: 00           nop
677b: 00           nop
677c: 00           nop
677d: 00           nop
677e: 00           nop
677f: 00           nop
6780: 00           nop
6781: 00           nop
6782: 00           nop
6783: 00           nop
6784: 00           nop
6785: 00           nop
6786: 00           nop
6787: 00           nop
6788: 00           nop
6789: 00           nop
678a: 00           nop
678b: 00           nop
678c: 00           nop
678d: 00           nop
678e: 00           nop
678f: 00           nop
6790: 00           nop
6791: 00           nop
6792: 00           nop
6793: 00           nop
6794: 00           nop
6795: 00           nop
6796: 00           nop
6797: 00           nop
6798: 00           nop
6799: 00           nop
679a: 00           nop
679b: 00           nop
679c: 00           nop
679d: 00           nop
679e: 00           nop
679f: 00           nop
67a0: 00           nop
67a1: 00           nop
67a2: 00           nop
67a3: 00           nop
67a4: 00           nop
67a5: 00           nop
67a6: 00           nop
67a7: 00           nop
67a8: 00           nop
67a9: 00           nop
67aa: ff           rst  $38
67ab: ff           rst  $38
67ac: 00           nop
67ad: 00           nop
67ae: 50           ld   d,b
67af: 00           nop
67b0: a0           and  b
67b1: 00           nop
67b2: f0           ret  p
67b3: 00           nop
67b4: 40           ld   b,b
67b5: 01 90 01     ld   bc,$0190
67b8: e0           ret  po
67b9: 01 30 02     ld   bc,$0230
67bc: 80           add  a,b
67bd: 02           ld   (bc),a
67be: d0           ret  nc
67bf: 02           ld   (bc),a
67c0: 20 03        jr   nz,$67C5
67c2: 70           ld   (hl),b
67c3: 03           inc  bc
67c4: c0           ret  nz
67c5: 03           inc  bc
67c6: 10 04        djnz $67CC
67c8: 60           ld   h,b
67c9: 04           inc  b
67ca: b0           or   b
67cb: 04           inc  b
67cc: 00           nop
67cd: 05           dec  b
67ce: 50           ld   d,b
67cf: 05           dec  b
67d0: a0           and  b
67d1: 05           dec  b
67d2: f0           ret  p
67d3: 05           dec  b
67d4: 40           ld   b,b
67d5: 06 90        ld   b,$90
67d7: 06 e0        ld   b,$E0
67d9: 06 30        ld   b,$30
67db: 07           rlca
67dc: 82           add  a,d
67dd: 07           rlca
67de: ff           rst  $38
67df: ff           rst  $38
67e0: 00           nop
67e1: 00           nop
67e2: 00           nop
67e3: 00           nop
67e4: 00           nop
67e5: 00           nop
67e6: 00           nop
67e7: 00           nop
67e8: 00           nop
67e9: 00           nop
67ea: 00           nop
67eb: 00           nop
67ec: 00           nop
67ed: 00           nop
67ee: 00           nop
67ef: 00           nop
67f0: 00           nop
67f1: 00           nop
67f2: 00           nop
67f3: 00           nop
67f4: 00           nop
67f5: 00           nop
67f6: 00           nop
67f7: 00           nop
67f8: 00           nop
67f9: 00           nop
67fa: 00           nop
67fb: 00           nop
67fc: 00           nop
67fd: 00           nop
67fe: 00           nop
67ff: 00           nop
6800: 00           nop
6801: 00           nop
6802: 00           nop
6803: 00           nop
6804: 00           nop
6805: 00           nop
6806: 00           nop
6807: 00           nop
6808: 00           nop
6809: 00           nop
680a: 00           nop
680b: 00           nop
680c: 00           nop
680d: 00           nop
680e: 00           nop
680f: 00           nop
6810: 00           nop
6811: 00           nop
6812: 00           nop
6813: 00           nop
6814: 00           nop
6815: 00           nop
6816: 00           nop
6817: 00           nop
6818: 00           nop
6819: 00           nop
681a: 00           nop
681b: 00           nop
681c: 00           nop
681d: 00           nop
681e: 00           nop
681f: 00           nop
6820: 00           nop
6821: 00           nop
6822: 00           nop
6823: 00           nop
6824: 00           nop
6825: 00           nop
6826: 00           nop
6827: 00           nop
6828: 00           nop
6829: 00           nop
682a: 00           nop
682b: 00           nop
682c: 00           nop
682d: 00           nop
682e: 00           nop
682f: 00           nop
6830: 00           nop
6831: 00           nop
6832: 00           nop
6833: 00           nop
6834: 00           nop
6835: 00           nop
6836: 00           nop
6837: 00           nop
6838: 00           nop
6839: 00           nop
683a: 00           nop
683b: 00           nop
683c: 00           nop
683d: 00           nop
683e: 00           nop
683f: 00           nop
6840: 00           nop
6841: 00           nop
6842: 00           nop
6843: 00           nop
6844: 00           nop
6845: 00           nop
6846: 00           nop
6847: 00           nop
6848: 00           nop
6849: 00           nop
684a: 00           nop
684b: 00           nop
684c: 00           nop
684d: 00           nop
684e: 00           nop
684f: 00           nop
6850: 00           nop
6851: 00           nop
6852: 00           nop
6853: 00           nop
6854: 00           nop
6855: 00           nop
6856: 00           nop
6857: 00           nop
6858: 00           nop
6859: 00           nop
685a: 00           nop
685b: 00           nop
685c: 00           nop
685d: 00           nop
685e: 00           nop
685f: 00           nop
6860: 00           nop
6861: 00           nop
6862: 00           nop
6863: 00           nop
6864: 00           nop
6865: 00           nop
6866: 00           nop
6867: 00           nop
6868: 00           nop
6869: 00           nop
686a: 00           nop
686b: 00           nop
686c: 00           nop
686d: 00           nop
686e: 00           nop
686f: 00           nop
6870: 00           nop
6871: 00           nop
6872: 00           nop
6873: 00           nop
6874: 00           nop
6875: 00           nop
6876: 00           nop
6877: 00           nop
6878: 00           nop
6879: 00           nop
687a: 00           nop
687b: 00           nop
687c: 00           nop
687d: 00           nop
687e: 00           nop
687f: 00           nop
6880: 00           nop
6881: 00           nop
6882: 00           nop
6883: 00           nop
6884: 00           nop
6885: 00           nop
6886: 00           nop
6887: 00           nop
6888: 00           nop
6889: 00           nop
688a: 00           nop
688b: 00           nop
688c: 00           nop
688d: 00           nop
688e: 00           nop
688f: 00           nop
6890: 00           nop
6891: 00           nop
6892: 00           nop
6893: 00           nop
6894: 00           nop
6895: 00           nop
6896: 00           nop
6897: 00           nop
6898: 00           nop
6899: 00           nop
689a: 00           nop
689b: 00           nop
689c: 00           nop
689d: 00           nop
689e: 00           nop
689f: 00           nop
68a0: 00           nop
68a1: 00           nop
68a2: 00           nop
68a3: 00           nop
68a4: 00           nop
68a5: 00           nop
68a6: 00           nop
68a7: 00           nop
68a8: 00           nop
68a9: 00           nop
68aa: 00           nop
68ab: 00           nop
68ac: 00           nop
68ad: 00           nop
68ae: 00           nop
68af: 00           nop
68b0: 00           nop
68b1: 00           nop
68b2: 00           nop
68b3: 00           nop
68b4: 00           nop
68b5: 00           nop
68b6: 00           nop
68b7: 00           nop
68b8: 00           nop
68b9: 00           nop
68ba: 00           nop
68bb: 00           nop
68bc: 00           nop
68bd: 00           nop
68be: 00           nop
68bf: 00           nop
68c0: 00           nop
68c1: 00           nop
68c2: 00           nop
68c3: 00           nop
68c4: 00           nop
68c5: 00           nop
68c6: 00           nop
68c7: 00           nop
68c8: 00           nop
68c9: 00           nop
68ca: 00           nop
68cb: 00           nop
68cc: 00           nop
68cd: 00           nop
68ce: 00           nop
68cf: 00           nop
68d0: 00           nop
68d1: 00           nop
68d2: 00           nop
68d3: 00           nop
68d4: 00           nop
68d5: 00           nop
68d6: 00           nop
68d7: 00           nop
68d8: 00           nop
68d9: 00           nop
68da: 00           nop
68db: 00           nop
68dc: 00           nop
68dd: 00           nop
68de: 00           nop
68df: 00           nop
68e0: 00           nop
68e1: 00           nop
68e2: 00           nop
68e3: 00           nop
68e4: 00           nop
68e5: 00           nop
68e6: 00           nop
68e7: 00           nop
68e8: 00           nop
68e9: 00           nop
68ea: 00           nop
68eb: 00           nop
68ec: 00           nop
68ed: 00           nop
68ee: 00           nop
68ef: 00           nop
68f0: 00           nop
68f1: 00           nop
68f2: 00           nop
68f3: 00           nop
68f4: 00           nop
68f5: 00           nop
68f6: 00           nop
68f7: 00           nop
68f8: 00           nop
68f9: 00           nop
68fa: 00           nop
68fb: 00           nop
68fc: 00           nop
68fd: 00           nop
68fe: 00           nop
68ff: 00           nop
6900: e6 fe        and  $FE
6902: 32 f5 54     ld   ($54F5),a
6905: 22 fb 54     ld   ($54FB),hl
6908: ed 43 fd 54  ld   ($54FD),bc
690c: cd 73 53     call $5373
690f: 3a fa 54     ld   a,($54FA)
6912: b7           or   a
6913: cc 5a 54     call z,$545A
6916: db 2c        in   a,($2C)
6918: e6 01        and  $01
691a: 3e ff        ld   a,$FF
691c: 28 03        jr   z,$6921
691e: 32 c4 4f     ld   ($4FC4),a
6921: 2a fb 54     ld   hl,($54FB)
6924: ed 4b fd 54  ld   bc,($54FD)
6928: 7d           ld   a,l
6929: 32 f2 54     ld   ($54F2),a
692c: 78           ld   a,b
692d: 32 f7 54     ld   ($54F7),a
6930: fe ff        cp   $FF
6932: ca 46 52     jp   z,$5246
6935: 7c           ld   a,h
6936: fe 00        cp   $00
6938: ca 46 52     jp   z,$5246
693b: fe 01        cp   $01
693d: ca c2 52     jp   z,$52C2
6940: fe 02        cp   $02
6942: ca ff 52     jp   z,$52FF
6945: c9           ret
6946: 3a c4 4f     ld   a,($4FC4)
6949: b7           or   a
694a: c2 c2 52     jp   nz,$52C2
694d: c5           push bc
694e: af           xor  a
694f: 32 38 27     ld   ($2738),a
6952: 32 f6 54     ld   ($54F6),a
6955: 3a f3 54     ld   a,($54F3)
6958: fe ff        cp   $FF
695a: 11 b6 39     ld   de,$39B6
695d: 28 0e        jr   z,$696D
695f: e6 03        and  $03
6961: cb 27        sla  a
6963: 5f           ld   e,a
6964: 16 00        ld   d,$00
6966: 21 ff 54     ld   hl,$54FF
6969: 19           add  hl,de
696a: 5e           ld   e,(hl)
696b: 23           inc  hl
696c: 56           ld   d,(hl)
696d: 21 a8 38     ld   hl,$38A8
6970: ed 4b e4 38  ld   bc,($38E4)
6974: ed b0        ldir
6976: c1           pop  bc
6977: c5           push bc
6978: 78           ld   a,b
6979: fe ff        cp   $FF
697b: 11 b6 39     ld   de,$39B6
697e: ca 8f 52     jp   z,$528F
6981: e6 03        and  $03
6983: cb 27        sla  a
6985: 5f           ld   e,a
6986: 16 00        ld   d,$00
6988: 21 ff 54     ld   hl,$54FF
698b: 19           add  hl,de
698c: 5e           ld   e,(hl)
698d: 23           inc  hl
698e: 56           ld   d,(hl)
698f: 21 a8 38     ld   hl,$38A8
6992: eb           ex   de,hl
6993: ed 4b e4 38  ld   bc,($38E4)
6997: ed b0        ldir
6999: c1           pop  bc
699a: cd 36 53     call $5336
699d: 11 00 20     ld   de,$2000
69a0: cd 16 09     call $0916
69a3: 3e 0d        ld   a,$0D
69a5: cd e0 08     call $08E0
69a8: 3a fa 54     ld   a,($54FA)
69ab: 47           ld   b,a
69ac: 3a f2 54     ld   a,($54F2)
69af: cd da 12     call $12DA
69b2: 2a bd 38     ld   hl,($38BD)
69b5: cd e6 12     call $12E6
69b8: af           xor  a
69b9: 32 5a 12     ld   ($125A),a
69bc: 3e ff        ld   a,$FF
69be: 32 fa 54     ld   ($54FA),a
69c1: c9           ret
69c2: cd 1e 54     call $541E
69c5: af           xor  a
69c6: 3e 01        ld   a,$01
69c8: 32 f6 54     ld   ($54F6),a
69cb: 3e ff        ld   a,$FF
69cd: 32 38 27     ld   ($2738),a
69d0: cd 36 53     call $5336
69d3: 22 aa 4f     ld   ($4FAA),hl
69d6: 3a f8 54     ld   a,($54F8)
69d9: b7           or   a
69da: 28 09        jr   z,$69E5
69dc: 21 00 00     ld   hl,$0000
69df: 22 5e 83     ld   ($835E),hl
69e2: 22 aa 4f     ld   ($4FAA),hl
69e5: 3a fa 54     ld   a,($54FA)
69e8: 47           ld   b,a
69e9: 3a f2 54     ld   a,($54F2)
69ec: cd da 12     call $12DA
69ef: af           xor  a
69f0: 32 5a 12     ld   ($125A),a
69f3: 3e ff        ld   a,$FF
69f5: 32 fa 54     ld   ($54FA),a
69f8: 3a f7 54     ld   a,($54F7)
69fb: 32 f4 54     ld   ($54F4),a
69fe: c9           ret
69ff: cd 1e 54     call $541E
6a02: 3e ff        ld   a,$FF
6a04: 32 5d 83     ld   ($835D),a
6a07: 32 38 27     ld   ($2738),a
6a0a: cd 36 53     call $5336
6a0d: 22 5e 83     ld   ($835E),hl
6a10: 3a f8 54     ld   a,($54F8)
6a13: b7           or   a
6a14: 28 09        jr   z,$6A1F
6a16: 21 00 00     ld   hl,$0000
6a19: 22 5e 83     ld   ($835E),hl
6a1c: 22 aa 4f     ld   ($4FAA),hl
6a1f: 3e 02        ld   a,$02
6a21: 32 f6 54     ld   ($54F6),a
6a24: 3a f2 54     ld   a,($54F2)
6a27: cd da 12     call $12DA
6a2a: 11 00 20     ld   de,$2000
6a2d: cd 16 09     call $0916
6a30: 3e 0d        ld   a,$0D
6a32: cd e0 08     call $08E0
6a35: c9           ret
6a36: c5           push bc
6a37: cd 13 54     call $5413
6a3a: c1           pop  bc
6a3b: 3a 38 27     ld   a,($2738)
6a3e: 21 c4 4f     ld   hl,$4FC4
6a41: b6           or   (hl)
6a42: c2 e7 53     jp   nz,$53E7
6a45: 78           ld   a,b
6a46: 32 f3 54     ld   ($54F3),a
6a49: fe ff        cp   $FF
6a4b: ca 6c 53     jp   z,$536C
6a4e: af           xor  a
6a4f: cd fb 53     call $53FB
6a52: e5           push hl
6a53: 22 c9 38     ld   ($38C9),hl
6a56: 21 39 2b     ld   hl,$2B39
6a59: af           xor  a
6a5a: 32 5d 83     ld   ($835D),a
6a5d: 3e 00        ld   a,$00
6a5f: 32 f6 54     ld   ($54F6),a
6a62: 11 d7 12     ld   de,$12D7
6a65: 01 1b 00     ld   bc,$001B
6a68: ed b0        ldir
6a6a: e1           pop  hl
6a6b: c9           ret
6a6c: 21 00 1e     ld   hl,$1E00
6a6f: e5           push hl
6a70: c3 53 53     jp   $5353
6a73: fe 50        cp   $50
6a75: 30 1c        jr   nc,$6A93
6a77: 3e 50        ld   a,$50
6a79: 32 f5 54     ld   ($54F5),a
6a7c: af           xor  a
6a7d: cb cf        set  1,a
6a7f: 32 f9 54     ld   ($54F9),a
6a82: 21 7f 02     ld   hl,$027F
6a85: 22 66 83     ld   ($8366),hl
6a88: 21 8f 01     ld   hl,$018F
6a8b: 22 68 83     ld   ($8368),hl
6a8e: af           xor  a
6a8f: 32 f8 54     ld   ($54F8),a
6a92: c9           ret
6a93: 32 f5 54     ld   ($54F5),a
6a96: fe 50        cp   $50
6a98: 20 12        jr   nz,$6AAC
6a9a: 21 80 02     ld   hl,$0280
6a9d: 22 66 83     ld   ($8366),hl
6aa0: 21 40 06     ld   hl,$0640
6aa3: 22 68 83     ld   ($8368),hl
6aa6: af           xor  a
6aa7: cb cf        set  1,a
6aa9: c3 df 53     jp   $53DF
6aac: fe a0        cp   $A0
6aae: 20 12        jr   nz,$6AC2
6ab0: 21 00 05     ld   hl,$0500
6ab3: 22 66 83     ld   ($8366),hl
6ab6: 21 20 03     ld   hl,$0320
6ab9: 22 68 83     ld   ($8368),hl
6abc: af           xor  a
6abd: cb d7        set  2,a
6abf: c3 df 53     jp   $53DF
6ac2: 21 01 00     ld   hl,$0001
6ac5: 11 fe ff     ld   de,$FFFE
6ac8: 4f           ld   c,a
6ac9: 06 00        ld   b,$00
6acb: c5           push bc
6acc: cd a9 87     call $87A9
6acf: ed 53 68 83  ld   ($8368),de
6ad3: d1           pop  de
6ad4: 3e 08        ld   a,$08
6ad6: cd e2 8a     call $8AE2
6ad9: 22 66 83     ld   ($8366),hl
6adc: af           xor  a
6add: cb df        set  3,a
6adf: 32 f9 54     ld   ($54F9),a
6ae2: 3e ff        ld   a,$FF
6ae4: c3 8f 53     jp   $538F
6ae7: 3e ff        ld   a,$FF
6ae9: cd fb 53     call $53FB
6aec: e5           push hl
6aed: 22 aa 4f     ld   ($4FAA),hl
6af0: 21 ea 39     ld   hl,$39EA
6af3: 3e 01        ld   a,$01
6af5: 32 f6 54     ld   ($54F6),a
6af8: c3 62 53     jp   $5362
6afb: b7           or   a
6afc: 21 e0 54     ld   hl,$54E0
6aff: 28 03        jr   z,$6B04
6b01: 21 ea 54     ld   hl,$54EA
6b04: 78           ld   a,b
6b05: e6 03        and  $03
6b07: cb 27        sla  a
6b09: 5f           ld   e,a
6b0a: 16 00        ld   d,$00
6b0c: 19           add  hl,de
6b0d: 5e           ld   e,(hl)
6b0e: 23           inc  hl
6b0f: 56           ld   d,(hl)
6b10: 6b           ld   l,e
6b11: 62           ld   h,d
6b12: c9           ret
6b13: 11 f0 4a     ld   de,$4AF0
6b16: 3e 0d        ld   a,$0D
6b18: 06 00        ld   b,$00
6b1a: cd b5 08     call $08B5
6b1d: c9           ret
6b1e: c5           push bc
6b1f: 3a f4 54     ld   a,($54F4)
6b22: e6 03        and  $03
6b24: cb 27        sla  a
6b26: 5f           ld   e,a
6b27: 16 00        ld   d,$00
6b29: 21 09 55     ld   hl,$5509
6b2c: 19           add  hl,de
6b2d: 5e           ld   e,(hl)
6b2e: 23           inc  hl
6b2f: 56           ld   d,(hl)
6b30: 21 7b 4f     ld   hl,$4F7B
6b33: ed 4b c7 4f  ld   bc,($4FC7)
6b37: ed b0        ldir
6b39: c1           pop  bc
6b3a: c5           push bc
6b3b: 78           ld   a,b
6b3c: e6 03        and  $03
6b3e: cb 27        sla  a
6b40: 5f           ld   e,a
6b41: 16 00        ld   d,$00
6b43: 21 09 55     ld   hl,$5509
6b46: 19           add  hl,de
6b47: 5e           ld   e,(hl)
6b48: 23           inc  hl
6b49: 56           ld   d,(hl)
6b4a: 21 7b 4f     ld   hl,$4F7B
6b4d: eb           ex   de,hl
6b4e: ed 4b c7 4f  ld   bc,($4FC7)
6b52: ed b0        ldir
6b54: c1           pop  bc
6b55: 78           ld   a,b
6b56: 32 f4 54     ld   ($54F4),a
6b59: c9           ret
6b5a: 21 a8 38     ld   hl,$38A8
6b5d: 11 e6 38     ld   de,$38E6
6b60: ed 4b e4 38  ld   bc,($38E4)
6b64: ed b0        ldir
6b66: 21 a8 38     ld   hl,$38A8
6b69: 11 1a 39     ld   de,$391A
6b6c: ed 4b e4 38  ld   bc,($38E4)
6b70: ed b0        ldir
6b72: 21 a8 38     ld   hl,$38A8
6b75: 11 4e 39     ld   de,$394E
6b78: ed 4b e4 38  ld   bc,($38E4)
6b7c: ed b0        ldir
6b7e: 21 a8 38     ld   hl,$38A8
6b81: 11 82 39     ld   de,$3982
6b84: ed 4b e4 38  ld   bc,($38E4)
6b88: ed b0        ldir
6b8a: 21 a8 38     ld   hl,$38A8
6b8d: 11 b6 39     ld   de,$39B6
6b90: ed 4b e4 38  ld   bc,($38E4)
6b94: ed b0        ldir
6b96: 21 7b 4f     ld   hl,$4F7B
6b99: ed 4b c7 4f  ld   bc,($4FC7)
6b9d: 11 e0 50     ld   de,$50E0
6ba0: ed b0        ldir
6ba2: 21 7b 4f     ld   hl,$4F7B
6ba5: ed 4b c7 4f  ld   bc,($4FC7)
6ba9: 11 28 51     ld   de,$5128
6bac: ed b0        ldir
6bae: 21 7b 4f     ld   hl,$4F7B
6bb1: ed 4b c7 4f  ld   bc,($4FC7)
6bb5: 11 70 51     ld   de,$5170
6bb8: ed b0        ldir
6bba: 21 7b 4f     ld   hl,$4F7B
6bbd: ed 4b c7 4f  ld   bc,($4FC7)
6bc1: 11 b8 51     ld   de,$51B8
6bc4: ed b0        ldir
6bc6: c9           ret
6bc7: 53           ld   d,e
6bc8: 63           ld   h,e
6bc9: 72           ld   (hl),d
6bca: 65           ld   h,l
6bcb: 65           ld   h,l
6bcc: 6e           ld   l,(hl)
6bcd: 20 53        jr   nz,$6C22
6bcf: 74           ld   (hl),h
6bd0: 61           ld   h,c
6bd1: 72           ld   (hl),d
6bd2: 74           ld   (hl),h
6bd3: 69           ld   l,c
6bd4: 6e           ld   l,(hl)
6bd5: 67           ld   h,a
6bd6: 20 41        jr   nz,$6C19
6bd8: 64           ld   h,h
6bd9: 64           ld   h,h
6bda: 72           ld   (hl),d
6bdb: 65           ld   h,l
6bdc: 73           ld   (hl),e
6bdd: 73           ld   (hl),e
6bde: 65           ld   h,l
6bdf: 73           ld   (hl),e
6be0: 00           nop
6be1: 00           nop
6be2: 80           add  a,b
6be3: 07           rlca
6be4: 00           nop
6be5: 0f           rrca
6be6: 80           add  a,b
6be7: 16 00        ld   d,$00
6be9: 1e 00        ld   e,$00
6beb: 40           ld   b,b
6bec: 80           add  a,b
6bed: 7e           ld   a,(hl)
6bee: 00           nop
6bef: bd           cp   l
6bf0: 00           nop
6bf1: 00           nop
6bf2: 00           nop
6bf3: 00           nop
6bf4: 00           nop
6bf5: 50           ld   d,b
6bf6: 00           nop
6bf7: 00           nop
6bf8: 00           nop
6bf9: 00           nop
6bfa: 00           nop
6bfb: 00           nop
6bfc: 00           nop
6bfd: 00           nop
6bfe: 00           nop
6bff: e6 38        and  $38
6c01: 1a           ld   a,(de)
6c02: 39           add  hl,sp
6c03: 4e           ld   c,(hl)
6c04: 39           add  hl,sp
6c05: 82           add  a,d
6c06: 39           add  hl,sp
6c07: b6           or   (hl)
6c08: 39           add  hl,sp
6c09: e0           ret  po
6c0a: 50           ld   d,b
6c0b: 28 51        jr   z,$6C5E
6c0d: 70           ld   (hl),b
6c0e: 51           ld   d,c
6c0f: b8           cp   b
6c10: 51           ld   d,c
6c11: 00           nop
6c12: 00           nop
6c13: 00           nop
6c14: 00           nop
6c15: 00           nop
6c16: 00           nop
6c17: 00           nop
6c18: 00           nop
6c19: 00           nop
6c1a: 00           nop
6c1b: 00           nop
6c1c: 00           nop
6c1d: 00           nop
6c1e: 00           nop
6c1f: 00           nop
6c20: 00           nop
6c21: 08           ex   af,af'
6c22: 00           nop
6c23: 00           nop
6c24: 08           ex   af,af'
6c25: 00           nop
6c26: 00           nop
6c27: 00           nop
6c28: 00           nop
6c29: 08           ex   af,af'
6c2a: 08           ex   af,af'
6c2b: 08           ex   af,af'
6c2c: 08           ex   af,af'
6c2d: 08           ex   af,af'
6c2e: 08           ex   af,af'
6c2f: 08           ex   af,af'
6c30: 08           ex   af,af'
6c31: 00           nop
6c32: 00           nop
6c33: 00           nop
6c34: 00           nop
6c35: 00           nop
6c36: 00           nop
6c37: 00           nop
6c38: 00           nop
6c39: 36 12        ld   (hl),$12
6c3b: 12           ld   (de),a
6c3c: 00           nop
6c3d: 00           nop
6c3e: 00           nop
6c3f: 00           nop
6c40: 00           nop
6c41: 24           inc  h
6c42: 24           inc  h
6c43: 24           inc  h
6c44: 00           nop
6c45: 00           nop
6c46: 00           nop
6c47: 00           nop
6c48: 00           nop
6c49: 00           nop
6c4a: 24           inc  h
6c4b: 24           inc  h
6c4c: 24           inc  h
6c4d: 7e           ld   a,(hl)
6c4e: 24           inc  h
6c4f: 24           inc  h
6c50: 7e           ld   a,(hl)
6c51: 48           ld   c,b
6c52: 49           ld   c,c
6c53: 3e 08        ld   a,$08
6c55: 08           ex   af,af'
6c56: 00           nop
6c57: 00           nop
6c58: 00           nop
6c59: 08           ex   af,af'
6c5a: 08           ex   af,af'
6c5b: 3e 49        ld   a,$49
6c5d: 09           add  hl,bc
6c5e: 09           add  hl,bc
6c5f: 3e 48        ld   a,$48
6c61: 64           ld   h,h
6c62: 94           sub  h
6c63: 92           sub  d
6c64: 62           ld   h,d
6c65: 00           nop
6c66: 00           nop
6c67: 00           nop
6c68: 00           nop
6c69: 46           ld   b,(hl)
6c6a: 49           ld   c,c
6c6b: 29           add  hl,hl
6c6c: 26 10        ld   h,$10
6c6e: 10 08        djnz $6C78
6c70: 08           ex   af,af'
6c71: 51           ld   d,c
6c72: 21 52 0c     ld   hl,$0C52
6c75: 00           nop
6c76: 00           nop
6c77: 00           nop
6c78: 00           nop
6c79: 0c           inc  c
6c7a: 12           ld   (de),a
6c7b: 12           ld   (de),a
6c7c: 0a           ld   a,(bc)
6c7d: 04           inc  b
6c7e: 06 06        ld   b,$06
6c80: 49           ld   c,c
6c81: 00           nop
6c82: 00           nop
6c83: 00           nop
6c84: 00           nop
6c85: 00           nop
6c86: 00           nop
6c87: 00           nop
6c88: 00           nop
6c89: 18 18        jr   $6CA3
6c8b: 10 08        djnz $6C95
6c8d: 04           inc  b
6c8e: 00           nop
6c8f: 00           nop
6c90: 00           nop
6c91: 08           ex   af,af'
6c92: 08           ex   af,af'
6c93: 10 20        djnz $6CB5
6c95: 00           nop
6c96: 00           nop
6c97: 00           nop
6c98: 00           nop
6c99: 20 10        jr   nz,$6CAB
6c9b: 08           ex   af,af'
6c9c: 08           ex   af,af'
6c9d: 04           inc  b
6c9e: 04           inc  b
6c9f: 04           inc  b
6ca0: 04           inc  b
6ca1: 08           ex   af,af'
6ca2: 08           ex   af,af'
6ca3: 04           inc  b
6ca4: 02           ld   (bc),a
6ca5: 00           nop
6ca6: 00           nop
6ca7: 00           nop
6ca8: 00           nop
6ca9: 02           ld   (bc),a
6caa: 04           inc  b
6cab: 08           ex   af,af'
6cac: 08           ex   af,af'
6cad: 10 10        djnz $6CBF
6caf: 10 10        djnz $6CC1
6cb1: 2a 49 08     ld   hl,($0849)
6cb4: 00           nop
6cb5: 00           nop
6cb6: 00           nop
6cb7: 00           nop
6cb8: 00           nop
6cb9: 00           nop
6cba: 00           nop
6cbb: 08           ex   af,af'
6cbc: 49           ld   c,c
6cbd: 2a 1c 08     ld   hl,($081C)
6cc0: 1c           inc  e
6cc1: 08           ex   af,af'
6cc2: 08           ex   af,af'
6cc3: 00           nop
6cc4: 00           nop
6cc5: 00           nop
6cc6: 00           nop
6cc7: 00           nop
6cc8: 00           nop
6cc9: 00           nop
6cca: 00           nop
6ccb: 00           nop
6ccc: 08           ex   af,af'
6ccd: 08           ex   af,af'
6cce: 08           ex   af,af'
6ccf: 7f           ld   a,a
6cd0: 08           ex   af,af'
6cd1: 0c           inc  c
6cd2: 0c           inc  c
6cd3: 08           ex   af,af'
6cd4: 04           inc  b
6cd5: 02           ld   (bc),a
6cd6: 00           nop
6cd7: 00           nop
6cd8: 00           nop
6cd9: 00           nop
6cda: 00           nop
6cdb: 00           nop
6cdc: 00           nop
6cdd: 00           nop
6cde: 00           nop
6cdf: 00           nop
6ce0: 00           nop
6ce1: 00           nop
6ce2: 00           nop
6ce3: 00           nop
6ce4: 00           nop
6ce5: 00           nop
6ce6: 00           nop
6ce7: 00           nop
6ce8: 00           nop
6ce9: 00           nop
6cea: 00           nop
6ceb: 00           nop
6cec: 00           nop
6ced: 00           nop
6cee: 00           nop
6cef: 3e 00        ld   a,$00
6cf1: 00           nop
6cf2: 00           nop
6cf3: 0c           inc  c
6cf4: 0c           inc  c
6cf5: 00           nop
6cf6: 00           nop
6cf7: 00           nop
6cf8: 00           nop
6cf9: 00           nop
6cfa: 00           nop
6cfb: 00           nop
6cfc: 00           nop
6cfd: 00           nop
6cfe: 00           nop
6cff: 00           nop
6d00: 00           nop
6d01: 04           inc  b
6d02: 02           ld   (bc),a
6d03: 02           ld   (bc),a
6d04: 01 01 00     ld   bc,$0001
6d07: 00           nop
6d08: 00           nop
6d09: 00           nop
6d0a: 20 20        jr   nz,$6D2C
6d0c: 10 10        djnz $6D1E
6d0e: 08           ex   af,af'
6d0f: 08           ex   af,af'
6d10: 04           inc  b
6d11: 45           ld   b,l
6d12: 43           ld   b,e
6d13: 22 1c 00     ld   ($001C),hl
6d16: 00           nop
6d17: 00           nop
6d18: 00           nop
6d19: 1c           inc  e
6d1a: 22 61 51     ld   ($5161),hl
6d1d: 51           ld   d,c
6d1e: 49           ld   c,c
6d1f: 49           ld   c,c
6d20: 45           ld   b,l
6d21: 08           ex   af,af'
6d22: 08           ex   af,af'
6d23: 08           ex   af,af'
6d24: 3e 00        ld   a,$00
6d26: 00           nop
6d27: 00           nop
6d28: 00           nop
6d29: 08           ex   af,af'
6d2a: 0c           inc  c
6d2b: 0a           ld   a,(bc)
6d2c: 08           ex   af,af'
6d2d: 08           ex   af,af'
6d2e: 08           ex   af,af'
6d2f: 08           ex   af,af'
6d30: 08           ex   af,af'
6d31: 04           inc  b
6d32: 02           ld   (bc),a
6d33: 01 7f 00     ld   bc,$007F
6d36: 00           nop
6d37: 00           nop
6d38: 00           nop
6d39: 1c           inc  e
6d3a: 22 41 41     ld   ($4141),hl
6d3d: 40           ld   b,b
6d3e: 20 10        jr   nz,$6D50
6d40: 08           ex   af,af'
6d41: 40           ld   b,b
6d42: 41           ld   b,c
6d43: 22 1c 00     ld   ($001C),hl
6d46: 00           nop
6d47: 00           nop
6d48: 00           nop
6d49: 1c           inc  e
6d4a: 22 41 40     ld   ($4041),hl
6d4d: 20 1c        jr   nz,$6D6B
6d4f: 20 40        jr   nz,$6D91
6d51: 7f           ld   a,a
6d52: 20 20        jr   nz,$6D74
6d54: 20 00        jr   nz,$6D56
6d56: 00           nop
6d57: 00           nop
6d58: 00           nop
6d59: 30 28        jr   nc,$6D83
6d5b: 28 24        jr   z,$6D81
6d5d: 24           inc  h
6d5e: 22 22 21     ld   ($2122),hl
6d61: 40           ld   b,b
6d62: 41           ld   b,c
6d63: 22 1c 00     ld   ($001C),hl
6d66: 00           nop
6d67: 00           nop
6d68: 00           nop
6d69: 7f           ld   a,a
6d6a: 01 01 01     ld   bc,$0101
6d6d: 1d           dec  e
6d6e: 23           inc  hl
6d6f: 40           ld   b,b
6d70: 40           ld   b,b
6d71: 41           ld   b,c
6d72: 41           ld   b,c
6d73: 22 1c 00     ld   ($001C),hl
6d76: 00           nop
6d77: 00           nop
6d78: 00           nop
6d79: 10 08        djnz $6D83
6d7b: 04           inc  b
6d7c: 02           ld   (bc),a
6d7d: 02           ld   (bc),a
6d7e: 1d           dec  e
6d7f: 23           inc  hl
6d80: 41           ld   b,c
6d81: 04           inc  b
6d82: 04           inc  b
6d83: 02           ld   (bc),a
6d84: 02           ld   (bc),a
6d85: 00           nop
6d86: 00           nop
6d87: 00           nop
6d88: 00           nop
6d89: 7f           ld   a,a
6d8a: 41           ld   b,c
6d8b: 20 20        jr   nz,$6DAD
6d8d: 10 10        djnz $6D9F
6d8f: 08           ex   af,af'
6d90: 08           ex   af,af'
6d91: 41           ld   b,c
6d92: 41           ld   b,c
6d93: 22 1c 00     ld   ($001C),hl
6d96: 00           nop
6d97: 00           nop
6d98: 00           nop
6d99: 1c           inc  e
6d9a: 22 41 41     ld   ($4141),hl
6d9d: 22 1c 22     ld   ($221C),hl
6da0: 41           ld   b,c
6da1: 20 10        jr   nz,$6DB3
6da3: 08           ex   af,af'
6da4: 04           inc  b
6da5: 00           nop
6da6: 00           nop
6da7: 00           nop
6da8: 00           nop
6da9: 1c           inc  e
6daa: 22 41 41     ld   ($4141),hl
6dad: 41           ld   b,c
6dae: 62           ld   h,d
6daf: 5c           ld   e,h
6db0: 20 00        jr   nz,$6DB2
6db2: 0c           inc  c
6db3: 0c           inc  c
6db4: 00           nop
6db5: 00           nop
6db6: 00           nop
6db7: 00           nop
6db8: 00           nop
6db9: 00           nop
6dba: 00           nop
6dbb: 00           nop
6dbc: 0c           inc  c
6dbd: 0c           inc  c
6dbe: 00           nop
6dbf: 00           nop
6dc0: 00           nop
6dc1: 00           nop
6dc2: 18 18        jr   $6DDC
6dc4: 08           ex   af,af'
6dc5: 04           inc  b
6dc6: 00           nop
6dc7: 00           nop
6dc8: 00           nop
6dc9: 00           nop
6dca: 00           nop
6dcb: 00           nop
6dcc: 18 18        jr   $6DE6
6dce: 00           nop
6dcf: 00           nop
6dd0: 00           nop
6dd1: 04           inc  b
6dd2: 08           ex   af,af'
6dd3: 10 20        djnz $6DF5
6dd5: 40           ld   b,b
6dd6: 00           nop
6dd7: 00           nop
6dd8: 00           nop
6dd9: 40           ld   b,b
6dda: 20 10        jr   nz,$6DEC
6ddc: 08           ex   af,af'
6ddd: 04           inc  b
6dde: 02           ld   (bc),a
6ddf: 01 02 00     ld   bc,$0002
6de2: 00           nop
6de3: 00           nop
6de4: 00           nop
6de5: 00           nop
6de6: 00           nop
6de7: 00           nop
6de8: 00           nop
6de9: 00           nop
6dea: 00           nop
6deb: 00           nop
6dec: 7e           ld   a,(hl)
6ded: 00           nop
6dee: 00           nop
6def: 00           nop
6df0: 7e           ld   a,(hl)
6df1: 10 08        djnz $6DFB
6df3: 04           inc  b
6df4: 02           ld   (bc),a
6df5: 01 00 00     ld   bc,$0000
6df8: 00           nop
6df9: 01 02 04     ld   bc,$0402
6dfc: 08           ex   af,af'
6dfd: 10 20        djnz $6E1F
6dff: 40           ld   b,b
6e00: 20 00        jr   nz,$6E02
6e02: 00           nop
6e03: 08           ex   af,af'
6e04: 08           ex   af,af'
6e05: 00           nop
6e06: 00           nop
6e07: 00           nop
6e08: 00           nop
6e09: 1c           inc  e
6e0a: 22 41 41     ld   ($4141),hl
6e0d: 20 10        jr   nz,$6E1F
6e0f: 08           ex   af,af'
6e10: 08           ex   af,af'
6e11: 39           add  hl,sp
6e12: 01 42 3c     ld   bc,$3C42
6e15: 00           nop
6e16: 00           nop
6e17: 00           nop
6e18: 00           nop
6e19: 1c           inc  e
6e1a: 22 41 59     ld   ($5941),hl
6e1d: 65           ld   h,l
6e1e: 65           ld   h,l
6e1f: 65           ld   h,l
6e20: 65           ld   h,l
6e21: 41           ld   b,c
6e22: 41           ld   b,c
6e23: 41           ld   b,c
6e24: 41           ld   b,c
6e25: 00           nop
6e26: 00           nop
6e27: 00           nop
6e28: 00           nop
6e29: 1c           inc  e
6e2a: 22 41 41     ld   ($4141),hl
6e2d: 41           ld   b,c
6e2e: 41           ld   b,c
6e2f: 7f           ld   a,a
6e30: 41           ld   b,c
6e31: 42           ld   b,d
6e32: 42           ld   b,d
6e33: 22 1f 00     ld   ($001F),hl
6e36: 00           nop
6e37: 00           nop
6e38: 00           nop
6e39: 1f           rra
6e3a: 22 42 42     ld   ($4242),hl
6e3d: 22 1e 22     ld   ($221E),hl
6e40: 42           ld   b,d
6e41: 41           ld   b,c
6e42: 41           ld   b,c
6e43: 22 1c 00     ld   ($001C),hl
6e46: 00           nop
6e47: 00           nop
6e48: 00           nop
6e49: 1c           inc  e
6e4a: 22 41 41     ld   ($4141),hl
6e4d: 01 01 01     ld   bc,$0101
6e50: 01 42 42     ld   bc,$4242
6e53: 22 1f 00     ld   ($001F),hl
6e56: 00           nop
6e57: 00           nop
6e58: 00           nop
6e59: 1f           rra
6e5a: 22 42 42     ld   ($4242),hl
6e5d: 42           ld   b,d
6e5e: 42           ld   b,d
6e5f: 42           ld   b,d
6e60: 42           ld   b,d
6e61: 01 01 01     ld   bc,$0101
6e64: 7f           ld   a,a
6e65: 00           nop
6e66: 00           nop
6e67: 00           nop
6e68: 00           nop
6e69: 7f           ld   a,a
6e6a: 01 01 01     ld   bc,$0101
6e6d: 01 3f 01     ld   bc,$013F
6e70: 01 01 01     ld   bc,$0101
6e73: 01 01 00     ld   bc,$0001
6e76: 00           nop
6e77: 00           nop
6e78: 00           nop
6e79: 7f           ld   a,a
6e7a: 01 01 01     ld   bc,$0101
6e7d: 01 3f 01     ld   bc,$013F
6e80: 01 41 41     ld   bc,$4141
6e83: 62           ld   h,d
6e84: 5c           ld   e,h
6e85: 00           nop
6e86: 00           nop
6e87: 00           nop
6e88: 00           nop
6e89: 1c           inc  e
6e8a: 22 41 41     ld   ($4141),hl
6e8d: 01 01 79     ld   bc,$7901
6e90: 41           ld   b,c
6e91: 41           ld   b,c
6e92: 41           ld   b,c
6e93: 41           ld   b,c
6e94: 41           ld   b,c
6e95: 00           nop
6e96: 00           nop
6e97: 00           nop
6e98: 00           nop
6e99: 41           ld   b,c
6e9a: 41           ld   b,c
6e9b: 41           ld   b,c
6e9c: 41           ld   b,c
6e9d: 41           ld   b,c
6e9e: 7f           ld   a,a
6e9f: 41           ld   b,c
6ea0: 41           ld   b,c
6ea1: 08           ex   af,af'
6ea2: 08           ex   af,af'
6ea3: 08           ex   af,af'
6ea4: 3e 00        ld   a,$00
6ea6: 00           nop
6ea7: 00           nop
6ea8: 00           nop
6ea9: 3e 08        ld   a,$08
6eab: 08           ex   af,af'
6eac: 08           ex   af,af'
6ead: 08           ex   af,af'
6eae: 08           ex   af,af'
6eaf: 08           ex   af,af'
6eb0: 08           ex   af,af'
6eb1: 10 11        djnz $6EC4
6eb3: 11 0e 00     ld   de,$000E
6eb6: 00           nop
6eb7: 00           nop
6eb8: 00           nop
6eb9: 7e           ld   a,(hl)
6eba: 10 10        djnz $6ECC
6ebc: 10 10        djnz $6ECE
6ebe: 10 10        djnz $6ED0
6ec0: 10 09        djnz $6ECB
6ec2: 11 21 41     ld   de,$4121
6ec5: 00           nop
6ec6: 00           nop
6ec7: 00           nop
6ec8: 00           nop
6ec9: 41           ld   b,c
6eca: 21 11 09     ld   hl,$0911
6ecd: 05           dec  b
6ece: 03           inc  bc
6ecf: 03           inc  bc
6ed0: 05           dec  b
6ed1: 01 01 01     ld   bc,$0101
6ed4: 7f           ld   a,a
6ed5: 00           nop
6ed6: 00           nop
6ed7: 00           nop
6ed8: 00           nop
6ed9: 01 01 01     ld   bc,$0101
6edc: 01 01 01     ld   bc,$0101
6edf: 01 01 41     ld   bc,$4101
6ee2: 41           ld   b,c
6ee3: 41           ld   b,c
6ee4: 41           ld   b,c
6ee5: 00           nop
6ee6: 00           nop
6ee7: 00           nop
6ee8: 00           nop
6ee9: 41           ld   b,c
6eea: 63           ld   h,e
6eeb: 63           ld   h,e
6eec: 55           ld   d,l
6eed: 55           ld   d,l
6eee: 49           ld   c,c
6eef: 49           ld   c,c
6ef0: 41           ld   b,c
6ef1: 51           ld   d,c
6ef2: 61           ld   h,c
6ef3: 61           ld   h,c
6ef4: 41           ld   b,c
6ef5: 00           nop
6ef6: 00           nop
6ef7: 00           nop
6ef8: 00           nop
6ef9: 41           ld   b,c
6efa: 43           ld   b,e
6efb: 43           ld   b,e
6efc: 45           ld   b,l
6efd: 45           ld   b,l
6efe: 49           ld   c,c
6eff: 49           ld   c,c
6f00: 51           ld   d,c
6f01: 41           ld   b,c
6f02: 41           ld   b,c
6f03: 22 1c 00     ld   ($001C),hl
6f06: 00           nop
6f07: 00           nop
6f08: 00           nop
6f09: 1c           inc  e
6f0a: 22 41 41     ld   ($4141),hl
6f0d: 41           ld   b,c
6f0e: 41           ld   b,c
6f0f: 41           ld   b,c
6f10: 41           ld   b,c
6f11: 01 01 01     ld   bc,$0101
6f14: 01 00 00     ld   bc,$0000
6f17: 00           nop
6f18: 00           nop
6f19: 1f           rra
6f1a: 21 41 41     ld   hl,$4141
6f1d: 41           ld   b,c
6f1e: 21 1f 01     ld   hl,$011F
6f21: 59           ld   e,c
6f22: 65           ld   h,l
6f23: 22 5c 00     ld   ($005C),hl
6f26: 00           nop
6f27: 00           nop
6f28: 00           nop
6f29: 1c           inc  e
6f2a: 22 41 41     ld   ($4141),hl
6f2d: 41           ld   b,c
6f2e: 41           ld   b,c
6f2f: 41           ld   b,c
6f30: 41           ld   b,c
6f31: 21 21 41     ld   hl,$4121
6f34: 41           ld   b,c
6f35: 00           nop
6f36: 00           nop
6f37: 00           nop
6f38: 00           nop
6f39: 1f           rra
6f3a: 21 41 41     ld   hl,$4141
6f3d: 21 11 0f     ld   hl,$0F11
6f40: 11 41 41     ld   de,$4141
6f43: 22 1c 00     ld   ($001C),hl
6f46: 00           nop
6f47: 00           nop
6f48: 00           nop
6f49: 1c           inc  e
6f4a: 22 41 41     ld   ($4141),hl
6f4d: 02           ld   (bc),a
6f4e: 0c           inc  c
6f4f: 30 40        jr   nc,$6F91
6f51: 08           ex   af,af'
6f52: 08           ex   af,af'
6f53: 08           ex   af,af'
6f54: 08           ex   af,af'
6f55: 00           nop
6f56: 00           nop
6f57: 00           nop
6f58: 00           nop
6f59: 7f           ld   a,a
6f5a: 08           ex   af,af'
6f5b: 08           ex   af,af'
6f5c: 08           ex   af,af'
6f5d: 08           ex   af,af'
6f5e: 08           ex   af,af'
6f5f: 08           ex   af,af'
6f60: 08           ex   af,af'
6f61: 41           ld   b,c
6f62: 41           ld   b,c
6f63: 22 1c 00     ld   ($001C),hl
6f66: 00           nop
6f67: 00           nop
6f68: 00           nop
6f69: 41           ld   b,c
6f6a: 41           ld   b,c
6f6b: 41           ld   b,c
6f6c: 41           ld   b,c
6f6d: 41           ld   b,c
6f6e: 41           ld   b,c
6f6f: 41           ld   b,c
6f70: 41           ld   b,c
6f71: 14           inc  d
6f72: 14           inc  d
6f73: 08           ex   af,af'
6f74: 08           ex   af,af'
6f75: 00           nop
6f76: 00           nop
6f77: 00           nop
6f78: 00           nop
6f79: 41           ld   b,c
6f7a: 41           ld   b,c
6f7b: 41           ld   b,c
6f7c: 41           ld   b,c
6f7d: 41           ld   b,c
6f7e: 22 22 22     ld   ($2222),hl
6f81: 55           ld   d,l
6f82: 55           ld   d,l
6f83: 22 22 00     ld   ($0022),hl
6f86: 00           nop
6f87: 00           nop
6f88: 00           nop
6f89: 41           ld   b,c
6f8a: 41           ld   b,c
6f8b: 41           ld   b,c
6f8c: 41           ld   b,c
6f8d: 41           ld   b,c
6f8e: 49           ld   c,c
6f8f: 49           ld   c,c
6f90: 49           ld   c,c
6f91: 22 22 41     ld   ($4122),hl
6f94: 41           ld   b,c
6f95: 00           nop
6f96: 00           nop
6f97: 00           nop
6f98: 00           nop
6f99: 41           ld   b,c
6f9a: 41           ld   b,c
6f9b: 22 22 14     ld   ($1422),hl
6f9e: 08           ex   af,af'
6f9f: 08           ex   af,af'
6fa0: 14           inc  d
6fa1: 08           ex   af,af'
6fa2: 08           ex   af,af'
6fa3: 08           ex   af,af'
6fa4: 08           ex   af,af'
6fa5: 00           nop
6fa6: 00           nop
6fa7: 00           nop
6fa8: 00           nop
6fa9: 41           ld   b,c
6faa: 41           ld   b,c
6fab: 41           ld   b,c
6fac: 22 22 14     ld   ($1422),hl
6faf: 14           inc  d
6fb0: 08           ex   af,af'
6fb1: 04           inc  b
6fb2: 04           inc  b
6fb3: 02           ld   (bc),a
6fb4: 7f           ld   a,a
6fb5: 00           nop
6fb6: 00           nop
6fb7: 00           nop
6fb8: 00           nop
6fb9: 7f           ld   a,a
6fba: 40           ld   b,b
6fbb: 20 20        jr   nz,$6FDD
6fbd: 10 10        djnz $6FCF
6fbf: 08           ex   af,af'
6fc0: 08           ex   af,af'
6fc1: 08           ex   af,af'
6fc2: 08           ex   af,af'
6fc3: 08           ex   af,af'
6fc4: 08           ex   af,af'
6fc5: 78           ld   a,b
6fc6: 00           nop
6fc7: 00           nop
6fc8: 00           nop
6fc9: 78           ld   a,b
6fca: 08           ex   af,af'
6fcb: 08           ex   af,af'
6fcc: 08           ex   af,af'
6fcd: 08           ex   af,af'
6fce: 08           ex   af,af'
6fcf: 08           ex   af,af'
6fd0: 08           ex   af,af'
6fd1: 10 20        djnz $6FF3
6fd3: 20 40        jr   nz,$7015
6fd5: 40           ld   b,b
6fd6: 00           nop
6fd7: 00           nop
6fd8: 00           nop
6fd9: 00           nop
6fda: 02           ld   (bc),a
6fdb: 02           ld   (bc),a
6fdc: 04           inc  b
6fdd: 04           inc  b
6fde: 08           ex   af,af'
6fdf: 08           ex   af,af'
6fe0: 10 08        djnz $6FEA
6fe2: 08           ex   af,af'
6fe3: 08           ex   af,af'
6fe4: 08           ex   af,af'
6fe5: 0f           rrca
6fe6: 00           nop
6fe7: 00           nop
6fe8: 00           nop
6fe9: 0f           rrca
6fea: 08           ex   af,af'
6feb: 08           ex   af,af'
6fec: 08           ex   af,af'
6fed: 08           ex   af,af'
6fee: 08           ex   af,af'
6fef: 08           ex   af,af'
6ff0: 08           ex   af,af'
6ff1: 00           nop
6ff2: 00           nop
6ff3: 00           nop
6ff4: 00           nop
6ff5: 00           nop
6ff6: 00           nop
6ff7: 00           nop
6ff8: 00           nop
6ff9: 08           ex   af,af'
6ffa: 14           inc  d
6ffb: 22 41 00     ld   ($0041),hl
6ffe: 00           nop
6fff: 00           nop
7000: 00           nop
7001: 00           nop
7002: 00           nop
7003: 00           nop
7004: 00           nop
7005: 00           nop
7006: ff           rst  $38
7007: 00           nop
7008: 00           nop
7009: 00           nop
700a: 00           nop
700b: 00           nop
700c: 00           nop
700d: 00           nop
700e: 00           nop
700f: 00           nop
7010: 00           nop
7011: 00           nop
7012: 00           nop
7013: 00           nop
7014: 00           nop
7015: 00           nop
7016: 00           nop
7017: 00           nop
7018: 00           nop
7019: 18 18        jr   $7033
701b: 08           ex   af,af'
701c: 10 20        djnz $703E
701e: 00           nop
701f: 00           nop
7020: 00           nop
7021: 42           ld   b,d
7022: 42           ld   b,d
7023: 42           ld   b,d
7024: bc           cp   h
7025: 00           nop
7026: 00           nop
7027: 00           nop
7028: 00           nop
7029: 00           nop
702a: 00           nop
702b: 00           nop
702c: 3c           inc  a
702d: 40           ld   b,b
702e: 40           ld   b,b
702f: 7c           ld   a,h
7030: 42           ld   b,d
7031: 42           ld   b,d
7032: 42           ld   b,d
7033: 26 1a        ld   h,$1A
7035: 00           nop
7036: 00           nop
7037: 00           nop
7038: 00           nop
7039: 02           ld   (bc),a
703a: 02           ld   (bc),a
703b: 02           ld   (bc),a
703c: 1a           ld   a,(de)
703d: 26 42        ld   h,$42
703f: 42           ld   b,d
7040: 42           ld   b,d
7041: 01 41 22     ld   bc,$2241
7044: 1c           inc  e
7045: 00           nop
7046: 00           nop
7047: 00           nop
7048: 00           nop
7049: 00           nop
704a: 00           nop
704b: 00           nop
704c: 1c           inc  e
704d: 22 41 01     ld   ($0141),hl
7050: 01 42 42     ld   bc,$4242
7053: 64           ld   h,h
7054: 58           ld   e,b
7055: 00           nop
7056: 00           nop
7057: 00           nop
7058: 00           nop
7059: 40           ld   b,b
705a: 40           ld   b,b
705b: 40           ld   b,b
705c: 58           ld   e,b
705d: 64           ld   h,h
705e: 42           ld   b,d
705f: 42           ld   b,d
7060: 42           ld   b,d
7061: 01 41 22     ld   bc,$2241
7064: 1c           inc  e
7065: 00           nop
7066: 00           nop
7067: 00           nop
7068: 00           nop
7069: 00           nop
706a: 00           nop
706b: 00           nop
706c: 1c           inc  e
706d: 22 41 41     ld   ($4141),hl
7070: 7f           ld   a,a
7071: 08           ex   af,af'
7072: 08           ex   af,af'
7073: 08           ex   af,af'
7074: 08           ex   af,af'
7075: 00           nop
7076: 00           nop
7077: 00           nop
7078: 00           nop
7079: 30 48        jr   nc,$70C3
707b: 08           ex   af,af'
707c: 08           ex   af,af'
707d: 3e 08        ld   a,$08
707f: 08           ex   af,af'
7080: 08           ex   af,af'
7081: 02           ld   (bc),a
7082: 3e 41        ld   a,$41
7084: 41           ld   b,c
7085: 41           ld   b,c
7086: 3e 00        ld   a,$00
7088: 00           nop
7089: 00           nop
708a: 00           nop
708b: 40           ld   b,b
708c: 5c           ld   e,h
708d: 22 22 22     ld   ($2222),hl
7090: 1c           inc  e
7091: 42           ld   b,d
7092: 42           ld   b,d
7093: 42           ld   b,d
7094: 42           ld   b,d
7095: 00           nop
7096: 00           nop
7097: 00           nop
7098: 00           nop
7099: 02           ld   (bc),a
709a: 02           ld   (bc),a
709b: 02           ld   (bc),a
709c: 3a 46 42     ld   a,($4246)
709f: 42           ld   b,d
70a0: 42           ld   b,d
70a1: 08           ex   af,af'
70a2: 08           ex   af,af'
70a3: 08           ex   af,af'
70a4: 08           ex   af,af'
70a5: 00           nop
70a6: 00           nop
70a7: 00           nop
70a8: 00           nop
70a9: 08           ex   af,af'
70aa: 00           nop
70ab: 00           nop
70ac: 08           ex   af,af'
70ad: 08           ex   af,af'
70ae: 08           ex   af,af'
70af: 08           ex   af,af'
70b0: 08           ex   af,af'
70b1: 10 10        djnz $70C3
70b3: 12           ld   (de),a
70b4: 12           ld   (de),a
70b5: 0c           inc  c
70b6: 00           nop
70b7: 00           nop
70b8: 00           nop
70b9: 10 00        djnz $70BB
70bb: 00           nop
70bc: 10 10        djnz $70CE
70be: 10 10        djnz $70D0
70c0: 10 0a        djnz $70CC
70c2: 12           ld   (de),a
70c3: 22 42 00     ld   ($0042),hl
70c6: 00           nop
70c7: 00           nop
70c8: 00           nop
70c9: 02           ld   (bc),a
70ca: 02           ld   (bc),a
70cb: 02           ld   (bc),a
70cc: 42           ld   b,d
70cd: 22 12 0a     ld   ($0A12),hl
70d0: 06 08        ld   b,$08
70d2: 08           ex   af,af'
70d3: 08           ex   af,af'
70d4: 1c           inc  e
70d5: 00           nop
70d6: 00           nop
70d7: 00           nop
70d8: 00           nop
70d9: 0c           inc  c
70da: 08           ex   af,af'
70db: 08           ex   af,af'
70dc: 08           ex   af,af'
70dd: 08           ex   af,af'
70de: 08           ex   af,af'
70df: 08           ex   af,af'
70e0: 08           ex   af,af'
70e1: 49           ld   c,c
70e2: 49           ld   c,c
70e3: 49           ld   c,c
70e4: 49           ld   c,c
70e5: 00           nop
70e6: 00           nop
70e7: 00           nop
70e8: 00           nop
70e9: 00           nop
70ea: 00           nop
70eb: 00           nop
70ec: 36 49        ld   (hl),$49
70ee: 49           ld   c,c
70ef: 49           ld   c,c
70f0: 49           ld   c,c
70f1: 42           ld   b,d
70f2: 42           ld   b,d
70f3: 42           ld   b,d
70f4: 42           ld   b,d
70f5: 00           nop
70f6: 00           nop
70f7: 00           nop
70f8: 00           nop
70f9: 00           nop
70fa: 00           nop
70fb: 00           nop
70fc: 3a 46 42     ld   a,($4246)
70ff: 42           ld   b,d
7100: 42           ld   b,d
7101: 41           ld   b,c
7102: 41           ld   b,c
7103: 22 1c 00     ld   ($001C),hl
7106: 00           nop
7107: 00           nop
7108: 00           nop
7109: 00           nop
710a: 00           nop
710b: 00           nop
710c: 1c           inc  e
710d: 22 41 41     ld   ($4141),hl
7110: 41           ld   b,c
7111: 42           ld   b,d
7112: 26 1a        ld   h,$1A
7114: 02           ld   (bc),a
7115: 02           ld   (bc),a
7116: 02           ld   (bc),a
7117: 02           ld   (bc),a
7118: 00           nop
7119: 00           nop
711a: 00           nop
711b: 00           nop
711c: 1a           ld   a,(de)
711d: 26 42        ld   h,$42
711f: 42           ld   b,d
7120: 42           ld   b,d
7121: 42           ld   b,d
7122: 64           ld   h,h
7123: 58           ld   e,b
7124: 40           ld   b,b
7125: 40           ld   b,b
7126: 40           ld   b,b
7127: 40           ld   b,b
7128: 00           nop
7129: 00           nop
712a: 00           nop
712b: 00           nop
712c: 58           ld   e,b
712d: 64           ld   h,h
712e: 42           ld   b,d
712f: 42           ld   b,d
7130: 42           ld   b,d
7131: 02           ld   (bc),a
7132: 02           ld   (bc),a
7133: 02           ld   (bc),a
7134: 02           ld   (bc),a
7135: 00           nop
7136: 00           nop
7137: 00           nop
7138: 00           nop
7139: 00           nop
713a: 00           nop
713b: 00           nop
713c: 32 4a 06     ld   ($064A),a
713f: 02           ld   (bc),a
7140: 02           ld   (bc),a
7141: 40           ld   b,b
7142: 40           ld   b,b
7143: 42           ld   b,d
7144: 3c           inc  a
7145: 00           nop
7146: 00           nop
7147: 00           nop
7148: 00           nop
7149: 00           nop
714a: 00           nop
714b: 00           nop
714c: 3c           inc  a
714d: 42           ld   b,d
714e: 02           ld   (bc),a
714f: 0c           inc  c
7150: 30 08        jr   nc,$715A
7152: 48           ld   c,b
7153: 48           ld   c,b
7154: 30 00        jr   nc,$7156
7156: 00           nop
7157: 00           nop
7158: 00           nop
7159: 08           ex   af,af'
715a: 08           ex   af,af'
715b: 08           ex   af,af'
715c: 3e 08        ld   a,$08
715e: 08           ex   af,af'
715f: 08           ex   af,af'
7160: 08           ex   af,af'
7161: 42           ld   b,d
7162: 42           ld   b,d
7163: 42           ld   b,d
7164: bc           cp   h
7165: 00           nop
7166: 00           nop
7167: 00           nop
7168: 00           nop
7169: 00           nop
716a: 00           nop
716b: 00           nop
716c: 42           ld   b,d
716d: 42           ld   b,d
716e: 42           ld   b,d
716f: 42           ld   b,d
7170: 42           ld   b,d
7171: 14           inc  d
7172: 14           inc  d
7173: 08           ex   af,af'
7174: 08           ex   af,af'
7175: 00           nop
7176: 00           nop
7177: 00           nop
7178: 00           nop
7179: 00           nop
717a: 00           nop
717b: 00           nop
717c: 41           ld   b,c
717d: 41           ld   b,c
717e: 41           ld   b,c
717f: 22 22 55     ld   ($5522),hl
7182: 55           ld   d,l
7183: 22 22 00     ld   ($0022),hl
7186: 00           nop
7187: 00           nop
7188: 00           nop
7189: 00           nop
718a: 00           nop
718b: 00           nop
718c: 41           ld   b,c
718d: 41           ld   b,c
718e: 41           ld   b,c
718f: 49           ld   c,c
7190: 49           ld   c,c
7191: 24           inc  h
7192: 24           inc  h
7193: 42           ld   b,d
7194: 42           ld   b,d
7195: 00           nop
7196: 00           nop
7197: 00           nop
7198: 00           nop
7199: 00           nop
719a: 00           nop
719b: 00           nop
719c: 42           ld   b,d
719d: 42           ld   b,d
719e: 24           inc  h
719f: 24           inc  h
71a0: 18 14        jr   $71B6
71a2: 08           ex   af,af'
71a3: 08           ex   af,af'
71a4: 08           ex   af,af'
71a5: 04           inc  b
71a6: 04           inc  b
71a7: 02           ld   (bc),a
71a8: 00           nop
71a9: 00           nop
71aa: 00           nop
71ab: 00           nop
71ac: 41           ld   b,c
71ad: 41           ld   b,c
71ae: 22 22 14     ld   ($1422),hl
71b1: 04           inc  b
71b2: 02           ld   (bc),a
71b3: 01 3f 00     ld   bc,$003F
71b6: 00           nop
71b7: 00           nop
71b8: 00           nop
71b9: 00           nop
71ba: 00           nop
71bb: 00           nop
71bc: 7e           ld   a,(hl)
71bd: 40           ld   b,b
71be: 20 10        jr   nz,$71D0
71c0: 08           ex   af,af'
71c1: 10 10        djnz $71D3
71c3: 10 10        djnz $71D5
71c5: 60           ld   h,b
71c6: 00           nop
71c7: 00           nop
71c8: 00           nop
71c9: 60           ld   h,b
71ca: 10 10        djnz $71DC
71cc: 10 10        djnz $71DE
71ce: 10 0c        djnz $71DC
71d0: 10 08        djnz $71DA
71d2: 08           ex   af,af'
71d3: 08           ex   af,af'
71d4: 08           ex   af,af'
71d5: 08           ex   af,af'
71d6: 00           nop
71d7: 00           nop
71d8: 00           nop
71d9: 08           ex   af,af'
71da: 08           ex   af,af'
71db: 08           ex   af,af'
71dc: 08           ex   af,af'
71dd: 08           ex   af,af'
71de: 00           nop
71df: 00           nop
71e0: 00           nop
71e1: 04           inc  b
71e2: 04           inc  b
71e3: 04           inc  b
71e4: 04           inc  b
71e5: 03           inc  bc
71e6: 00           nop
71e7: 00           nop
71e8: 00           nop
71e9: 03           inc  bc
71ea: 04           inc  b
71eb: 04           inc  b
71ec: 04           inc  b
71ed: 04           inc  b
71ee: 04           inc  b
71ef: 18 04        jr   $71F5
71f1: 00           nop
71f2: 00           nop
71f3: 00           nop
71f4: 00           nop
71f5: 00           nop
71f6: 00           nop
71f7: 00           nop
71f8: 00           nop
71f9: 06 49        ld   b,$49
71fb: 30 00        jr   nc,$71FD
71fd: 00           nop
71fe: 00           nop
71ff: 00           nop
7200: 00           nop
7201: 8c           adc  a,h
7202: f8           ret  m
7203: 00           nop
7204: 00           nop
7205: 00           nop
7206: 00           nop
7207: 00           nop
7208: 00           nop
7209: 00           nop
720a: 00           nop
720b: 00           nop
720c: f8           ret  m
720d: 8c           adc  a,h
720e: 52           ld   d,d
720f: 21 52 00     ld   hl,$0052
7212: 00           nop
7213: 00           nop
7214: 00           nop
7215: 00           nop
7216: 00           nop
7217: 00           nop
7218: 00           nop
7219: 00           nop
721a: 00           nop
721b: 00           nop
721c: 00           nop
721d: 00           nop
721e: 00           nop
721f: 00           nop
7220: 00           nop
7221: 00           nop
7222: 00           nop
7223: 00           nop
7224: 00           nop
7225: 00           nop
7226: 00           nop
7227: 00           nop
7228: 00           nop
7229: 00           nop
722a: 00           nop
722b: 00           nop
722c: 00           nop
722d: 00           nop
722e: 00           nop
722f: 00           nop
7230: 00           nop
7231: 00           nop
7232: 00           nop
7233: 00           nop
7234: 00           nop
7235: 00           nop
7236: 00           nop
7237: 00           nop
7238: 00           nop
7239: 00           nop
723a: 00           nop
723b: 00           nop
723c: 00           nop
723d: 00           nop
723e: 00           nop
723f: 00           nop
7240: 00           nop
7241: 00           nop
7242: 00           nop
7243: 00           nop
7244: 00           nop
7245: 00           nop
7246: 00           nop
7247: 00           nop
7248: 00           nop
7249: 00           nop
724a: 00           nop
724b: 00           nop
724c: 00           nop
724d: 00           nop
724e: 00           nop
724f: 00           nop
7250: 00           nop
7251: 00           nop
7252: 00           nop
7253: 00           nop
7254: 00           nop
7255: 00           nop
7256: 00           nop
7257: 00           nop
7258: 00           nop
7259: 00           nop
725a: 00           nop
725b: 00           nop
725c: 00           nop
725d: 00           nop
725e: 00           nop
725f: 00           nop
7260: 00           nop
7261: 00           nop
7262: 00           nop
7263: 00           nop
7264: 00           nop
7265: 00           nop
7266: 00           nop
7267: 00           nop
7268: 00           nop
7269: 00           nop
726a: 00           nop
726b: 00           nop
726c: 00           nop
726d: 00           nop
726e: 00           nop
726f: 00           nop
7270: 00           nop
7271: 00           nop
7272: 00           nop
7273: 00           nop
7274: 00           nop
7275: 00           nop
7276: 00           nop
7277: 00           nop
7278: 00           nop
7279: 00           nop
727a: 00           nop
727b: 00           nop
727c: 00           nop
727d: 00           nop
727e: 00           nop
727f: 00           nop
7280: 00           nop
7281: 00           nop
7282: 00           nop
7283: 00           nop
7284: 00           nop
7285: 00           nop
7286: 00           nop
7287: 00           nop
7288: 00           nop
7289: 00           nop
728a: 00           nop
728b: 00           nop
728c: 00           nop
728d: 00           nop
728e: 00           nop
728f: 00           nop
7290: 00           nop
7291: 00           nop
7292: 00           nop
7293: 00           nop
7294: 00           nop
7295: 00           nop
7296: 00           nop
7297: 00           nop
7298: 00           nop
7299: 00           nop
729a: 00           nop
729b: 00           nop
729c: 00           nop
729d: 00           nop
729e: 00           nop
729f: 00           nop
72a0: 00           nop
72a1: 00           nop
72a2: 00           nop
72a3: 00           nop
72a4: 00           nop
72a5: 00           nop
72a6: 00           nop
72a7: 00           nop
72a8: 00           nop
72a9: 00           nop
72aa: 00           nop
72ab: 00           nop
72ac: 00           nop
72ad: 00           nop
72ae: 00           nop
72af: 00           nop
72b0: 00           nop
72b1: 00           nop
72b2: 00           nop
72b3: 00           nop
72b4: 00           nop
72b5: 00           nop
72b6: 00           nop
72b7: 00           nop
72b8: 00           nop
72b9: 00           nop
72ba: 00           nop
72bb: 00           nop
72bc: 00           nop
72bd: 00           nop
72be: 00           nop
72bf: 00           nop
72c0: 00           nop
72c1: 00           nop
72c2: 00           nop
72c3: 00           nop
72c4: 00           nop
72c5: 00           nop
72c6: 00           nop
72c7: 00           nop
72c8: 00           nop
72c9: 00           nop
72ca: 00           nop
72cb: 00           nop
72cc: 00           nop
72cd: 00           nop
72ce: 00           nop
72cf: 00           nop
72d0: 00           nop
72d1: 00           nop
72d2: 00           nop
72d3: 00           nop
72d4: 00           nop
72d5: 00           nop
72d6: 00           nop
72d7: 00           nop
72d8: 00           nop
72d9: 00           nop
72da: 00           nop
72db: 00           nop
72dc: 00           nop
72dd: 00           nop
72de: 00           nop
72df: 00           nop
72e0: 00           nop
72e1: 00           nop
72e2: 00           nop
72e3: 00           nop
72e4: 00           nop
72e5: 00           nop
72e6: 00           nop
72e7: 00           nop
72e8: 00           nop
72e9: 00           nop
72ea: 00           nop
72eb: 00           nop
72ec: 00           nop
72ed: 00           nop
72ee: 00           nop
72ef: 00           nop
72f0: 00           nop
72f1: 00           nop
72f2: 00           nop
72f3: 00           nop
72f4: 00           nop
72f5: 00           nop
72f6: 00           nop
72f7: 00           nop
72f8: 00           nop
72f9: 00           nop
72fa: 00           nop
72fb: 00           nop
72fc: 00           nop
72fd: 00           nop
72fe: 00           nop
72ff: 00           nop
7300: 00           nop
7301: 00           nop
7302: 00           nop
7303: 00           nop
7304: 00           nop
7305: 00           nop
7306: 00           nop
7307: 00           nop
7308: 00           nop
7309: 00           nop
730a: 00           nop
730b: 00           nop
730c: 00           nop
730d: 00           nop
730e: 00           nop
730f: 00           nop
7310: 00           nop
7311: 00           nop
7312: 00           nop
7313: 00           nop
7314: 00           nop
7315: 00           nop
7316: 00           nop
7317: 00           nop
7318: 00           nop
7319: 00           nop
731a: 00           nop
731b: 00           nop
731c: 00           nop
731d: 00           nop
731e: 00           nop
731f: 00           nop
7320: 00           nop
7321: 00           nop
7322: 00           nop
7323: 00           nop
7324: 00           nop
7325: 00           nop
7326: 00           nop
7327: 00           nop
7328: 00           nop
7329: 00           nop
732a: 00           nop
732b: 00           nop
732c: 00           nop
732d: 00           nop
732e: 00           nop
732f: 00           nop
7330: 00           nop
7331: 00           nop
7332: 00           nop
7333: 00           nop
7334: 00           nop
7335: 00           nop
7336: 00           nop
7337: 00           nop
7338: 00           nop
7339: 00           nop
733a: 00           nop
733b: 00           nop
733c: 00           nop
733d: 00           nop
733e: 00           nop
733f: 00           nop
7340: 00           nop
7341: 00           nop
7342: 00           nop
7343: 00           nop
7344: 00           nop
7345: 00           nop
7346: 00           nop
7347: 00           nop
7348: 00           nop
7349: 00           nop
734a: 00           nop
734b: 00           nop
734c: 00           nop
734d: 00           nop
734e: 00           nop
734f: 00           nop
7350: 00           nop
7351: 00           nop
7352: 00           nop
7353: 00           nop
7354: 00           nop
7355: 00           nop
7356: 00           nop
7357: 00           nop
7358: 00           nop
7359: 00           nop
735a: 00           nop
735b: 00           nop
735c: 00           nop
735d: 00           nop
735e: 00           nop
735f: 00           nop
7360: 00           nop
7361: 00           nop
7362: 00           nop
7363: 00           nop
7364: 00           nop
7365: 00           nop
7366: 00           nop
7367: 00           nop
7368: 00           nop
7369: 00           nop
736a: 00           nop
736b: 00           nop
736c: 00           nop
736d: 00           nop
736e: 00           nop
736f: 00           nop
7370: 00           nop
7371: 00           nop
7372: 00           nop
7373: 00           nop
7374: 00           nop
7375: 00           nop
7376: 00           nop
7377: 00           nop
7378: 00           nop
7379: 00           nop
737a: 00           nop
737b: 00           nop
737c: 00           nop
737d: 00           nop
737e: 00           nop
737f: 00           nop
7380: 00           nop
7381: 00           nop
7382: 00           nop
7383: 00           nop
7384: 00           nop
7385: 00           nop
7386: 00           nop
7387: 00           nop
7388: 00           nop
7389: 00           nop
738a: 00           nop
738b: 00           nop
738c: 00           nop
738d: 00           nop
738e: 00           nop
738f: 00           nop
7390: 00           nop
7391: 00           nop
7392: 00           nop
7393: 00           nop
7394: 00           nop
7395: 00           nop
7396: 00           nop
7397: 00           nop
7398: 00           nop
7399: 00           nop
739a: 00           nop
739b: 00           nop
739c: 00           nop
739d: 00           nop
739e: 00           nop
739f: 00           nop
73a0: 00           nop
73a1: 00           nop
73a2: 00           nop
73a3: 00           nop
73a4: 00           nop
73a5: 00           nop
73a6: 00           nop
73a7: 00           nop
73a8: 00           nop
73a9: 00           nop
73aa: 00           nop
73ab: 00           nop
73ac: 00           nop
73ad: 00           nop
73ae: 00           nop
73af: 00           nop
73b0: 00           nop
73b1: 00           nop
73b2: 00           nop
73b3: 00           nop
73b4: 00           nop
73b5: 00           nop
73b6: 00           nop
73b7: 00           nop
73b8: 00           nop
73b9: 00           nop
73ba: 00           nop
73bb: 00           nop
73bc: 00           nop
73bd: 00           nop
73be: 00           nop
73bf: 00           nop
73c0: 00           nop
73c1: 00           nop
73c2: 00           nop
73c3: 00           nop
73c4: 00           nop
73c5: 00           nop
73c6: 00           nop
73c7: 00           nop
73c8: 00           nop
73c9: 00           nop
73ca: 00           nop
73cb: 00           nop
73cc: 00           nop
73cd: 00           nop
73ce: 00           nop
73cf: 00           nop
73d0: 00           nop
73d1: 00           nop
73d2: 00           nop
73d3: 00           nop
73d4: 00           nop
73d5: 00           nop
73d6: 00           nop
73d7: 00           nop
73d8: 00           nop
73d9: 00           nop
73da: 00           nop
73db: 00           nop
73dc: 00           nop
73dd: 00           nop
73de: 00           nop
73df: 00           nop
73e0: 00           nop
73e1: 00           nop
73e2: 00           nop
73e3: 00           nop
73e4: 00           nop
73e5: 00           nop
73e6: 00           nop
73e7: 00           nop
73e8: 00           nop
73e9: 00           nop
73ea: 00           nop
73eb: 00           nop
73ec: 00           nop
73ed: 00           nop
73ee: 00           nop
73ef: 00           nop
73f0: 00           nop
73f1: 00           nop
73f2: 00           nop
73f3: 00           nop
73f4: 00           nop
73f5: 00           nop
73f6: 00           nop
73f7: 00           nop
73f8: 00           nop
73f9: 00           nop
73fa: 00           nop
73fb: 00           nop
73fc: 00           nop
73fd: 00           nop
73fe: 00           nop
73ff: 00           nop
7400: 00           nop
7401: 00           nop
7402: 00           nop
7403: 00           nop
7404: 00           nop
7405: 00           nop
7406: 00           nop
7407: 00           nop
7408: 00           nop
7409: 00           nop
740a: 00           nop
740b: 00           nop
740c: 00           nop
740d: 00           nop
740e: 00           nop
740f: 00           nop
7410: 00           nop
7411: 21 21 51     ld   hl,$5121
7414: 4e           ld   c,(hl)
7415: 00           nop
7416: 00           nop
7417: 00           nop
7418: 00           nop
7419: 00           nop
741a: 00           nop
741b: 00           nop
741c: 00           nop
741d: 00           nop
741e: 40           ld   b,b
741f: 5c           ld   e,h
7420: 22 42 42     ld   ($4242),hl
7423: 22 1f 01     ld   ($011F),hl
7426: 01 00 00     ld   bc,$0000
7429: 00           nop
742a: 30 48        jr   nc,$7474
742c: 48           ld   c,b
742d: 44           ld   b,h
742e: 24           inc  h
742f: 3c           inc  a
7430: 4e           ld   c,(hl)
7431: 10 10        djnz $7443
7433: 10 10        djnz $7445
7435: 00           nop
7436: 00           nop
7437: 00           nop
7438: 00           nop
7439: 00           nop
743a: 00           nop
743b: 00           nop
743c: 46           ld   b,(hl)
743d: 29           add  hl,hl
743e: 10 10        djnz $7450
7440: 10 21        djnz $7463
7442: 21 11 0e     ld   hl,$0E11
7445: 00           nop
7446: 00           nop
7447: 00           nop
7448: 00           nop
7449: 10 08        djnz $7453
744b: 08           ex   af,af'
744c: 08           ex   af,af'
744d: 10 10        djnz $745F
744f: 1c           inc  e
7450: 22 14 22     ld   ($2214),hl
7453: 22 41 00     ld   ($0041),hl
7456: 00           nop
7457: 00           nop
7458: 00           nop
7459: 01 02 02     ld   bc,$0202
745c: 04           inc  b
745d: 04           inc  b
745e: 08           ex   af,af'
745f: 08           ex   af,af'
7460: 14           inc  d
7461: 44           ld   b,h
7462: 24           inc  h
7463: 24           inc  h
7464: 5a           ld   e,d
7465: 02           ld   (bc),a
7466: 01 01 00     ld   bc,$0001
7469: 00           nop
746a: 00           nop
746b: 00           nop
746c: 00           nop
746d: 00           nop
746e: 00           nop
746f: 48           ld   c,b
7470: 48           ld   c,b
7471: 24           inc  h
7472: 24           inc  h
7473: 24           inc  h
7474: 24           inc  h
7475: 00           nop
7476: 00           nop
7477: 00           nop
7478: 00           nop
7479: 00           nop
747a: 00           nop
747b: 00           nop
747c: 00           nop
747d: 46           ld   b,(hl)
747e: 3d           dec  a
747f: 24           inc  h
7480: 24           inc  h
7481: 21 21 11     ld   hl,$1121
7484: 0e 00        ld   c,$00
7486: 00           nop
7487: 00           nop
7488: 00           nop
7489: 00           nop
748a: 00           nop
748b: 00           nop
748c: 00           nop
748d: 00           nop
748e: 7c           ld   a,h
748f: 12           ld   (de),a
7490: 21 08 04     ld   hl,$0408
7493: 02           ld   (bc),a
7494: 7f           ld   a,a
7495: 00           nop
7496: 00           nop
7497: 00           nop
7498: 00           nop
7499: 7f           ld   a,a
749a: 02           ld   (bc),a
749b: 04           inc  b
749c: 08           ex   af,af'
749d: 10 20        djnz $74BF
749f: 20 10        jr   nz,$74B1
74a1: 42           ld   b,d
74a2: 42           ld   b,d
74a3: 81           add  a,c
74a4: ff           rst  $38
74a5: 00           nop
74a6: 00           nop
74a7: 00           nop
74a8: 00           nop
74a9: 00           nop
74aa: 00           nop
74ab: 00           nop
74ac: 00           nop
74ad: 18 18        jr   $74C7
74af: 24           inc  h
74b0: 24           inc  h
74b1: 41           ld   b,c
74b2: 41           ld   b,c
74b3: 22 1c 00     ld   ($001C),hl
74b6: 00           nop
74b7: 00           nop
74b8: 00           nop
74b9: 1c           inc  e
74ba: 22 41 41     ld   ($4141),hl
74bd: 41           ld   b,c
74be: 7f           ld   a,a
74bf: 41           ld   b,c
74c0: 41           ld   b,c
74c1: 00           nop
74c2: 00           nop
74c3: 00           nop
74c4: 00           nop
74c5: 00           nop
74c6: 00           nop
74c7: 00           nop
74c8: 00           nop
74c9: 00           nop
74ca: 36 36        ld   (hl),$36
74cc: 00           nop
74cd: 00           nop
74ce: 00           nop
74cf: 00           nop
74d0: 00           nop
74d1: 3e 3e        ld   a,$3E
74d3: 1c           inc  e
74d4: 08           ex   af,af'
74d5: 00           nop
74d6: 00           nop
74d7: 00           nop
74d8: 00           nop
74d9: 00           nop
74da: 22 77 77     ld   ($7777),hl
74dd: 7f           ld   a,a
74de: 7f           ld   a,a
74df: 7f           ld   a,a
74e0: 7f           ld   a,a
74e1: 3e 1c        ld   a,$1C
74e3: 1c           inc  e
74e4: 08           ex   af,af'
74e5: 08           ex   af,af'
74e6: 00           nop
74e7: 00           nop
74e8: 00           nop
74e9: 08           ex   af,af'
74ea: 08           ex   af,af'
74eb: 1c           inc  e
74ec: 1c           inc  e
74ed: 3e 3e        ld   a,$3E
74ef: 7f           ld   a,a
74f0: 3e 7f        ld   a,$7F
74f2: 2a 08 08     ld   hl,($0808)
74f5: 3e 00        ld   a,$00
74f7: 00           nop
74f8: 00           nop
74f9: 1c           inc  e
74fa: 3e 3e        ld   a,$3E
74fc: 3e 1c        ld   a,$1C
74fe: 7f           ld   a,a
74ff: 7f           ld   a,a
7500: 7f           ld   a,a
7501: 7f           ld   a,a
7502: 3e 08        ld   a,$08
7504: 08           ex   af,af'
7505: 1c           inc  e
7506: 00           nop
7507: 00           nop
7508: 00           nop
7509: 08           ex   af,af'
750a: 1c           inc  e
750b: 3e 3e        ld   a,$3E
750d: 7f           ld   a,a
750e: 7f           ld   a,a
750f: 7f           ld   a,a
7510: 7f           ld   a,a
7511: 40           ld   b,b
7512: 00           nop
7513: 7e           ld   a,(hl)
7514: 00           nop
7515: 00           nop
7516: 00           nop
7517: 00           nop
7518: 00           nop
7519: 00           nop
751a: 00           nop
751b: 40           ld   b,b
751c: 30 0c        jr   nc,$752A
751e: 02           ld   (bc),a
751f: 0c           inc  c
7520: 30 02        jr   nc,$7524
7522: 00           nop
7523: 7e           ld   a,(hl)
7524: 00           nop
7525: 00           nop
7526: 00           nop
7527: 00           nop
7528: 00           nop
7529: 00           nop
752a: 00           nop
752b: 02           ld   (bc),a
752c: 0c           inc  c
752d: 30 40        jr   nc,$756F
752f: 30 0c        jr   nc,$753D
7531: 46           ld   b,(hl)
7532: 39           add  hl,sp
7533: 00           nop
7534: 00           nop
7535: 00           nop
7536: 00           nop
7537: 00           nop
7538: 00           nop
7539: 00           nop
753a: 00           nop
753b: 00           nop
753c: 00           nop
753d: 00           nop
753e: 46           ld   b,(hl)
753f: 39           add  hl,sp
7540: 00           nop
7541: 7e           ld   a,(hl)
7542: 00           nop
7543: 00           nop
7544: 00           nop
7545: 00           nop
7546: 00           nop
7547: 00           nop
7548: 00           nop
7549: 00           nop
754a: 00           nop
754b: 00           nop
754c: 00           nop
754d: 7e           ld   a,(hl)
754e: 00           nop
754f: 7e           ld   a,(hl)
7550: 00           nop
7551: 08           ex   af,af'
7552: 08           ex   af,af'
7553: 08           ex   af,af'
7554: 08           ex   af,af'
7555: 08           ex   af,af'
7556: 08           ex   af,af'
7557: 08           ex   af,af'
7558: 08           ex   af,af'
7559: 30 08        jr   nc,$7563
755b: 08           ex   af,af'
755c: 08           ex   af,af'
755d: 08           ex   af,af'
755e: 08           ex   af,af'
755f: 08           ex   af,af'
7560: 08           ex   af,af'
7561: 08           ex   af,af'
7562: 08           ex   af,af'
7563: 08           ex   af,af'
7564: 08           ex   af,af'
7565: 08           ex   af,af'
7566: 08           ex   af,af'
7567: 08           ex   af,af'
7568: 06 08        ld   b,$08
756a: 08           ex   af,af'
756b: 08           ex   af,af'
756c: 08           ex   af,af'
756d: 08           ex   af,af'
756e: 08           ex   af,af'
756f: 08           ex   af,af'
7570: 08           ex   af,af'
7571: 00           nop
7572: 00           nop
7573: 00           nop
7574: 00           nop
7575: 00           nop
7576: 00           nop
7577: 00           nop
7578: 00           nop
7579: 0e 10        ld   c,$10
757b: 08           ex   af,af'
757c: 04           inc  b
757d: 02           ld   (bc),a
757e: 1e 00        ld   e,$00
7580: 00           nop
7581: 20 11        jr   nz,$7594
7583: 12           ld   (de),a
7584: 14           inc  d
7585: 08           ex   af,af'
7586: 00           nop
7587: 00           nop
7588: 00           nop
7589: 80           add  a,b
758a: 80           add  a,b
758b: 80           add  a,b
758c: 40           ld   b,b
758d: 40           ld   b,b
758e: 40           ld   b,b
758f: 20 20        jr   nz,$75B1
7591: 00           nop
7592: 00           nop
7593: 00           nop
7594: 00           nop
7595: 00           nop
7596: 00           nop
7597: 00           nop
7598: 00           nop
7599: 00           nop
759a: 00           nop
759b: 00           nop
759c: 00           nop
759d: 36 49        ld   (hl),$49
759f: 49           ld   c,c
75a0: 36 24        ld   (hl),$24
75a2: 48           ld   c,b
75a3: 90           sub  b
75a4: 00           nop
75a5: 00           nop
75a6: 00           nop
75a7: 00           nop
75a8: 00           nop
75a9: 00           nop
75aa: 00           nop
75ab: 90           sub  b
75ac: 48           ld   c,b
75ad: 24           inc  h
75ae: 12           ld   (de),a
75af: 09           add  hl,bc
75b0: 12           ld   (de),a
75b1: 24           inc  h
75b2: 12           ld   (de),a
75b3: 09           add  hl,bc
75b4: 00           nop
75b5: 00           nop
75b6: 00           nop
75b7: 00           nop
75b8: 00           nop
75b9: 00           nop
75ba: 00           nop
75bb: 09           add  hl,bc
75bc: 12           ld   (de),a
75bd: 24           inc  h
75be: 48           ld   c,b
75bf: 90           sub  b
75c0: 48           ld   c,b
75c1: 00           nop
75c2: 00           nop
75c3: 7f           ld   a,a
75c4: 00           nop
75c5: 00           nop
75c6: 00           nop
75c7: 00           nop
75c8: 00           nop
75c9: 00           nop
75ca: 08           ex   af,af'
75cb: 08           ex   af,af'
75cc: 08           ex   af,af'
75cd: 7f           ld   a,a
75ce: 08           ex   af,af'
75cf: 08           ex   af,af'
75d0: 08           ex   af,af'
75d1: 00           nop
75d2: 18 18        jr   $75EC
75d4: 00           nop
75d5: 00           nop
75d6: 00           nop
75d7: 00           nop
75d8: 00           nop
75d9: 00           nop
75da: 00           nop
75db: 18 18        jr   $75F5
75dd: 00           nop
75de: 00           nop
75df: 7e           ld   a,(hl)
75e0: 00           nop
75e1: 00           nop
75e2: 00           nop
75e3: 00           nop
75e4: 00           nop
75e5: 00           nop
75e6: 00           nop
75e7: 00           nop
75e8: 00           nop
75e9: 00           nop
75ea: 18 24        jr   $7610
75ec: 24           inc  h
75ed: 18 00        jr   $75EF
75ef: 00           nop
75f0: 00           nop
75f1: 0c           inc  c
75f2: 10 08        djnz $75FC
75f4: 04           inc  b
75f5: 3c           inc  a
75f6: 00           nop
75f7: 00           nop
75f8: 00           nop
75f9: 08           ex   af,af'
75fa: 0c           inc  c
75fb: 08           ex   af,af'
75fc: 08           ex   af,af'
75fd: 1c           inc  e
75fe: 00           nop
75ff: 3e 00        ld   a,$00
7601: 14           inc  d
7602: 14           inc  d
7603: 3c           inc  a
7604: 10 10        djnz $7616
7606: 00           nop
7607: 00           nop
7608: 00           nop
7609: 08           ex   af,af'
760a: 0c           inc  c
760b: 08           ex   af,af'
760c: 08           ex   af,af'
760d: 1c           inc  e
760e: 00           nop
760f: 3e 00        ld   a,$00
7611: 0e 19        ld   c,$19
7613: 29           add  hl,hl
7614: 46           ld   b,(hl)
7615: 00           nop
7616: 00           nop
7617: 00           nop
7618: 00           nop
7619: 30 48        jr   nc,$7663
761b: 48           ld   c,b
761c: 08           ex   af,af'
761d: 08           ex   af,af'
761e: 3e 08        ld   a,$08
7620: 08           ex   af,af'
7621: 7f           ld   a,a
7622: 08           ex   af,af'
7623: 08           ex   af,af'
7624: 08           ex   af,af'
7625: 00           nop
7626: 00           nop
7627: 00           nop
7628: 00           nop
7629: 41           ld   b,c
762a: 41           ld   b,c
762b: 22 22 14     ld   ($1422),hl
762e: 7f           ld   a,a
762f: 08           ex   af,af'
7630: 08           ex   af,af'
7631: 08           ex   af,af'
7632: 08           ex   af,af'
7633: 08           ex   af,af'
7634: 06 00        ld   b,$00
7636: 00           nop
7637: 00           nop
7638: 00           nop
7639: 30 08        jr   nc,$7643
763b: 08           ex   af,af'
763c: 08           ex   af,af'
763d: 08           ex   af,af'
763e: 08           ex   af,af'
763f: 1c           inc  e
7640: 08           ex   af,af'
7641: 29           add  hl,hl
7642: 69           ld   l,c
7643: 49           ld   c,c
7644: 69           ld   l,c
7645: 00           nop
7646: 00           nop
7647: 00           nop
7648: 00           nop
7649: 0f           rrca
764a: 11 11 11     ld   de,$1111
764d: 0f           rrca
764e: 09           add  hl,bc
764f: 1d           dec  e
7650: 69           ld   l,c
7651: 49           ld   c,c
7652: 3e 08        ld   a,$08
7654: 08           ex   af,af'
7655: 00           nop
7656: 00           nop
7657: 00           nop
7658: 00           nop
7659: 00           nop
765a: 08           ex   af,af'
765b: 08           ex   af,af'
765c: 3e 49        ld   a,$49
765e: 09           add  hl,bc
765f: 09           add  hl,bc
7660: 09           add  hl,bc
7661: 41           ld   b,c
7662: 41           ld   b,c
7663: 22 1c 00     ld   ($001C),hl
7666: 00           nop
7667: 00           nop
7668: 00           nop
7669: 08           ex   af,af'
766a: 08           ex   af,af'
766b: 00           nop
766c: 00           nop
766d: 08           ex   af,af'
766e: 08           ex   af,af'
766f: 04           inc  b
7670: 42           ld   b,d
7671: 09           add  hl,bc
7672: 09           add  hl,bc
7673: 09           add  hl,bc
7674: 76           halt
7675: 00           nop
7676: 00           nop
7677: 00           nop
7678: 00           nop
7679: 00           nop
767a: 00           nop
767b: 08           ex   af,af'
767c: 7e           ld   a,(hl)
767d: 09           add  hl,bc
767e: 09           add  hl,bc
767f: 09           add  hl,bc
7680: 39           add  hl,sp
7681: 09           add  hl,bc
7682: 09           add  hl,bc
7683: 09           add  hl,bc
7684: 79           ld   a,c
7685: 00           nop
7686: 00           nop
7687: 00           nop
7688: 00           nop
7689: 76           halt
768a: 09           add  hl,bc
768b: 09           add  hl,bc
768c: 09           add  hl,bc
768d: 09           add  hl,bc
768e: 09           add  hl,bc
768f: 7f           ld   a,a
7690: 09           add  hl,bc
7691: 04           inc  b
7692: 00           nop
7693: 00           nop
7694: 00           nop
7695: 00           nop
7696: 00           nop
7697: 00           nop
7698: 00           nop
7699: 00           nop
769a: 00           nop
769b: 00           nop
769c: 00           nop
769d: 04           inc  b
769e: 02           ld   (bc),a
769f: fd           db   $fd
76a0: 02           ld   (bc),a
76a1: 20 00        jr   nz,$76A3
76a3: 00           nop
76a4: 00           nop
76a5: 00           nop
76a6: 00           nop
76a7: 00           nop
76a8: 00           nop
76a9: 00           nop
76aa: 00           nop
76ab: 00           nop
76ac: 00           nop
76ad: 20 40        jr   nz,$76EF
76af: bf           cp   a
76b0: 40           ld   b,b
76b1: 08           ex   af,af'
76b2: 08           ex   af,af'
76b3: 08           ex   af,af'
76b4: 08           ex   af,af'
76b5: 00           nop
76b6: 00           nop
76b7: 00           nop
76b8: 00           nop
76b9: 08           ex   af,af'
76ba: 14           inc  d
76bb: 2a 08 08     ld   hl,($0808)
76be: 08           ex   af,af'
76bf: 08           ex   af,af'
76c0: 08           ex   af,af'
76c1: 08           ex   af,af'
76c2: 2a 14 08     ld   hl,($0814)
76c5: 00           nop
76c6: 00           nop
76c7: 00           nop
76c8: 00           nop
76c9: 08           ex   af,af'
76ca: 08           ex   af,af'
76cb: 08           ex   af,af'
76cc: 08           ex   af,af'
76cd: 08           ex   af,af'
76ce: 08           ex   af,af'
76cf: 08           ex   af,af'
76d0: 08           ex   af,af'
76d1: 3f           ccf
76d2: 3f           ccf
76d3: 3f           ccf
76d4: 3f           ccf
76d5: 00           nop
76d6: 00           nop
76d7: 00           nop
76d8: 00           nop
76d9: 00           nop
76da: 3f           ccf
76db: 3f           ccf
76dc: 3f           ccf
76dd: 3f           ccf
76de: 3f           ccf
76df: 3f           ccf
76e0: 3f           ccf
76e1: 21 21 21     ld   hl,$2121
76e4: 3f           ccf
76e5: 00           nop
76e6: 00           nop
76e7: 00           nop
76e8: 00           nop
76e9: 00           nop
76ea: 3f           ccf
76eb: 21 21 21     ld   hl,$2121
76ee: 21 21 21     ld   hl,$2121
76f1: 7f           ld   a,a
76f2: 7f           ld   a,a
76f3: 3e 1c        ld   a,$1C
76f5: 00           nop
76f6: 00           nop
76f7: 00           nop
76f8: 00           nop
76f9: 00           nop
76fa: 1c           inc  e
76fb: 3e 7f        ld   a,$7F
76fd: 7f           ld   a,a
76fe: 7f           ld   a,a
76ff: 7f           ld   a,a
7700: 7f           ld   a,a
7701: 41           ld   b,c
7702: 41           ld   b,c
7703: 22 1c 00     ld   ($001C),hl
7706: 00           nop
7707: 00           nop
7708: 00           nop
7709: 00           nop
770a: 1c           inc  e
770b: 22 41 41     ld   ($4141),hl
770e: 41           ld   b,c
770f: 41           ld   b,c
7710: 41           ld   b,c
7711: 59           ld   e,c
7712: 41           ld   b,c
7713: 22 1c 00     ld   ($001C),hl
7716: 00           nop
7717: 00           nop
7718: 00           nop
7719: 00           nop
771a: 1c           inc  e
771b: 22 41 59     ld   ($5941),hl
771e: 45           ld   b,l
771f: 45           ld   b,l
7720: 45           ld   b,l
7721: 48           ld   c,b
7722: 48           ld   c,b
7723: 48           ld   c,b
7724: 48           ld   c,b
7725: 00           nop
7726: 00           nop
7727: 00           nop
7728: 00           nop
7729: 7e           ld   a,(hl)
772a: 49           ld   c,c
772b: 49           ld   c,c
772c: 49           ld   c,c
772d: 49           ld   c,c
772e: 7e           ld   a,(hl)
772f: 48           ld   c,b
7730: 48           ld   c,b
7731: 1c           inc  e
7732: 20 20        jr   nz,$7754
7734: 1e 00        ld   e,$00
7736: 00           nop
7737: 00           nop
7738: 00           nop
7739: 3c           inc  a
773a: 02           ld   (bc),a
773b: 02           ld   (bc),a
773c: 1c           inc  e
773d: 22 22 22     ld   ($2222),hl
7740: 22 00 00     ld   ($0000),hl
7743: 00           nop
7744: 00           nop
7745: 00           nop
7746: 00           nop
7747: 00           nop
7748: 00           nop
7749: 5e           ld   e,(hl)
774a: 74           ld   (hl),h
774b: 54           ld   d,h
774c: 54           ld   d,h
774d: 54           ld   d,h
774e: 00           nop
774f: 00           nop
7750: 00           nop
7751: 08           ex   af,af'
7752: 08           ex   af,af'
7753: 1c           inc  e
7754: 08           ex   af,af'
7755: 00           nop
7756: 00           nop
7757: 00           nop
7758: 00           nop
7759: 08           ex   af,af'
775a: 1c           inc  e
775b: 08           ex   af,af'
775c: 2a 7f 2a     ld   hl,($2A7F)
775f: 08           ex   af,af'
7760: 08           ex   af,af'
7761: 08           ex   af,af'
7762: 08           ex   af,af'
7763: 08           ex   af,af'
7764: 78           ld   a,b
7765: 00           nop
7766: 00           nop
7767: 00           nop
7768: 00           nop
7769: 00           nop
776a: 3c           inc  a
776b: 02           ld   (bc),a
776c: 01 09 09     ld   bc,$0909
776f: 0a           ld   a,(bc)
7770: 3c           inc  a
7771: 00           nop
7772: 00           nop
7773: 00           nop
7774: 00           nop
7775: 00           nop
7776: 00           nop
7777: 00           nop
7778: 00           nop
7779: 00           nop
777a: 00           nop
777b: 00           nop
777c: 00           nop
777d: 00           nop
777e: 1c           inc  e
777f: 1c           inc  e
7780: 1c           inc  e
7781: 1e 1f        ld   e,$1F
7783: 1f           rra
7784: 1f           rra
7785: 0e 00        ld   c,$00
7787: 00           nop
7788: 00           nop
7789: 30 70        jr   nc,$77FB
778b: d0           ret  nc
778c: 90           sub  b
778d: 10 10        djnz $779F
778f: 10 10        djnz $77A1
7791: cf           rst  $08
7792: 4f           ld   c,a
7793: 46           ld   b,(hl)
7794: 70           ld   (hl),b
7795: 78           ld   a,b
7796: 78           ld   a,b
7797: 30 00        jr   nc,$7799
7799: 00           nop
779a: 08           ex   af,af'
779b: 18 28        jr   $77C5
779d: 48           ld   c,b
779e: d8           ret  c
779f: 68           ld   l,b
77a0: 4e           ld   c,(hl)
77a1: 40           ld   b,b
77a2: 24           inc  h
77a3: 14           inc  d
77a4: 0c           inc  c
77a5: 3c           inc  a
77a6: 00           nop
77a7: 00           nop
77a8: 00           nop
77a9: 00           nop
77aa: 08           ex   af,af'
77ab: 10 20        djnz $77CD
77ad: 20 40        jr   nz,$77EF
77af: 40           ld   b,b
77b0: 40           ld   b,b
77b1: f4 14 14     call p,$1414
77b4: 14           inc  d
77b5: 14           inc  d
77b6: 14           inc  d
77b7: 14           inc  d
77b8: 14           inc  d
77b9: 00           nop
77ba: 00           nop
77bb: 00           nop
77bc: 00           nop
77bd: 00           nop
77be: 00           nop
77bf: fc 04 f4     call m,$F404
77c2: 14           inc  d
77c3: 14           inc  d
77c4: 14           inc  d
77c5: 14           inc  d
77c6: 14           inc  d
77c7: 14           inc  d
77c8: 14           inc  d
77c9: 14           inc  d
77ca: 14           inc  d
77cb: 14           inc  d
77cc: 14           inc  d
77cd: 14           inc  d
77ce: 14           inc  d
77cf: f4 04 fc     call p,$FC04
77d2: 00           nop
77d3: 00           nop
77d4: 00           nop
77d5: 00           nop
77d6: 00           nop
77d7: 00           nop
77d8: 00           nop
77d9: 14           inc  d
77da: 14           inc  d
77db: 14           inc  d
77dc: 14           inc  d
77dd: 14           inc  d
77de: 14           inc  d
77df: f4 04 08     call p,$0804
77e2: 08           ex   af,af'
77e3: 08           ex   af,af'
77e4: 08           ex   af,af'
77e5: 08           ex   af,af'
77e6: 08           ex   af,af'
77e7: 08           ex   af,af'
77e8: 08           ex   af,af'
77e9: 00           nop
77ea: 00           nop
77eb: 00           nop
77ec: 00           nop
77ed: 00           nop
77ee: 00           nop
77ef: 00           nop
77f0: f8           ret  m
77f1: 08           ex   af,af'
77f2: 08           ex   af,af'
77f3: 08           ex   af,af'
77f4: 08           ex   af,af'
77f5: 08           ex   af,af'
77f6: 08           ex   af,af'
77f7: 08           ex   af,af'
77f8: 08           ex   af,af'
77f9: 08           ex   af,af'
77fa: 08           ex   af,af'
77fb: 08           ex   af,af'
77fc: 08           ex   af,af'
77fd: 08           ex   af,af'
77fe: 08           ex   af,af'
77ff: 08           ex   af,af'
7800: f8           ret  m
7801: 00           nop
7802: 00           nop
7803: 00           nop
7804: 00           nop
7805: 00           nop
7806: 00           nop
7807: 00           nop
7808: 00           nop
7809: 08           ex   af,af'
780a: 08           ex   af,af'
780b: 08           ex   af,af'
780c: 08           ex   af,af'
780d: 08           ex   af,af'
780e: 08           ex   af,af'
780f: 08           ex   af,af'
7810: f8           ret  m
7811: ee bb        xor  $BB
7813: ee bb        xor  $BB
7815: ee bb        xor  $BB
7817: ee bb        xor  $BB
7819: ee bb        xor  $BB
781b: ee bb        xor  $BB
781d: ee bb        xor  $BB
781f: ee bb        xor  $BB
7821: 88           adc  a,b
7822: 22 88 22     ld   ($2288),hl
7825: 88           adc  a,b
7826: 22 88 22     ld   ($2288),hl
7829: 88           adc  a,b
782a: 22 88 22     ld   ($2288),hl
782d: 88           adc  a,b
782e: 22 88 22     ld   ($2288),hl
7831: 00           nop
7832: 00           nop
7833: 00           nop
7834: 00           nop
7835: 00           nop
7836: 00           nop
7837: 00           nop
7838: 00           nop
7839: ff           rst  $38
783a: ff           rst  $38
783b: ff           rst  $38
783c: ff           rst  $38
783d: ff           rst  $38
783e: ff           rst  $38
783f: ff           rst  $38
7840: ff           rst  $38
7841: 0f           rrca
7842: 0f           rrca
7843: 0f           rrca
7844: 0f           rrca
7845: 0f           rrca
7846: 0f           rrca
7847: 0f           rrca
7848: 0f           rrca
7849: 0f           rrca
784a: 0f           rrca
784b: 0f           rrca
784c: 0f           rrca
784d: 0f           rrca
784e: 0f           rrca
784f: 0f           rrca
7850: 0f           rrca
7851: c8           ret  z
7852: 24           inc  h
7853: 14           inc  d
7854: 14           inc  d
7855: 14           inc  d
7856: 14           inc  d
7857: 14           inc  d
7858: 14           inc  d
7859: 00           nop
785a: 00           nop
785b: 00           nop
785c: 00           nop
785d: 00           nop
785e: 00           nop
785f: e0           ret  po
7860: 10 e0        djnz $7842
7862: 00           nop
7863: 00           nop
7864: 00           nop
7865: 00           nop
7866: 00           nop
7867: 00           nop
7868: 00           nop
7869: 14           inc  d
786a: 14           inc  d
786b: 14           inc  d
786c: 14           inc  d
786d: 14           inc  d
786e: 24           inc  h
786f: c8           ret  z
7870: 10 20        djnz $7892
7872: 10 08        djnz $787C
7874: 08           ex   af,af'
7875: 08           ex   af,af'
7876: 08           ex   af,af'
7877: 08           ex   af,af'
7878: 08           ex   af,af'
7879: 00           nop
787a: 00           nop
787b: 00           nop
787c: 00           nop
787d: 00           nop
787e: 00           nop
787f: 00           nop
7880: c0           ret  nz
7881: 00           nop
7882: 00           nop
7883: 00           nop
7884: 00           nop
7885: 00           nop
7886: 00           nop
7887: 00           nop
7888: 00           nop
7889: 08           ex   af,af'
788a: 08           ex   af,af'
788b: 08           ex   af,af'
788c: 08           ex   af,af'
788d: 08           ex   af,af'
788e: 10 20        djnz $78B0
7890: c0           ret  nz
7891: 00           nop
7892: 00           nop
7893: 00           nop
7894: 00           nop
7895: 00           nop
7896: 00           nop
7897: 00           nop
7898: 00           nop
7899: 00           nop
789a: 00           nop
789b: 00           nop
789c: 00           nop
789d: 00           nop
789e: 00           nop
789f: 00           nop
78a0: ff           rst  $38
78a1: 08           ex   af,af'
78a2: 08           ex   af,af'
78a3: 08           ex   af,af'
78a4: 08           ex   af,af'
78a5: 08           ex   af,af'
78a6: 08           ex   af,af'
78a7: 08           ex   af,af'
78a8: 08           ex   af,af'
78a9: 08           ex   af,af'
78aa: 08           ex   af,af'
78ab: 08           ex   af,af'
78ac: 08           ex   af,af'
78ad: 08           ex   af,af'
78ae: 08           ex   af,af'
78af: 08           ex   af,af'
78b0: 08           ex   af,af'
78b1: f7           rst  $30
78b2: 14           inc  d
78b3: 14           inc  d
78b4: 14           inc  d
78b5: 14           inc  d
78b6: 14           inc  d
78b7: 14           inc  d
78b8: 14           inc  d
78b9: 00           nop
78ba: 00           nop
78bb: 00           nop
78bc: 00           nop
78bd: 00           nop
78be: 00           nop
78bf: ff           rst  $38
78c0: 00           nop
78c1: f7           rst  $30
78c2: 14           inc  d
78c3: 14           inc  d
78c4: 14           inc  d
78c5: 14           inc  d
78c6: 14           inc  d
78c7: 14           inc  d
78c8: 14           inc  d
78c9: 14           inc  d
78ca: 14           inc  d
78cb: 14           inc  d
78cc: 14           inc  d
78cd: 14           inc  d
78ce: 14           inc  d
78cf: f7           rst  $30
78d0: 00           nop
78d1: ff           rst  $38
78d2: 00           nop
78d3: 00           nop
78d4: 00           nop
78d5: 00           nop
78d6: 00           nop
78d7: 00           nop
78d8: 00           nop
78d9: 14           inc  d
78da: 14           inc  d
78db: 14           inc  d
78dc: 14           inc  d
78dd: 14           inc  d
78de: 14           inc  d
78df: f7           rst  $30
78e0: 00           nop
78e1: 08           ex   af,af'
78e2: 08           ex   af,af'
78e3: 08           ex   af,af'
78e4: 08           ex   af,af'
78e5: 08           ex   af,af'
78e6: 08           ex   af,af'
78e7: 08           ex   af,af'
78e8: 08           ex   af,af'
78e9: 00           nop
78ea: 00           nop
78eb: 00           nop
78ec: 00           nop
78ed: 00           nop
78ee: 00           nop
78ef: 00           nop
78f0: ff           rst  $38
78f1: 08           ex   af,af'
78f2: 08           ex   af,af'
78f3: 08           ex   af,af'
78f4: 08           ex   af,af'
78f5: 08           ex   af,af'
78f6: 08           ex   af,af'
78f7: 08           ex   af,af'
78f8: 08           ex   af,af'
78f9: 08           ex   af,af'
78fa: 08           ex   af,af'
78fb: 08           ex   af,af'
78fc: 08           ex   af,af'
78fd: 08           ex   af,af'
78fe: 08           ex   af,af'
78ff: 08           ex   af,af'
7900: ff           rst  $38
7901: 00           nop
7902: 00           nop
7903: 00           nop
7904: 00           nop
7905: 00           nop
7906: 00           nop
7907: 00           nop
7908: 00           nop
7909: 08           ex   af,af'
790a: 08           ex   af,af'
790b: 08           ex   af,af'
790c: 08           ex   af,af'
790d: 08           ex   af,af'
790e: 08           ex   af,af'
790f: 08           ex   af,af'
7910: ff           rst  $38
7911: ff           rst  $38
7912: ff           rst  $38
7913: ff           rst  $38
7914: ff           rst  $38
7915: ff           rst  $38
7916: ff           rst  $38
7917: ff           rst  $38
7918: ff           rst  $38
7919: ff           rst  $38
791a: ff           rst  $38
791b: ff           rst  $38
791c: ff           rst  $38
791d: ff           rst  $38
791e: ff           rst  $38
791f: ff           rst  $38
7920: ff           rst  $38
7921: aa           xor  d
7922: 55           ld   d,l
7923: aa           xor  d
7924: 55           ld   d,l
7925: aa           xor  d
7926: 55           ld   d,l
7927: aa           xor  d
7928: 55           ld   d,l
7929: aa           xor  d
792a: 55           ld   d,l
792b: aa           xor  d
792c: 55           ld   d,l
792d: aa           xor  d
792e: 55           ld   d,l
792f: aa           xor  d
7930: 55           ld   d,l
7931: ff           rst  $38
7932: ff           rst  $38
7933: ff           rst  $38
7934: ff           rst  $38
7935: ff           rst  $38
7936: ff           rst  $38
7937: ff           rst  $38
7938: ff           rst  $38
7939: 00           nop
793a: 00           nop
793b: 00           nop
793c: 00           nop
793d: 00           nop
793e: 00           nop
793f: 00           nop
7940: 00           nop
7941: f0           ret  p
7942: f0           ret  p
7943: f0           ret  p
7944: f0           ret  p
7945: f0           ret  p
7946: f0           ret  p
7947: f0           ret  p
7948: f0           ret  p
7949: f0           ret  p
794a: f0           ret  p
794b: f0           ret  p
794c: f0           ret  p
794d: f0           ret  p
794e: f0           ret  p
794f: f0           ret  p
7950: f0           ret  p
7951: 13           inc  de
7952: 14           inc  d
7953: 14           inc  d
7954: 14           inc  d
7955: 14           inc  d
7956: 14           inc  d
7957: 14           inc  d
7958: 14           inc  d
7959: 00           nop
795a: 00           nop
795b: 00           nop
795c: 00           nop
795d: 00           nop
795e: 00           nop
795f: 07           rlca
7960: 08           ex   af,af'
7961: 07           rlca
7962: 00           nop
7963: 00           nop
7964: 00           nop
7965: 00           nop
7966: 00           nop
7967: 00           nop
7968: 00           nop
7969: 14           inc  d
796a: 14           inc  d
796b: 14           inc  d
796c: 14           inc  d
796d: 14           inc  d
796e: 14           inc  d
796f: 13           inc  de
7970: 08           ex   af,af'
7971: 02           ld   (bc),a
7972: 04           inc  b
7973: 08           ex   af,af'
7974: 08           ex   af,af'
7975: 08           ex   af,af'
7976: 08           ex   af,af'
7977: 08           ex   af,af'
7978: 08           ex   af,af'
7979: 00           nop
797a: 00           nop
797b: 00           nop
797c: 00           nop
797d: 00           nop
797e: 00           nop
797f: 00           nop
7980: 01 00 00     ld   bc,$0000
7983: 00           nop
7984: 00           nop
7985: 00           nop
7986: 00           nop
7987: 00           nop
7988: 00           nop
7989: 08           ex   af,af'
798a: 08           ex   af,af'
798b: 08           ex   af,af'
798c: 08           ex   af,af'
798d: 08           ex   af,af'
798e: 04           inc  b
798f: 02           ld   (bc),a
7990: 01 ff 00     ld   bc,$00FF
7993: 00           nop
7994: 00           nop
7995: 00           nop
7996: 00           nop
7997: 00           nop
7998: 00           nop
7999: 00           nop
799a: 00           nop
799b: 00           nop
799c: 00           nop
799d: 00           nop
799e: 00           nop
799f: ff           rst  $38
79a0: 00           nop
79a1: 14           inc  d
79a2: 14           inc  d
79a3: 14           inc  d
79a4: 14           inc  d
79a5: 14           inc  d
79a6: 14           inc  d
79a7: 14           inc  d
79a8: 14           inc  d
79a9: 14           inc  d
79aa: 14           inc  d
79ab: 14           inc  d
79ac: 14           inc  d
79ad: 14           inc  d
79ae: 14           inc  d
79af: 14           inc  d
79b0: 14           inc  d
79b1: 17           rla
79b2: 14           inc  d
79b3: 14           inc  d
79b4: 14           inc  d
79b5: 14           inc  d
79b6: 14           inc  d
79b7: 14           inc  d
79b8: 14           inc  d
79b9: 00           nop
79ba: 00           nop
79bb: 00           nop
79bc: 00           nop
79bd: 00           nop
79be: 00           nop
79bf: 1f           rra
79c0: 10 17        djnz $79D9
79c2: 14           inc  d
79c3: 14           inc  d
79c4: 14           inc  d
79c5: 14           inc  d
79c6: 14           inc  d
79c7: 14           inc  d
79c8: 14           inc  d
79c9: 14           inc  d
79ca: 14           inc  d
79cb: 14           inc  d
79cc: 14           inc  d
79cd: 14           inc  d
79ce: 14           inc  d
79cf: 17           rla
79d0: 10 1f        djnz $79F1
79d2: 00           nop
79d3: 00           nop
79d4: 00           nop
79d5: 00           nop
79d6: 00           nop
79d7: 00           nop
79d8: 00           nop
79d9: 14           inc  d
79da: 14           inc  d
79db: 14           inc  d
79dc: 14           inc  d
79dd: 14           inc  d
79de: 14           inc  d
79df: 17           rla
79e0: 10 08        djnz $79EA
79e2: 08           ex   af,af'
79e3: 08           ex   af,af'
79e4: 08           ex   af,af'
79e5: 08           ex   af,af'
79e6: 08           ex   af,af'
79e7: 08           ex   af,af'
79e8: 08           ex   af,af'
79e9: 00           nop
79ea: 00           nop
79eb: 00           nop
79ec: 00           nop
79ed: 00           nop
79ee: 00           nop
79ef: 00           nop
79f0: 0f           rrca
79f1: 08           ex   af,af'
79f2: 08           ex   af,af'
79f3: 08           ex   af,af'
79f4: 08           ex   af,af'
79f5: 08           ex   af,af'
79f6: 08           ex   af,af'
79f7: 08           ex   af,af'
79f8: 08           ex   af,af'
79f9: 08           ex   af,af'
79fa: 08           ex   af,af'
79fb: 08           ex   af,af'
79fc: 08           ex   af,af'
79fd: 08           ex   af,af'
79fe: 08           ex   af,af'
79ff: 08           ex   af,af'
7a00: 0f           rrca
7a01: 00           nop
7a02: 00           nop
7a03: 00           nop
7a04: 00           nop
7a05: 00           nop
7a06: 00           nop
7a07: 00           nop
7a08: 00           nop
7a09: 08           ex   af,af'
7a0a: 08           ex   af,af'
7a0b: 08           ex   af,af'
7a0c: 08           ex   af,af'
7a0d: 08           ex   af,af'
7a0e: 08           ex   af,af'
7a0f: 08           ex   af,af'
7a10: 0f           rrca
7a11: 00           nop
7a12: 00           nop
7a13: 00           nop
7a14: 00           nop
7a15: 00           nop
7a16: 00           nop
7a17: 00           nop
7a18: 00           nop
7a19: 00           nop
7a1a: 00           nop
7a1b: 00           nop
7a1c: 00           nop
7a1d: 00           nop
7a1e: 00           nop
7a1f: 00           nop
7a20: 00           nop
7a21: 18 00        jr   $7A23
7a23: 00           nop
7a24: 18 00        jr   $7A26
7a26: 00           nop
7a27: 00           nop
7a28: 00           nop
7a29: 18 18        jr   $7A43
7a2b: 18 18        jr   $7A45
7a2d: 18 18        jr   $7A47
7a2f: 18 18        jr   $7A49
7a31: 00           nop
7a32: 00           nop
7a33: 00           nop
7a34: 00           nop
7a35: 00           nop
7a36: 00           nop
7a37: 00           nop
7a38: 00           nop
7a39: 66           ld   h,(hl)
7a3a: 66           ld   h,(hl)
7a3b: 66           ld   h,(hl)
7a3c: 22 00 00     ld   ($0000),hl
7a3f: 00           nop
7a40: 00           nop
7a41: 7f           ld   a,a
7a42: 36 36        ld   (hl),$36
7a44: 00           nop
7a45: 00           nop
7a46: 00           nop
7a47: 00           nop
7a48: 00           nop
7a49: 00           nop
7a4a: 36 36        ld   (hl),$36
7a4c: 7f           ld   a,a
7a4d: 7f           ld   a,a
7a4e: 36 36        ld   (hl),$36
7a50: 7f           ld   a,a
7a51: 6c           ld   l,h
7a52: 6d           ld   l,l
7a53: 7f           ld   a,a
7a54: 3e 0c        ld   a,$0C
7a56: 00           nop
7a57: 00           nop
7a58: 00           nop
7a59: 0c           inc  c
7a5a: 3e 7f        ld   a,$7F
7a5c: 4d           ld   c,l
7a5d: 0d           dec  c
7a5e: 3f           ccf
7a5f: 3e 6c        ld   a,$6C
7a61: 6c           ld   l,h
7a62: f6 f6        or   $F6
7a64: 63           ld   h,e
7a65: 00           nop
7a66: 00           nop
7a67: 00           nop
7a68: 00           nop
7a69: 66           ld   h,(hl)
7a6a: 6f           ld   l,a
7a6b: 6f           ld   l,a
7a6c: 36 30        ld   (hl),$30
7a6e: 18 18        jr   $7A88
7a70: 0c           inc  c
7a71: 73           ld   (hl),e
7a72: 63           ld   h,e
7a73: 7e           ld   a,(hl)
7a74: 5c           ld   e,h
7a75: 00           nop
7a76: 00           nop
7a77: 00           nop
7a78: 00           nop
7a79: 1c           inc  e
7a7a: 36 36        ld   (hl),$36
7a7c: 1c           inc  e
7a7d: 0c           inc  c
7a7e: 1e 1b        ld   e,$1B
7a80: 5b           ld   e,e
7a81: 00           nop
7a82: 00           nop
7a83: 00           nop
7a84: 00           nop
7a85: 00           nop
7a86: 00           nop
7a87: 00           nop
7a88: 00           nop
7a89: 1c           inc  e
7a8a: 1c           inc  e
7a8b: 18 0c        jr   $7A99
7a8d: 06 00        ld   b,$00
7a8f: 00           nop
7a90: 00           nop
7a91: 18 18        jr   $7AAB
7a93: 30 60        jr   nc,$7AF5
7a95: 00           nop
7a96: 00           nop
7a97: 00           nop
7a98: 00           nop
7a99: 60           ld   h,b
7a9a: 30 18        jr   nc,$7AB4
7a9c: 18 0c        jr   $7AAA
7a9e: 0c           inc  c
7a9f: 0c           inc  c
7aa0: 0c           inc  c
7aa1: 0c           inc  c
7aa2: 0c           inc  c
7aa3: 06 03        ld   b,$03
7aa5: 00           nop
7aa6: 00           nop
7aa7: 00           nop
7aa8: 00           nop
7aa9: 03           inc  bc
7aaa: 06 0c        ld   b,$0C
7aac: 0c           inc  c
7aad: 18 18        jr   $7AC7
7aaf: 18 18        jr   $7AC9
7ab1: 18 00        jr   $7AB3
7ab3: 00           nop
7ab4: 00           nop
7ab5: 00           nop
7ab6: 00           nop
7ab7: 00           nop
7ab8: 00           nop
7ab9: 18 5a        jr   $7B15
7abb: 7e           ld   a,(hl)
7abc: 3c           inc  a
7abd: 18 3c        jr   $7AFB
7abf: 7e           ld   a,(hl)
7ac0: 5a           ld   e,d
7ac1: 18 18        jr   $7ADB
7ac3: 00           nop
7ac4: 00           nop
7ac5: 00           nop
7ac6: 00           nop
7ac7: 00           nop
7ac8: 00           nop
7ac9: 00           nop
7aca: 00           nop
7acb: 18 18        jr   $7AE5
7acd: 18 7e        jr   $7B4D
7acf: 7e           ld   a,(hl)
7ad0: 18 1c        jr   $7AEE
7ad2: 1c           inc  e
7ad3: 18 0c        jr   $7AE1
7ad5: 06 00        ld   b,$00
7ad7: 00           nop
7ad8: 00           nop
7ad9: 00           nop
7ada: 00           nop
7adb: 00           nop
7adc: 00           nop
7add: 00           nop
7ade: 00           nop
7adf: 00           nop
7ae0: 00           nop
7ae1: 00           nop
7ae2: 00           nop
7ae3: 00           nop
7ae4: 00           nop
7ae5: 00           nop
7ae6: 00           nop
7ae7: 00           nop
7ae8: 00           nop
7ae9: 00           nop
7aea: 00           nop
7aeb: 00           nop
7aec: 00           nop
7aed: 00           nop
7aee: 3e 3e        ld   a,$3E
7af0: 00           nop
7af1: 00           nop
7af2: 1c           inc  e
7af3: 1c           inc  e
7af4: 1c           inc  e
7af5: 00           nop
7af6: 00           nop
7af7: 00           nop
7af8: 00           nop
7af9: 00           nop
7afa: 00           nop
7afb: 00           nop
7afc: 00           nop
7afd: 00           nop
7afe: 00           nop
7aff: 00           nop
7b00: 00           nop
7b01: 06 03        ld   b,$03
7b03: 03           inc  bc
7b04: 03           inc  bc
7b05: 03           inc  bc
7b06: 00           nop
7b07: 00           nop
7b08: 00           nop
7b09: 60           ld   h,b
7b0a: 30 30        jr   nc,$7B3C
7b0c: 18 18        jr   $7B26
7b0e: 0c           inc  c
7b0f: 0c           inc  c
7b10: 06 67        ld   b,$67
7b12: 67           ld   h,a
7b13: 3e 1c        ld   a,$1C
7b15: 00           nop
7b16: 00           nop
7b17: 00           nop
7b18: 00           nop
7b19: 1c           inc  e
7b1a: 3e 73        ld   a,$73
7b1c: 73           ld   (hl),e
7b1d: 7b           ld   a,e
7b1e: 6b           ld   l,e
7b1f: 6b           ld   l,e
7b20: 6f           ld   l,a
7b21: 18 18        jr   $7B3B
7b23: 3c           inc  a
7b24: 3c           inc  a
7b25: 00           nop
7b26: 00           nop
7b27: 00           nop
7b28: 00           nop
7b29: 18 1c        jr   $7B47
7b2b: 1e 18        ld   e,$18
7b2d: 18 18        jr   $7B47
7b2f: 18 18        jr   $7B49
7b31: 06 03        ld   b,$03
7b33: 7f           ld   a,a
7b34: 7f           ld   a,a
7b35: 00           nop
7b36: 00           nop
7b37: 00           nop
7b38: 00           nop
7b39: 1c           inc  e
7b3a: 3e 63        ld   a,$63
7b3c: 63           ld   h,e
7b3d: 60           ld   h,b
7b3e: 30 18        jr   nc,$7B58
7b40: 0c           inc  c
7b41: 60           ld   h,b
7b42: 63           ld   h,e
7b43: 3e 1c        ld   a,$1C
7b45: 00           nop
7b46: 00           nop
7b47: 00           nop
7b48: 00           nop
7b49: 1c           inc  e
7b4a: 3e 63        ld   a,$63
7b4c: 60           ld   h,b
7b4d: 30 1c        jr   nc,$7B6B
7b4f: 3c           inc  a
7b50: 60           ld   h,b
7b51: 7f           ld   a,a
7b52: 30 30        jr   nc,$7B84
7b54: 30 00        jr   nc,$7B56
7b56: 00           nop
7b57: 00           nop
7b58: 00           nop
7b59: 30 38        jr   nc,$7B93
7b5b: 38 3c        jr   c,$7B99
7b5d: 34           inc  (hl)
7b5e: 36 36        ld   (hl),$36
7b60: 7f           ld   a,a
7b61: 60           ld   h,b
7b62: 63           ld   h,e
7b63: 3f           ccf
7b64: 1c           inc  e
7b65: 00           nop
7b66: 00           nop
7b67: 00           nop
7b68: 00           nop
7b69: 7f           ld   a,a
7b6a: 7f           ld   a,a
7b6b: 03           inc  bc
7b6c: 03           inc  bc
7b6d: 1f           rra
7b6e: 3f           ccf
7b6f: 60           ld   h,b
7b70: 60           ld   h,b
7b71: 63           ld   h,e
7b72: 63           ld   h,e
7b73: 3e 1c        ld   a,$1C
7b75: 00           nop
7b76: 00           nop
7b77: 00           nop
7b78: 00           nop
7b79: 30 18        jr   nc,$7B93
7b7b: 0c           inc  c
7b7c: 06 06        ld   b,$06
7b7e: 1f           rra
7b7f: 3f           ccf
7b80: 63           ld   h,e
7b81: 0c           inc  c
7b82: 0c           inc  c
7b83: 06 06        ld   b,$06
7b85: 00           nop
7b86: 00           nop
7b87: 00           nop
7b88: 00           nop
7b89: 7f           ld   a,a
7b8a: 7f           ld   a,a
7b8b: 63           ld   h,e
7b8c: 60           ld   h,b
7b8d: 30 30        jr   nc,$7BBF
7b8f: 18 18        jr   $7BA9
7b91: 63           ld   h,e
7b92: 63           ld   h,e
7b93: 3e 1c        ld   a,$1C
7b95: 00           nop
7b96: 00           nop
7b97: 00           nop
7b98: 00           nop
7b99: 1c           inc  e
7b9a: 3e 63        ld   a,$63
7b9c: 63           ld   h,e
7b9d: 22 1c 3e     ld   ($3E1C),hl
7ba0: 63           ld   h,e
7ba1: 30 18        jr   nc,$7BBB
7ba3: 0c           inc  c
7ba4: 06 00        ld   b,$00
7ba6: 00           nop
7ba7: 00           nop
7ba8: 00           nop
7ba9: 1c           inc  e
7baa: 3e 63        ld   a,$63
7bac: 63           ld   h,e
7bad: 63           ld   h,e
7bae: 7e           ld   a,(hl)
7baf: 7c           ld   a,h
7bb0: 30 00        jr   nc,$7BB2
7bb2: 1c           inc  e
7bb3: 1c           inc  e
7bb4: 1c           inc  e
7bb5: 00           nop
7bb6: 00           nop
7bb7: 00           nop
7bb8: 00           nop
7bb9: 00           nop
7bba: 00           nop
7bbb: 00           nop
7bbc: 1c           inc  e
7bbd: 1c           inc  e
7bbe: 1c           inc  e
7bbf: 00           nop
7bc0: 00           nop
7bc1: 00           nop
7bc2: 1c           inc  e
7bc3: 1c           inc  e
7bc4: 1c           inc  e
7bc5: 06 06        ld   b,$06
7bc7: 00           nop
7bc8: 00           nop
7bc9: 00           nop
7bca: 00           nop
7bcb: 00           nop
7bcc: 1c           inc  e
7bcd: 1c           inc  e
7bce: 1c           inc  e
7bcf: 00           nop
7bd0: 00           nop
7bd1: 0c           inc  c
7bd2: 18 30        jr   $7C04
7bd4: 60           ld   h,b
7bd5: 00           nop
7bd6: 00           nop
7bd7: 00           nop
7bd8: 00           nop
7bd9: 60           ld   h,b
7bda: 30 18        jr   nc,$7BF4
7bdc: 0c           inc  c
7bdd: 06 03        ld   b,$03
7bdf: 03           inc  bc
7be0: 06 7e        ld   b,$7E
7be2: 00           nop
7be3: 00           nop
7be4: 00           nop
7be5: 00           nop
7be6: 00           nop
7be7: 00           nop
7be8: 00           nop
7be9: 00           nop
7bea: 00           nop
7beb: 00           nop
7bec: 7e           ld   a,(hl)
7bed: 7e           ld   a,(hl)
7bee: 00           nop
7bef: 00           nop
7bf0: 7e           ld   a,(hl)
7bf1: 18 0c        jr   $7BFF
7bf3: 06 03        ld   b,$03
7bf5: 00           nop
7bf6: 00           nop
7bf7: 00           nop
7bf8: 00           nop
7bf9: 03           inc  bc
7bfa: 06 0c        ld   b,$0C
7bfc: 18 30        jr   $7C2E
7bfe: 60           ld   h,b
7bff: 60           ld   h,b
7c00: 30 00        jr   nc,$7C02
7c02: 00           nop
7c03: 0c           inc  c
7c04: 0c           inc  c
7c05: 00           nop
7c06: 00           nop
7c07: 00           nop
7c08: 00           nop
7c09: 1c           inc  e
7c0a: 3e 63        ld   a,$63
7c0c: 63           ld   h,e
7c0d: 30 18        jr   nc,$7C27
7c0f: 0c           inc  c
7c10: 0c           inc  c
7c11: 3b           dec  sp
7c12: 03           inc  bc
7c13: 7e           ld   a,(hl)
7c14: 3c           inc  a
7c15: 00           nop
7c16: 00           nop
7c17: 00           nop
7c18: 00           nop
7c19: 1c           inc  e
7c1a: 3e 63        ld   a,$63
7c1c: 5b           ld   e,e
7c1d: 7b           ld   a,e
7c1e: 6b           ld   l,e
7c1f: 6b           ld   l,e
7c20: 7b           ld   a,e
7c21: 63           ld   h,e
7c22: 63           ld   h,e
7c23: 63           ld   h,e
7c24: 63           ld   h,e
7c25: 00           nop
7c26: 00           nop
7c27: 00           nop
7c28: 00           nop
7c29: 1c           inc  e
7c2a: 3e 63        ld   a,$63
7c2c: 63           ld   h,e
7c2d: 63           ld   h,e
7c2e: 7f           ld   a,a
7c2f: 7f           ld   a,a
7c30: 63           ld   h,e
7c31: 66           ld   h,(hl)
7c32: 66           ld   h,(hl)
7c33: 3e 1f        ld   a,$1F
7c35: 00           nop
7c36: 00           nop
7c37: 00           nop
7c38: 00           nop
7c39: 1f           rra
7c3a: 3e 66        ld   a,$66
7c3c: 66           ld   h,(hl)
7c3d: 26 1e        ld   h,$1E
7c3f: 3e 66        ld   a,$66
7c41: 63           ld   h,e
7c42: 63           ld   h,e
7c43: 3e 1c        ld   a,$1C
7c45: 00           nop
7c46: 00           nop
7c47: 00           nop
7c48: 00           nop
7c49: 1c           inc  e
7c4a: 3e 63        ld   a,$63
7c4c: 63           ld   h,e
7c4d: 03           inc  bc
7c4e: 03           inc  bc
7c4f: 03           inc  bc
7c50: 03           inc  bc
7c51: 66           ld   h,(hl)
7c52: 66           ld   h,(hl)
7c53: 3e 1f        ld   a,$1F
7c55: 00           nop
7c56: 00           nop
7c57: 00           nop
7c58: 00           nop
7c59: 1f           rra
7c5a: 3e 66        ld   a,$66
7c5c: 66           ld   h,(hl)
7c5d: 66           ld   h,(hl)
7c5e: 66           ld   h,(hl)
7c5f: 66           ld   h,(hl)
7c60: 66           ld   h,(hl)
7c61: 03           inc  bc
7c62: 03           inc  bc
7c63: 7f           ld   a,a
7c64: 7f           ld   a,a
7c65: 00           nop
7c66: 00           nop
7c67: 00           nop
7c68: 00           nop
7c69: 7f           ld   a,a
7c6a: 7f           ld   a,a
7c6b: 03           inc  bc
7c6c: 03           inc  bc
7c6d: 03           inc  bc
7c6e: 3f           ccf
7c6f: 3f           ccf
7c70: 03           inc  bc
7c71: 03           inc  bc
7c72: 03           inc  bc
7c73: 03           inc  bc
7c74: 03           inc  bc
7c75: 00           nop
7c76: 00           nop
7c77: 00           nop
7c78: 00           nop
7c79: 7f           ld   a,a
7c7a: 7f           ld   a,a
7c7b: 03           inc  bc
7c7c: 03           inc  bc
7c7d: 03           inc  bc
7c7e: 3f           ccf
7c7f: 3f           ccf
7c80: 03           inc  bc
7c81: 63           ld   h,e
7c82: 63           ld   h,e
7c83: 7e           ld   a,(hl)
7c84: 5c           ld   e,h
7c85: 00           nop
7c86: 00           nop
7c87: 00           nop
7c88: 00           nop
7c89: 1c           inc  e
7c8a: 3e 63        ld   a,$63
7c8c: 63           ld   h,e
7c8d: 03           inc  bc
7c8e: 03           inc  bc
7c8f: 7b           ld   a,e
7c90: 73           ld   (hl),e
7c91: 63           ld   h,e
7c92: 63           ld   h,e
7c93: 63           ld   h,e
7c94: 63           ld   h,e
7c95: 00           nop
7c96: 00           nop
7c97: 00           nop
7c98: 00           nop
7c99: 63           ld   h,e
7c9a: 63           ld   h,e
7c9b: 63           ld   h,e
7c9c: 63           ld   h,e
7c9d: 63           ld   h,e
7c9e: 7f           ld   a,a
7c9f: 7f           ld   a,a
7ca0: 63           ld   h,e
7ca1: 18 18        jr   $7CBB
7ca3: 3c           inc  a
7ca4: 3c           inc  a
7ca5: 00           nop
7ca6: 00           nop
7ca7: 00           nop
7ca8: 00           nop
7ca9: 3c           inc  a
7caa: 3c           inc  a
7cab: 18 18        jr   $7CC5
7cad: 18 18        jr   $7CC7
7caf: 18 18        jr   $7CC9
7cb1: 18 1b        jr   $7CCE
7cb3: 1f           rra
7cb4: 0e 00        ld   c,$00
7cb6: 00           nop
7cb7: 00           nop
7cb8: 00           nop
7cb9: 3c           inc  a
7cba: 3c           inc  a
7cbb: 18 18        jr   $7CD5
7cbd: 18 18        jr   $7CD7
7cbf: 18 18        jr   $7CD9
7cc1: 1b           dec  de
7cc2: 33           inc  sp
7cc3: 63           ld   h,e
7cc4: 63           ld   h,e
7cc5: 00           nop
7cc6: 00           nop
7cc7: 00           nop
7cc8: 00           nop
7cc9: 63           ld   h,e
7cca: 63           ld   h,e
7ccb: 33           inc  sp
7ccc: 1b           dec  de
7ccd: 0f           rrca
7cce: 07           rlca
7ccf: 07           rlca
7cd0: 0f           rrca
7cd1: 03           inc  bc
7cd2: 03           inc  bc
7cd3: 7f           ld   a,a
7cd4: 7f           ld   a,a
7cd5: 00           nop
7cd6: 00           nop
7cd7: 00           nop
7cd8: 00           nop
7cd9: 03           inc  bc
7cda: 03           inc  bc
7cdb: 03           inc  bc
7cdc: 03           inc  bc
7cdd: 03           inc  bc
7cde: 03           inc  bc
7cdf: 03           inc  bc
7ce0: 03           inc  bc
7ce1: 63           ld   h,e
7ce2: 63           ld   h,e
7ce3: 63           ld   h,e
7ce4: 63           ld   h,e
7ce5: 00           nop
7ce6: 00           nop
7ce7: 00           nop
7ce8: 00           nop
7ce9: 63           ld   h,e
7cea: 63           ld   h,e
7ceb: 63           ld   h,e
7cec: 77           ld   (hl),a
7ced: 7f           ld   a,a
7cee: 6b           ld   l,e
7cef: 6b           ld   l,e
7cf0: 63           ld   h,e
7cf1: 73           ld   (hl),e
7cf2: 63           ld   h,e
7cf3: 63           ld   h,e
7cf4: 63           ld   h,e
7cf5: 00           nop
7cf6: 00           nop
7cf7: 00           nop
7cf8: 00           nop
7cf9: 63           ld   h,e
7cfa: 63           ld   h,e
7cfb: 63           ld   h,e
7cfc: 6f           ld   l,a
7cfd: 6f           ld   l,a
7cfe: 7b           ld   a,e
7cff: 7b           ld   a,e
7d00: 73           ld   (hl),e
7d01: 63           ld   h,e
7d02: 63           ld   h,e
7d03: 3e 1c        ld   a,$1C
7d05: 00           nop
7d06: 00           nop
7d07: 00           nop
7d08: 00           nop
7d09: 1c           inc  e
7d0a: 3e 63        ld   a,$63
7d0c: 63           ld   h,e
7d0d: 63           ld   h,e
7d0e: 63           ld   h,e
7d0f: 63           ld   h,e
7d10: 63           ld   h,e
7d11: 03           inc  bc
7d12: 03           inc  bc
7d13: 03           inc  bc
7d14: 03           inc  bc
7d15: 00           nop
7d16: 00           nop
7d17: 00           nop
7d18: 00           nop
7d19: 1f           rra
7d1a: 3f           ccf
7d1b: 63           ld   h,e
7d1c: 63           ld   h,e
7d1d: 63           ld   h,e
7d1e: 3f           ccf
7d1f: 1f           rra
7d20: 03           inc  bc
7d21: 7f           ld   a,a
7d22: 67           ld   h,a
7d23: 3e 5c        ld   a,$5C
7d25: 00           nop
7d26: 00           nop
7d27: 00           nop
7d28: 00           nop
7d29: 1c           inc  e
7d2a: 3e 63        ld   a,$63
7d2c: 63           ld   h,e
7d2d: 63           ld   h,e
7d2e: 63           ld   h,e
7d2f: 63           ld   h,e
7d30: 7b           ld   a,e
7d31: 33           inc  sp
7d32: 33           inc  sp
7d33: 63           ld   h,e
7d34: 63           ld   h,e
7d35: 00           nop
7d36: 00           nop
7d37: 00           nop
7d38: 00           nop
7d39: 1f           rra
7d3a: 3f           ccf
7d3b: 63           ld   h,e
7d3c: 63           ld   h,e
7d3d: 63           ld   h,e
7d3e: 3f           ccf
7d3f: 1f           rra
7d40: 33           inc  sp
7d41: 63           ld   h,e
7d42: 63           ld   h,e
7d43: 3e 1c        ld   a,$1C
7d45: 00           nop
7d46: 00           nop
7d47: 00           nop
7d48: 00           nop
7d49: 1c           inc  e
7d4a: 3e 63        ld   a,$63
7d4c: 63           ld   h,e
7d4d: 03           inc  bc
7d4e: 0e 3c        ld   c,$3C
7d50: 70           ld   (hl),b
7d51: 18 18        jr   $7D6B
7d53: 18 18        jr   $7D6D
7d55: 00           nop
7d56: 00           nop
7d57: 00           nop
7d58: 00           nop
7d59: 7f           ld   a,a
7d5a: 7f           ld   a,a
7d5b: 18 18        jr   $7D75
7d5d: 18 18        jr   $7D77
7d5f: 18 18        jr   $7D79
7d61: 63           ld   h,e
7d62: 63           ld   h,e
7d63: 3e 1c        ld   a,$1C
7d65: 00           nop
7d66: 00           nop
7d67: 00           nop
7d68: 00           nop
7d69: 63           ld   h,e
7d6a: 63           ld   h,e
7d6b: 63           ld   h,e
7d6c: 63           ld   h,e
7d6d: 63           ld   h,e
7d6e: 63           ld   h,e
7d6f: 63           ld   h,e
7d70: 63           ld   h,e
7d71: 1c           inc  e
7d72: 1c           inc  e
7d73: 08           ex   af,af'
7d74: 08           ex   af,af'
7d75: 00           nop
7d76: 00           nop
7d77: 00           nop
7d78: 00           nop
7d79: 63           ld   h,e
7d7a: 63           ld   h,e
7d7b: 63           ld   h,e
7d7c: 63           ld   h,e
7d7d: 63           ld   h,e
7d7e: 36 36        ld   (hl),$36
7d80: 36 7f        ld   (hl),$7F
7d82: 7f           ld   a,a
7d83: 36 36        ld   (hl),$36
7d85: 00           nop
7d86: 00           nop
7d87: 00           nop
7d88: 00           nop
7d89: 63           ld   h,e
7d8a: 63           ld   h,e
7d8b: 63           ld   h,e
7d8c: 63           ld   h,e
7d8d: 63           ld   h,e
7d8e: 6b           ld   l,e
7d8f: 6b           ld   l,e
7d90: 6b           ld   l,e
7d91: 36 36        ld   (hl),$36
7d93: 63           ld   h,e
7d94: 63           ld   h,e
7d95: 00           nop
7d96: 00           nop
7d97: 00           nop
7d98: 00           nop
7d99: 63           ld   h,e
7d9a: 63           ld   h,e
7d9b: 36 36        ld   (hl),$36
7d9d: 1c           inc  e
7d9e: 1c           inc  e
7d9f: 1c           inc  e
7da0: 1c           inc  e
7da1: 1c           inc  e
7da2: 1c           inc  e
7da3: 1c           inc  e
7da4: 1c           inc  e
7da5: 00           nop
7da6: 00           nop
7da7: 00           nop
7da8: 00           nop
7da9: 63           ld   h,e
7daa: 63           ld   h,e
7dab: 63           ld   h,e
7dac: 36 36        ld   (hl),$36
7dae: 1c           inc  e
7daf: 1c           inc  e
7db0: 1c           inc  e
7db1: 06 06        ld   b,$06
7db3: 7f           ld   a,a
7db4: 7f           ld   a,a
7db5: 00           nop
7db6: 00           nop
7db7: 00           nop
7db8: 00           nop
7db9: 7f           ld   a,a
7dba: 7f           ld   a,a
7dbb: 30 30        jr   nc,$7DED
7dbd: 18 18        jr   $7DD7
7dbf: 0c           inc  c
7dc0: 0c           inc  c
7dc1: 18 18        jr   $7DDB
7dc3: 18 78        jr   $7E3D
7dc5: 78           ld   a,b
7dc6: 00           nop
7dc7: 00           nop
7dc8: 00           nop
7dc9: 78           ld   a,b
7dca: 78           ld   a,b
7dcb: 18 18        jr   $7DE5
7dcd: 18 18        jr   $7DE7
7dcf: 18 18        jr   $7DE9
7dd1: 30 30        jr   nc,$7E03
7dd3: 60           ld   h,b
7dd4: 60           ld   h,b
7dd5: 00           nop
7dd6: 00           nop
7dd7: 00           nop
7dd8: 00           nop
7dd9: 03           inc  bc
7dda: 03           inc  bc
7ddb: 06 06        ld   b,$06
7ddd: 0c           inc  c
7dde: 0c           inc  c
7ddf: 18 18        jr   $7DF9
7de1: 0c           inc  c
7de2: 0c           inc  c
7de3: 0c           inc  c
7de4: 0f           rrca
7de5: 0f           rrca
7de6: 00           nop
7de7: 00           nop
7de8: 00           nop
7de9: 0f           rrca
7dea: 0f           rrca
7deb: 0c           inc  c
7dec: 0c           inc  c
7ded: 0c           inc  c
7dee: 0c           inc  c
7def: 0c           inc  c
7df0: 0c           inc  c
7df1: 00           nop
7df2: 00           nop
7df3: 00           nop
7df4: 00           nop
7df5: 00           nop
7df6: 00           nop
7df7: 00           nop
7df8: 00           nop
7df9: 08           ex   af,af'
7dfa: 1c           inc  e
7dfb: 36 63        ld   (hl),$63
7dfd: 41           ld   b,c
7dfe: 00           nop
7dff: 00           nop
7e00: 00           nop
7e01: 00           nop
7e02: 00           nop
7e03: 00           nop
7e04: 00           nop
7e05: 00           nop
7e06: ff           rst  $38
7e07: ff           rst  $38
7e08: 00           nop
7e09: 00           nop
7e0a: 00           nop
7e0b: 00           nop
7e0c: 00           nop
7e0d: 00           nop
7e0e: 00           nop
7e0f: 00           nop
7e10: 00           nop
7e11: 00           nop
7e12: 00           nop
7e13: 00           nop
7e14: 00           nop
7e15: 00           nop
7e16: 00           nop
7e17: 00           nop
7e18: 00           nop
7e19: 38 38        jr   c,$7E53
7e1b: 18 30        jr   $7E4D
7e1d: 60           ld   h,b
7e1e: 00           nop
7e1f: 00           nop
7e20: 00           nop
7e21: 33           inc  sp
7e22: 33           inc  sp
7e23: 3f           ccf
7e24: 5e           ld   e,(hl)
7e25: 00           nop
7e26: 00           nop
7e27: 00           nop
7e28: 00           nop
7e29: 00           nop
7e2a: 00           nop
7e2b: 00           nop
7e2c: 1e 3e        ld   e,$3E
7e2e: 30 3e        jr   nc,$7E6E
7e30: 3f           ccf
7e31: 66           ld   h,(hl)
7e32: 66           ld   h,(hl)
7e33: 3e 1a        ld   a,$1A
7e35: 00           nop
7e36: 00           nop
7e37: 00           nop
7e38: 00           nop
7e39: 06 06        ld   b,$06
7e3b: 06 1e        ld   b,$1E
7e3d: 3e 66        ld   a,$66
7e3f: 66           ld   h,(hl)
7e40: 66           ld   h,(hl)
7e41: 03           inc  bc
7e42: 63           ld   h,e
7e43: 3e 1c        ld   a,$1C
7e45: 00           nop
7e46: 00           nop
7e47: 00           nop
7e48: 00           nop
7e49: 00           nop
7e4a: 00           nop
7e4b: 00           nop
7e4c: 1c           inc  e
7e4d: 3e 63        ld   a,$63
7e4f: 03           inc  bc
7e50: 03           inc  bc
7e51: 66           ld   h,(hl)
7e52: 66           ld   h,(hl)
7e53: 7c           ld   a,h
7e54: 58           ld   e,b
7e55: 00           nop
7e56: 00           nop
7e57: 00           nop
7e58: 00           nop
7e59: 60           ld   h,b
7e5a: 60           ld   h,b
7e5b: 60           ld   h,b
7e5c: 78           ld   a,b
7e5d: 7c           ld   a,h
7e5e: 66           ld   h,(hl)
7e5f: 66           ld   h,(hl)
7e60: 66           ld   h,(hl)
7e61: 03           inc  bc
7e62: 63           ld   h,e
7e63: 3e 1c        ld   a,$1C
7e65: 00           nop
7e66: 00           nop
7e67: 00           nop
7e68: 00           nop
7e69: 00           nop
7e6a: 00           nop
7e6b: 00           nop
7e6c: 1c           inc  e
7e6d: 3e 63        ld   a,$63
7e6f: 63           ld   h,e
7e70: 7f           ld   a,a
7e71: 18 18        jr   $7E8B
7e73: 18 18        jr   $7E8D
7e75: 00           nop
7e76: 00           nop
7e77: 00           nop
7e78: 00           nop
7e79: 30 78        jr   nc,$7EF3
7e7b: 18 18        jr   $7E95
7e7d: 3c           inc  a
7e7e: 3c           inc  a
7e7f: 18 18        jr   $7E99
7e81: 06 3e        ld   b,$3E
7e83: 7f           ld   a,a
7e84: 63           ld   h,e
7e85: 7f           ld   a,a
7e86: 3e 00        ld   a,$00
7e88: 00           nop
7e89: 00           nop
7e8a: 00           nop
7e8b: 40           ld   b,b
7e8c: 5c           ld   e,h
7e8d: 3e 22        ld   a,$22
7e8f: 3e 1c        ld   a,$1C
7e91: 33           inc  sp
7e92: 33           inc  sp
7e93: 33           inc  sp
7e94: 33           inc  sp
7e95: 00           nop
7e96: 00           nop
7e97: 00           nop
7e98: 00           nop
7e99: 03           inc  bc
7e9a: 03           inc  bc
7e9b: 03           inc  bc
7e9c: 1f           rra
7e9d: 3f           ccf
7e9e: 33           inc  sp
7e9f: 33           inc  sp
7ea0: 33           inc  sp
7ea1: 18 18        jr   $7EBB
7ea3: 18 18        jr   $7EBD
7ea5: 00           nop
7ea6: 00           nop
7ea7: 00           nop
7ea8: 00           nop
7ea9: 18 18        jr   $7EC3
7eab: 00           nop
7eac: 18 18        jr   $7EC6
7eae: 18 18        jr   $7EC8
7eb0: 18 30        jr   $7EE2
7eb2: 30 36        jr   nc,$7EEA
7eb4: 3e 1c        ld   a,$1C
7eb6: 00           nop
7eb7: 00           nop
7eb8: 00           nop
7eb9: 30 00        jr   nc,$7EBB
7ebb: 00           nop
7ebc: 30 30        jr   nc,$7EEE
7ebe: 30 30        jr   nc,$7EF0
7ec0: 30 1e        jr   nc,$7EE0
7ec2: 36 66        ld   (hl),$66
7ec4: 46           ld   b,(hl)
7ec5: 00           nop
7ec6: 00           nop
7ec7: 00           nop
7ec8: 00           nop
7ec9: 06 06        ld   b,$06
7ecb: 46           ld   b,(hl)
7ecc: 66           ld   h,(hl)
7ecd: 36 1e        ld   (hl),$1E
7ecf: 0e 0e        ld   c,$0E
7ed1: 18 18        jr   $7EEB
7ed3: 3c           inc  a
7ed4: 3c           inc  a
7ed5: 00           nop
7ed6: 00           nop
7ed7: 00           nop
7ed8: 00           nop
7ed9: 1c           inc  e
7eda: 1c           inc  e
7edb: 18 18        jr   $7EF5
7edd: 18 18        jr   $7EF7
7edf: 18 18        jr   $7EF9
7ee1: 6b           ld   l,e
7ee2: 6b           ld   l,e
7ee3: 6b           ld   l,e
7ee4: 6b           ld   l,e
7ee5: 00           nop
7ee6: 00           nop
7ee7: 00           nop
7ee8: 00           nop
7ee9: 00           nop
7eea: 00           nop
7eeb: 00           nop
7eec: 36 7f        ld   (hl),$7F
7eee: 6b           ld   l,e
7eef: 6b           ld   l,e
7ef0: 6b           ld   l,e
7ef1: 66           ld   h,(hl)
7ef2: 66           ld   h,(hl)
7ef3: 66           ld   h,(hl)
7ef4: 66           ld   h,(hl)
7ef5: 00           nop
7ef6: 00           nop
7ef7: 00           nop
7ef8: 00           nop
7ef9: 00           nop
7efa: 00           nop
7efb: 00           nop
7efc: 3a 7e 66     ld   a,($667E)
7eff: 66           ld   h,(hl)
7f00: 66           ld   h,(hl)
7f01: 63           ld   h,e
7f02: 63           ld   h,e
7f03: 3e 1c        ld   a,$1C
7f05: 00           nop
7f06: 00           nop
7f07: 00           nop
7f08: 00           nop
7f09: 00           nop
7f0a: 00           nop
7f0b: 00           nop
7f0c: 1c           inc  e
7f0d: 3e 63        ld   a,$63
7f0f: 63           ld   h,e
7f10: 63           ld   h,e
7f11: 63           ld   h,e
7f12: 63           ld   h,e
7f13: 3f           ccf
7f14: 1f           rra
7f15: 03           inc  bc
7f16: 03           inc  bc
7f17: 03           inc  bc
7f18: 00           nop
7f19: 00           nop
7f1a: 00           nop
7f1b: 00           nop
7f1c: 1d           dec  e
7f1d: 3f           ccf
7f1e: 63           ld   h,e
7f1f: 63           ld   h,e
7f20: 63           ld   h,e
7f21: 63           ld   h,e
7f22: 63           ld   h,e
7f23: 7e           ld   a,(hl)
7f24: 7c           ld   a,h
7f25: 60           ld   h,b
7f26: 60           ld   h,b
7f27: 60           ld   h,b
7f28: 00           nop
7f29: 00           nop
7f2a: 00           nop
7f2b: 00           nop
7f2c: 5c           ld   e,h
7f2d: 7e           ld   a,(hl)
7f2e: 63           ld   h,e
7f2f: 63           ld   h,e
7f30: 63           ld   h,e
7f31: 06 06        ld   b,$06
7f33: 06 06        ld   b,$06
7f35: 00           nop
7f36: 00           nop
7f37: 00           nop
7f38: 00           nop
7f39: 00           nop
7f3a: 00           nop
7f3b: 00           nop
7f3c: 36 7e        ld   (hl),$7E
7f3e: 0e 06        ld   c,$06
7f40: 06 60        ld   b,$60
7f42: 60           ld   h,b
7f43: 7e           ld   a,(hl)
7f44: 3c           inc  a
7f45: 00           nop
7f46: 00           nop
7f47: 00           nop
7f48: 00           nop
7f49: 00           nop
7f4a: 00           nop
7f4b: 00           nop
7f4c: 3c           inc  a
7f4d: 7e           ld   a,(hl)
7f4e: 06 1c        ld   b,$1C
7f50: 38 0c        jr   c,$7F5E
7f52: 2c           inc  l
7f53: 3c           inc  a
7f54: 18 00        jr   $7F56
7f56: 00           nop
7f57: 00           nop
7f58: 00           nop
7f59: 0c           inc  c
7f5a: 0c           inc  c
7f5b: 0c           inc  c
7f5c: 1e 1e        ld   e,$1E
7f5e: 0c           inc  c
7f5f: 0c           inc  c
7f60: 0c           inc  c
7f61: 66           ld   h,(hl)
7f62: 66           ld   h,(hl)
7f63: 7e           ld   a,(hl)
7f64: bc           cp   h
7f65: 00           nop
7f66: 00           nop
7f67: 00           nop
7f68: 00           nop
7f69: 00           nop
7f6a: 00           nop
7f6b: 00           nop
7f6c: 66           ld   h,(hl)
7f6d: 66           ld   h,(hl)
7f6e: 66           ld   h,(hl)
7f6f: 66           ld   h,(hl)
7f70: 66           ld   h,(hl)
7f71: 1c           inc  e
7f72: 1c           inc  e
7f73: 08           ex   af,af'
7f74: 08           ex   af,af'
7f75: 00           nop
7f76: 00           nop
7f77: 00           nop
7f78: 00           nop
7f79: 00           nop
7f7a: 00           nop
7f7b: 00           nop
7f7c: 63           ld   h,e
7f7d: 63           ld   h,e
7f7e: 63           ld   h,e
7f7f: 36 36        ld   (hl),$36
7f81: 77           ld   (hl),a
7f82: 36 36        ld   (hl),$36
7f84: 36 00        ld   (hl),$00
7f86: 00           nop
7f87: 00           nop
7f88: 00           nop
7f89: 00           nop
7f8a: 00           nop
7f8b: 00           nop
7f8c: 63           ld   h,e
7f8d: 63           ld   h,e
7f8e: 6b           ld   l,e
7f8f: 6b           ld   l,e
7f90: 7f           ld   a,a
7f91: 3c           inc  a
7f92: 3c           inc  a
7f93: 66           ld   h,(hl)
7f94: 66           ld   h,(hl)
7f95: 00           nop
7f96: 00           nop
7f97: 00           nop
7f98: 00           nop
7f99: 00           nop
7f9a: 00           nop
7f9b: 00           nop
7f9c: 66           ld   h,(hl)
7f9d: 66           ld   h,(hl)
7f9e: 7e           ld   a,(hl)
7f9f: 3c           inc  a
7fa0: 18 3c        jr   $7FDE
7fa2: 18 18        jr   $7FBC
7fa4: 18 0c        jr   $7FB2
7fa6: 0c           inc  c
7fa7: 06 00        ld   b,$00
7fa9: 00           nop
7faa: 00           nop
7fab: 00           nop
7fac: 63           ld   h,e
7fad: 63           ld   h,e
7fae: 76           halt
7faf: 36 3c        ld   (hl),$3C
7fb1: 06 03        ld   b,$03
7fb3: 3f           ccf
7fb4: 3f           ccf
7fb5: 00           nop
7fb6: 00           nop
7fb7: 00           nop
7fb8: 00           nop
7fb9: 00           nop
7fba: 00           nop
7fbb: 00           nop
7fbc: 3f           ccf
7fbd: 3f           ccf
7fbe: 30 18        jr   nc,$7FD8
7fc0: 0c           inc  c
7fc1: 30 30        jr   nc,$7FF3
7fc3: 30 70        jr   nc,$8035
7fc5: 60           ld   h,b
7fc6: 00           nop
7fc7: 00           nop
7fc8: 00           nop
7fc9: 60           ld   h,b
7fca: 70           ld   (hl),b
7fcb: 30 30        jr   nc,$7FFD
7fcd: 30 30        jr   nc,$7FFF
7fcf: 0c           inc  c
7fd0: 30 18        jr   nc,$7FEA
7fd2: 18 18        jr   $7FEC
7fd4: 18 18        jr   $7FEE
7fd6: 00           nop
7fd7: 00           nop
7fd8: 00           nop
7fd9: 18 18        jr   $7FF3
7fdb: 18 18        jr   $7FF5
7fdd: 18 00        jr   $7FDF
7fdf: 00           nop
7fe0: 00           nop
7fe1: 06 06        ld   b,$06
7fe3: 06 07        ld   b,$07
7fe5: 03           inc  bc
7fe6: 00           nop
7fe7: 00           nop
7fe8: 00           nop
7fe9: 03           inc  bc
7fea: 07           rlca
7feb: 06 06        ld   b,$06
7fed: 06 06        ld   b,$06
7fef: 18 06        jr   $7FF7
7ff1: 00           nop
7ff2: 00           nop
7ff3: 00           nop
7ff4: 00           nop
7ff5: 00           nop
7ff6: 00           nop
7ff7: 00           nop
7ff8: 00           nop
7ff9: 06 4f        ld   b,$4F
7ffb: 79           ld   a,c
7ffc: 30 00        jr   nc,$7FFE
7ffe: 00           nop
7fff: 00           nop
8000: 00           nop
8001: 8c           adc  a,h
8002: f8           ret  m
8003: 00           nop
8004: 00           nop
8005: 00           nop
8006: 00           nop
8007: 00           nop
8008: 00           nop
8009: 00           nop
800a: 00           nop
800b: 00           nop
800c: f8           ret  m
800d: 8c           adc  a,h
800e: 52           ld   d,d
800f: 21 52 f5     ld   hl,$F552
8012: 3a 5d 83     ld   a,($835D)
8015: fe ff        cp   $FF
8017: 28 03        jr   z,$801C
8019: f1           pop  af
801a: af           xor  a
801b: c9           ret
801c: 3e ff        ld   a,$FF
801e: 32 54 12     ld   ($1254),a
8021: f1           pop  af
8022: 08           ex   af,af'
8023: 3a 62 69     ld   a,($6962)
8026: b8           cp   b
8027: da 3c 69     jp   c,$693C
802a: 78           ld   a,b
802b: 80           add  a,b
802c: d9           exx
802d: 5f           ld   e,a
802e: 16 00        ld   d,$00
8030: 21 3e 69     ld   hl,$693E
8033: 19           add  hl,de
8034: 7e           ld   a,(hl)
8035: 23           inc  hl
8036: 66           ld   h,(hl)
8037: 6f           ld   l,a
8038: e5           push hl
8039: d9           exx
803a: 08           ex   af,af'
803b: c9           ret
803c: af           xor  a
803d: c9           ret
803e: 63           ld   h,e
803f: 69           ld   l,c
8040: 6f           ld   l,a
8041: 69           ld   l,c
8042: 1e 6a        ld   e,$6A
8044: 26 6a        ld   h,$6A
8046: 83           add  a,e
8047: 6d           ld   l,l
8048: ec 70 28     call pe,$2870
804b: 78           ld   a,b
804c: b4           or   h
804d: 7a           ld   a,d
804e: d3 7c        out  ($7C),a
8050: 1c           inc  e
8051: 7d           ld   a,l
8052: d2 7d de     jp   nc,$DE7D
8055: 7f           ld   a,a
8056: 85           add  a,l
8057: 69           ld   l,c
8058: 91           sub  c
8059: 69           ld   l,c
805a: 9b           sbc  a,e
805b: 69           ld   l,c
805c: 48           ld   c,b
805d: 81           add  a,c
805e: 4e           ld   c,(hl)
805f: 81           add  a,c
8060: 54           ld   d,h
8061: 81           add  a,c
8062: 12           ld   (de),a
8063: 7d           ld   a,l
8064: e6 03        and  $03
8066: 32 39 81     ld   ($8139),a
8069: f6 20        or   $20
806b: cd 14 82     call $8214
806e: c9           ret
806f: cd bf 69     call $69BF
8072: 22 08 83     ld   ($8308),hl
8075: 32 0a 83     ld   ($830A),a
8078: 3a 39 81     ld   a,($8139)
807b: cd 66 69     call $6966
807e: 21 05 83     ld   hl,$8305
8081: cd 82 81     call $8182
8084: c9           ret
8085: 3a c4 4f     ld   a,($4FC4)
8088: b7           or   a
8089: c8           ret  z
808a: 7d           ld   a,l
808b: e6 07        and  $07
808d: 32 6c 83     ld   ($836C),a
8090: c9           ret
8091: 22 85 82     ld   ($8285),hl
8094: 22 9c 82     ld   ($829C),hl
8097: 22 b5 82     ld   ($82B5),hl
809a: c9           ret
809b: 3a 65 f0     ld   a,($F065)
809e: 4f           ld   c,a
809f: 06 00        ld   b,$00
80a1: e5           push hl
80a2: cd 9b f3     call $F39B
80a5: e1           pop  hl
80a6: 01 08 00     ld   bc,$0008
80a9: 11 b7 69     ld   de,$69B7
80ac: cd a5 f3     call $F3A5
80af: 11 b7 69     ld   de,$69B7
80b2: ed 53 a7 7c  ld   ($7CA7),de
80b6: c9           ret
80b7: 00           nop
80b8: 00           nop
80b9: 00           nop
80ba: 00           nop
80bb: 00           nop
80bc: 00           nop
80bd: 00           nop
80be: 00           nop
80bf: 22 79 83     ld   ($8379),hl
80c2: ed 53 7b 83  ld   ($837B),de
80c6: 3a f9 54     ld   a,($54F9)
80c9: cb 5f        bit  3,a
80cb: c2 0f 6a     jp   nz,$6A0F
80ce: 2a 7b 83     ld   hl,($837B)
80d1: 29           add  hl,hl
80d2: 29           add  hl,hl
80d3: e5           push hl
80d4: 29           add  hl,hl
80d5: 29           add  hl,hl
80d6: c1           pop  bc
80d7: 09           add  hl,bc
80d8: 29           add  hl,hl
80d9: cb 4f        bit  1,a
80db: 20 01        jr   nz,$80DE
80dd: 29           add  hl,hl
80de: e5           push hl
80df: ed 4b 79 83  ld   bc,($8379)
80e3: 79           ld   a,c
80e4: e6 0f        and  $0F
80e6: cb 27        sla  a
80e8: cb 27        sla  a
80ea: cb 27        sla  a
80ec: cb 27        sla  a
80ee: 32 40 82     ld   ($8240),a
80f1: 78           ld   a,b
80f2: 21 7d 83     ld   hl,$837D
80f5: 71           ld   (hl),c
80f6: ed 67        rrd  (hl)
80f8: 4e           ld   c,(hl)
80f9: cb 38        srl  b
80fb: cb 38        srl  b
80fd: cb 38        srl  b
80ff: cb 38        srl  b
8101: e1           pop  hl
8102: 09           add  hl,bc
8103: eb           ex   de,hl
8104: 2a 5e 83     ld   hl,($835E)
8107: 19           add  hl,de
8108: 22 3e 82     ld   ($823E),hl
810b: 3a 40 82     ld   a,($8240)
810e: c9           ret
810f: 3a f5 54     ld   a,($54F5)
8112: cb 3f        srl  a
8114: ed 5b 7b 83  ld   de,($837B)
8118: cd e2 8a     call $8AE2
811b: c2 de 69     jp   nz,$69DE
811e: 2a 79 83     ld   hl,($8379)
8121: ed 5b 7b 83  ld   de,($837B)
8125: c9           ret
8126: 3e 80        ld   a,$80
8128: a4           and  h
8129: c0           ret  nz
812a: 3e 80        ld   a,$80
812c: a2           and  d
812d: c0           ret  nz
812e: e5           push hl
812f: dd e5        push ix
8131: e1           pop  hl
8132: 3e 80        ld   a,$80
8134: a4           and  h
8135: c2 59 6a     jp   nz,$6A59
8138: fd e5        push iy
813a: e1           pop  hl
813b: 3e 80        ld   a,$80
813d: a4           and  h
813e: c2 59 6a     jp   nz,$6A59
8141: e1           pop  hl
8142: cd 76 6b     call $6B76
8145: b7           or   a
8146: c0           ret  nz
8147: dd e5        push ix
8149: fd e5        push iy
814b: cd bf 69     call $69BF
814e: 22 80 82     ld   ($8280),hl
8151: 32 82 82     ld   ($8282),a
8154: d1           pop  de
8155: e1           pop  hl
8156: c3 5b 6a     jp   $6A5B
8159: e1           pop  hl
815a: c9           ret
815b: 22 71 6b     ld   ($6B71),hl
815e: ed 53 73 6b  ld   ($6B73),de
8162: d5           push de
8163: af           xor  a
8164: 32 75 6b     ld   ($6B75),a
8167: ed 5b 79 83  ld   de,($8379)
816b: cd 70 6d     call $6D70
816e: 22 69 6b     ld   ($6B69),hl
8171: fa 7c 6a     jp   m,$6A7C
8174: 3a 75 6b     ld   a,($6B75)
8177: f6 02        or   $02
8179: 32 75 6b     ld   ($6B75),a
817c: ed 5b 7b 83  ld   de,($837B)
8180: e1           pop  hl
8181: cd 70 6d     call $6D70
8184: 22 6b 6b     ld   ($6B6B),hl
8187: fa 92 6a     jp   m,$6A92
818a: 3a 75 6b     ld   a,($6B75)
818d: f6 01        or   $01
818f: 32 75 6b     ld   ($6B75),a
8192: 2a 69 6b     ld   hl,($6B69)
8195: 7c           ld   a,h
8196: e6 80        and  $80
8198: 28 07        jr   z,$81A1
819a: 2b           dec  hl
819b: 7c           ld   a,h
819c: 2f           cpl
819d: 67           ld   h,a
819e: 7d           ld   a,l
819f: 2f           cpl
81a0: 6f           ld   l,a
81a1: 22 6d 6b     ld   ($6B6D),hl
81a4: ed 5b 6b 6b  ld   de,($6B6B)
81a8: 7a           ld   a,d
81a9: e6 80        and  $80
81ab: 28 07        jr   z,$81B4
81ad: 1b           dec  de
81ae: 7a           ld   a,d
81af: 2f           cpl
81b0: 57           ld   d,a
81b1: 7b           ld   a,e
81b2: 2f           cpl
81b3: 5f           ld   e,a
81b4: ed 53 6f 6b  ld   ($6B6F),de
81b8: cd 70 6d     call $6D70
81bb: fa c9 6a     jp   m,$6AC9
81be: ca 1c 6b     jp   z,$6B1C
81c1: 3a 75 6b     ld   a,($6B75)
81c4: f6 04        or   $04
81c6: 32 75 6b     ld   ($6B75),a
81c9: 3a 75 6b     ld   a,($6B75)
81cc: 16 00        ld   d,$00
81ce: 5f           ld   e,a
81cf: 21 59 6b     ld   hl,$6B59
81d2: 19           add  hl,de
81d3: 19           add  hl,de
81d4: 7e           ld   a,(hl)
81d5: f6 08        or   $08
81d7: 32 89 82     ld   ($8289),a
81da: 23           inc  hl
81db: 3e 58        ld   a,$58
81dd: be           cp   (hl)
81de: ca 4f 6b     jp   z,$6B4F
81e1: 2a 6f 6b     ld   hl,($6B6F)
81e4: ed 5b 6d 6b  ld   de,($6B6D)
81e8: e5           push hl
81e9: 2b           dec  hl
81ea: 3a c5 4f     ld   a,($4FC5)
81ed: b4           or   h
81ee: 67           ld   h,a
81ef: 22 8a 82     ld   ($828A),hl
81f2: e1           pop  hl
81f3: eb           ex   de,hl
81f4: e5           push hl
81f5: d5           push de
81f6: 29           add  hl,hl
81f7: 22 90 82     ld   ($8290),hl
81fa: cd 70 6d     call $6D70
81fd: 22 8c 82     ld   ($828C),hl
8200: d1           pop  de
8201: e1           pop  hl
8202: cd 70 6d     call $6D70
8205: 29           add  hl,hl
8206: 22 8e 82     ld   ($828E),hl
8209: 21 7d 82     ld   hl,$827D
820c: cd 82 81     call $8182
820f: 2a 71 6b     ld   hl,($6B71)
8212: 22 79 83     ld   ($8379),hl
8215: 2a 73 6b     ld   hl,($6B73)
8218: 22 7b 83     ld   ($837B),hl
821b: c9           ret
821c: 2a 69 6b     ld   hl,($6B69)
821f: 7c           ld   a,h
8220: b5           or   l
8221: 20 06        jr   nz,$8229
8223: 2a 6b 6b     ld   hl,($6B6B)
8226: 7c           ld   a,h
8227: b5           or   l
8228: c8           ret  z
8229: 3a 75 6b     ld   a,($6B75)
822c: 16 00        ld   d,$00
822e: 5f           ld   e,a
822f: 21 59 6b     ld   hl,$6B59
8232: 19           add  hl,de
8233: 19           add  hl,de
8234: 7e           ld   a,(hl)
8235: f6 01        or   $01
8237: f6 08        or   $08
8239: 32 89 82     ld   ($8289),a
823c: 3a 75 6b     ld   a,($6B75)
823f: e6 04        and  $04
8241: 21 4e 6b     ld   hl,$6B4E
8244: c2 db 6a     jp   nz,$6ADB
8247: 21 4d 6b     ld   hl,$6B4D
824a: c3 db 6a     jp   $6ADB
824d: 59           ld   e,c
824e: 58           ld   e,b
824f: 2a 6d 6b     ld   hl,($6B6D)
8252: ed 5b 6f 6b  ld   de,($6B6F)
8256: c3 e8 6a     jp   $6AE8
8259: 04           inc  b
825a: 59           ld   e,c
825b: 07           rlca
825c: 59           ld   e,c
825d: 03           inc  bc
825e: 59           ld   e,c
825f: 00           nop
8260: 59           ld   e,c
8261: 05           dec  b
8262: 58           ld   e,b
8263: 06 58        ld   b,$58
8265: 02           ld   (bc),a
8266: 58           ld   e,b
8267: 01 58 00     ld   bc,$0058
826a: 00           nop
826b: 00           nop
826c: 00           nop
826d: 00           nop
826e: 00           nop
826f: 00           nop
8270: 00           nop
8271: 00           nop
8272: 00           nop
8273: 00           nop
8274: 00           nop
8275: 00           nop
8276: 22 57 6d     ld   ($6D57),hl
8279: ed 53 59 6d  ld   ($6D59),de
827d: dd 22 5b 6d  ld   ($6D5B),ix
8281: fd 22 5d 6d  ld   ($6D5D),iy
8285: 2a 57 6d     ld   hl,($6D57)
8288: ed 5b 59 6d  ld   de,($6D59)
828c: cd db 6b     call $6BDB
828f: 32 5f 6d     ld   ($6D5F),a
8292: 2a 5b 6d     ld   hl,($6D5B)
8295: ed 5b 5d 6d  ld   de,($6D5D)
8299: cd db 6b     call $6BDB
829c: 32 60 6d     ld   ($6D60),a
829f: 47           ld   b,a
82a0: 3a 5f 6d     ld   a,($6D5F)
82a3: b0           or   b
82a4: ca ca 6b     jp   z,$6BCA
82a7: 3a 5f 6d     ld   a,($6D5F)
82aa: a0           and  b
82ab: c0           ret  nz
82ac: 3a 5f 6d     ld   a,($6D5F)
82af: 47           ld   b,a
82b0: e6 01        and  $01
82b2: c2 fb 6b     jp   nz,$6BFB
82b5: 78           ld   a,b
82b6: e6 02        and  $02
82b8: c2 31 6c     jp   nz,$6C31
82bb: 3a 60 6d     ld   a,($6D60)
82be: 47           ld   b,a
82bf: e6 01        and  $01
82c1: c2 67 6c     jp   nz,$6C67
82c4: 78           ld   a,b
82c5: e6 02        and  $02
82c7: c2 9d 6c     jp   nz,$6C9D
82ca: 2a 57 6d     ld   hl,($6D57)
82cd: ed 5b 59 6d  ld   de,($6D59)
82d1: dd 2a 5b 6d  ld   ix,($6D5B)
82d5: fd 2a 5d 6d  ld   iy,($6D5D)
82d9: af           xor  a
82da: c9           ret
82db: e5           push hl
82dc: d5           push de
82dd: af           xor  a
82de: d5           push de
82df: ed 5b 66 83  ld   de,($8366)
82e3: eb           ex   de,hl
82e4: cd 70 6d     call $6D70
82e7: f2 ec 6b     jp   p,$6BEC
82ea: 3e 01        ld   a,$01
82ec: d1           pop  de
82ed: 2a 68 83     ld   hl,($8368)
82f0: cd 70 6d     call $6D70
82f3: f2 f8 6b     jp   p,$6BF8
82f6: cb cf        set  1,a
82f8: d1           pop  de
82f9: e1           pop  hl
82fa: c9           ret
82fb: 2a 59 6d     ld   hl,($6D59)
82fe: 22 62 6d     ld   ($6D62),hl
8301: 22 66 6d     ld   ($6D66),hl
8304: 2a 5d 6d     ld   hl,($6D5D)
8307: 22 64 6d     ld   ($6D64),hl
830a: 2a 66 83     ld   hl,($8366)
830d: 22 68 6d     ld   ($6D68),hl
8310: 2a 57 6d     ld   hl,($6D57)
8313: 22 6a 6d     ld   ($6D6A),hl
8316: 22 6e 6d     ld   ($6D6E),hl
8319: 2a 5b 6d     ld   hl,($6D5B)
831c: 22 6c 6d     ld   ($6D6C),hl
831f: cd d3 6c     call $6CD3
8322: 2a 62 6d     ld   hl,($6D62)
8325: 22 59 6d     ld   ($6D59),hl
8328: 2a 66 83     ld   hl,($8366)
832b: 22 57 6d     ld   ($6D57),hl
832e: c3 85 6b     jp   $6B85
8331: 2a 57 6d     ld   hl,($6D57)
8334: 22 62 6d     ld   ($6D62),hl
8337: 22 66 6d     ld   ($6D66),hl
833a: 2a 5b 6d     ld   hl,($6D5B)
833d: 22 64 6d     ld   ($6D64),hl
8340: 2a 68 83     ld   hl,($8368)
8343: 22 68 6d     ld   ($6D68),hl
8346: 2a 59 6d     ld   hl,($6D59)
8349: 22 6a 6d     ld   ($6D6A),hl
834c: 22 6e 6d     ld   ($6D6E),hl
834f: 2a 5d 6d     ld   hl,($6D5D)
8352: 22 6c 6d     ld   ($6D6C),hl
8355: cd d3 6c     call $6CD3
8358: 2a 62 6d     ld   hl,($6D62)
835b: 22 57 6d     ld   ($6D57),hl
835e: 2a 68 83     ld   hl,($8368)
8361: 22 59 6d     ld   ($6D59),hl
8364: c3 85 6b     jp   $6B85
8367: 2a 5d 6d     ld   hl,($6D5D)
836a: 22 62 6d     ld   ($6D62),hl
836d: 22 66 6d     ld   ($6D66),hl
8370: 2a 59 6d     ld   hl,($6D59)
8373: 22 64 6d     ld   ($6D64),hl
8376: 2a 66 83     ld   hl,($8366)
8379: 22 68 6d     ld   ($6D68),hl
837c: 2a 5b 6d     ld   hl,($6D5B)
837f: 22 6a 6d     ld   ($6D6A),hl
8382: 22 6e 6d     ld   ($6D6E),hl
8385: 2a 57 6d     ld   hl,($6D57)
8388: 22 6c 6d     ld   ($6D6C),hl
838b: cd d3 6c     call $6CD3
838e: 2a 62 6d     ld   hl,($6D62)
8391: 22 5d 6d     ld   ($6D5D),hl
8394: 2a 66 83     ld   hl,($8366)
8397: 22 5b 6d     ld   ($6D5B),hl
839a: c3 85 6b     jp   $6B85
839d: 2a 5b 6d     ld   hl,($6D5B)
83a0: 22 62 6d     ld   ($6D62),hl
83a3: 22 66 6d     ld   ($6D66),hl
83a6: 2a 57 6d     ld   hl,($6D57)
83a9: 22 64 6d     ld   ($6D64),hl
83ac: 2a 68 83     ld   hl,($8368)
83af: 22 68 6d     ld   ($6D68),hl
83b2: 2a 5d 6d     ld   hl,($6D5D)
83b5: 22 6a 6d     ld   ($6D6A),hl
83b8: 22 6e 6d     ld   ($6D6E),hl
83bb: 2a 59 6d     ld   hl,($6D59)
83be: 22 6c 6d     ld   ($6D6C),hl
83c1: cd d3 6c     call $6CD3
83c4: 2a 62 6d     ld   hl,($6D62)
83c7: 22 5b 6d     ld   ($6D5B),hl
83ca: 2a 68 83     ld   hl,($8368)
83cd: 22 5d 6d     ld   ($6D5D),hl
83d0: c3 85 6b     jp   $6B85
83d3: af           xor  a
83d4: 32 61 6d     ld   ($6D61),a
83d7: 2a 64 6d     ld   hl,($6D64)
83da: ed 5b 66 6d  ld   de,($6D66)
83de: ed 52        sbc  hl,de
83e0: f2 f0 6c     jp   p,$6CF0
83e3: 3e 01        ld   a,$01
83e5: f5           push af
83e6: 2b           dec  hl
83e7: 7c           ld   a,h
83e8: 2f           cpl
83e9: 67           ld   h,a
83ea: 7d           ld   a,l
83eb: 2f           cpl
83ec: 6f           ld   l,a
83ed: f1           pop  af
83ee: 37           scf
83ef: 3f           ccf
83f0: e5           push hl
83f1: 2a 68 6d     ld   hl,($6D68)
83f4: ed 5b 6a 6d  ld   de,($6D6A)
83f8: ed 52        sbc  hl,de
83fa: f2 0c 6d     jp   p,$6D0C
83fd: f5           push af
83fe: 2b           dec  hl
83ff: 7c           ld   a,h
8400: 2f           cpl
8401: 67           ld   h,a
8402: 7d           ld   a,l
8403: 2f           cpl
8404: 6f           ld   l,a
8405: f1           pop  af
8406: 37           scf
8407: 3f           ccf
8408: ee 01        xor  $01
840a: 44           ld   b,h
840b: 4d           ld   c,l
840c: b7           or   a
840d: 28 05        jr   z,$8414
840f: 3e 01        ld   a,$01
8411: 32 61 6d     ld   ($6D61),a
8414: cd 5f 86     call $865F
8417: e5           push hl
8418: d5           push de
8419: af           xor  a
841a: 2a 6c 6d     ld   hl,($6D6C)
841d: ed 5b 6e 6d  ld   de,($6D6E)
8421: ed 52        sbc  hl,de
8423: f2 33 6d     jp   p,$6D33
8426: f5           push af
8427: 2b           dec  hl
8428: 7c           ld   a,h
8429: 2f           cpl
842a: 67           ld   h,a
842b: 7d           ld   a,l
842c: 2f           cpl
842d: 6f           ld   l,a
842e: f1           pop  af
842f: 37           scf
8430: 3f           ccf
8431: 3e 01        ld   a,$01
8433: 44           ld   b,h
8434: 4d           ld   c,l
8435: d1           pop  de
8436: e1           pop  hl
8437: f5           push af
8438: cd a9 87     call $87A9
843b: f1           pop  af
843c: eb           ex   de,hl
843d: e5           push hl
843e: 21 61 6d     ld   hl,$6D61
8441: ae           xor  (hl)
8442: e1           pop  hl
8443: 28 09        jr   z,$844E
8445: f5           push af
8446: 7c           ld   a,h
8447: 2f           cpl
8448: 67           ld   h,a
8449: 7d           ld   a,l
844a: 2f           cpl
844b: 6f           ld   l,a
844c: 23           inc  hl
844d: f1           pop  af
844e: ed 5b 62 6d  ld   de,($6D62)
8452: 19           add  hl,de
8453: 22 62 6d     ld   ($6D62),hl
8456: c9           ret
8457: 00           nop
8458: 00           nop
8459: 00           nop
845a: 00           nop
845b: 00           nop
845c: 00           nop
845d: 00           nop
845e: 00           nop
845f: 00           nop
8460: 00           nop
8461: 00           nop
8462: 00           nop
8463: 00           nop
8464: 00           nop
8465: 00           nop
8466: 00           nop
8467: 00           nop
8468: 00           nop
8469: 00           nop
846a: 00           nop
846b: 00           nop
846c: 00           nop
846d: 00           nop
846e: 00           nop
846f: 00           nop
8470: 32 82 6d     ld   ($6D82),a
8473: a7           and  a
8474: 7b           ld   a,e
8475: 2f           cpl
8476: 5f           ld   e,a
8477: 7a           ld   a,d
8478: 2f           cpl
8479: 57           ld   d,a
847a: 13           inc  de
847b: a7           and  a
847c: ed 5a        adc  hl,de
847e: 3a 82 6d     ld   a,($6D82)
8481: c9           ret
8482: 00           nop
8483: 3a 65 f0     ld   a,($F065)
8486: 4f           ld   c,a
8487: 06 00        ld   b,$00
8489: e5           push hl
848a: cd 9b f3     call $F39B
848d: 11 10 70     ld   de,$7010
8490: 01 0a 00     ld   bc,$000A
8493: e1           pop  hl
8494: cd a5 f3     call $F3A5
8497: af           xor  a
8498: 32 83 70     ld   ($7083),a
849b: 32 84 70     ld   ($7084),a
849e: cd a7 6f     call $6FA7
84a1: cd cf 6f     call $6FCF
84a4: 3a 83 70     ld   a,($7083)
84a7: 21 84 70     ld   hl,$7084
84aa: be           cp   (hl)
84ab: 20 14        jr   nz,$84C1
84ad: 2a 18 70     ld   hl,($7018)
84b0: ed 5b 16 70  ld   de,($7016)
84b4: 37           scf
84b5: 3f           ccf
84b6: ed 52        sbc  hl,de
84b8: 3e ff        ld   a,$FF
84ba: fa be 6d     jp   m,$6DBE
84bd: af           xor  a
84be: 32 8b 70     ld   ($708B),a
84c1: 2a 14 70     ld   hl,($7014)
84c4: 2b           dec  hl
84c5: 22 bc 82     ld   ($82BC),hl
84c8: af           xor  a
84c9: cb 24        sla  h
84cb: cb 25        sla  l
84cd: 8c           adc  a,h
84ce: 67           ld   h,a
84cf: 22 be 82     ld   ($82BE),hl
84d2: af           xor  a
84d3: 32 85 70     ld   ($7085),a
84d6: 21 30 6e     ld   hl,$6E30
84d9: 06 00        ld   b,$00
84db: 3a 83 70     ld   a,($7083)
84de: be           cp   (hl)
84df: 28 04        jr   z,$84E5
84e1: 04           inc  b
84e2: 23           inc  hl
84e3: 18 f9        jr   $84DE
84e5: 78           ld   a,b
84e6: 3d           dec  a
84e7: 32 86 70     ld   ($7086),a
84ea: 3a 85 70     ld   a,($7085)
84ed: b7           or   a
84ee: c2 2f 6e     jp   nz,$6E2F
84f1: 21 30 6e     ld   hl,$6E30
84f4: 3a 86 70     ld   a,($7086)
84f7: c6 01        add  a,$01
84f9: e6 03        and  $03
84fb: 32 86 70     ld   ($7086),a
84fe: 5f           ld   e,a
84ff: 16 00        ld   d,$00
8501: 19           add  hl,de
8502: 46           ld   b,(hl)
8503: 3a 84 70     ld   a,($7084)
8506: a8           xor  b
8507: c2 15 6e     jp   nz,$6E15
850a: 3a 8b 70     ld   a,($708B)
850d: b7           or   a
850e: 20 05        jr   nz,$8515
8510: 3e ff        ld   a,$FF
8512: 32 85 70     ld   ($7085),a
8515: 78           ld   a,b
8516: 32 82 70     ld   ($7082),a
8519: 3a 86 70     ld   a,($7086)
851c: cb 27        sla  a
851e: 5f           ld   e,a
851f: 16 00        ld   d,$00
8521: 21 1a 70     ld   hl,$701A
8524: 19           add  hl,de
8525: 5e           ld   e,(hl)
8526: 23           inc  hl
8527: 56           ld   d,(hl)
8528: eb           ex   de,hl
8529: cd 34 6e     call $6E34
852c: c3 ea 6d     jp   $6DEA
852f: c9           ret
8530: 03           inc  bc
8531: 00           nop
8532: 02           ld   (bc),a
8533: 01 22 c9     ld   bc,$C922
8536: 7d           ld   a,l
8537: e5           push hl
8538: dd e1        pop  ix
853a: af           xor  a
853b: 32 80 70     ld   ($7080),a
853e: 32 81 70     ld   ($7081),a
8541: 3a 82 70     ld   a,($7082)
8544: 21 84 70     ld   hl,$7084
8547: be           cp   (hl)
8548: 20 27        jr   nz,$8571
854a: 3a 8b 70     ld   a,($708B)
854d: b7           or   a
854e: 28 06        jr   z,$8556
8550: af           xor  a
8551: 32 8b 70     ld   ($708B),a
8554: 18 1b        jr   $8571
8556: dd 5e 05     ld   e,(ix+$05)
8559: dd 56 06     ld   d,(ix+$06)
855c: 2a 18 70     ld   hl,($7018)
855f: eb           ex   de,hl
8560: 37           scf
8561: 3f           ccf
8562: ed 52        sbc  hl,de
8564: 3e ff        ld   a,$FF
8566: f2 6e 6e     jp   p,$6E6E
8569: 32 81 70     ld   ($7081),a
856c: 18 03        jr   $8571
856e: 32 80 70     ld   ($7080),a
8571: 3a 8e 70     ld   a,($708E)
8574: b7           or   a
8575: 3e 00        ld   a,$00
8577: 32 8e 70     ld   ($708E),a
857a: 20 06        jr   nz,$8582
857c: 3a 80 70     ld   a,($7080)
857f: cd 98 6e     call $6E98
8582: 2a c9 7d     ld   hl,($7DC9)
8585: 11 0b 00     ld   de,$000B
8588: 19           add  hl,de
8589: e5           push hl
858a: dd e1        pop  ix
858c: 3a 80 70     ld   a,($7080)
858f: b7           or   a
8590: c0           ret  nz
8591: 3a 81 70     ld   a,($7081)
8594: cd 98 6e     call $6E98
8597: c9           ret
8598: b7           or   a
8599: ed 5b 18 70  ld   de,($7018)
859d: 20 06        jr   nz,$85A5
859f: dd 5e 05     ld   e,(ix+$05)
85a2: dd 56 06     ld   d,(ix+$06)
85a5: ed 53 7c 70  ld   ($707C),de
85a9: dd 7e 00     ld   a,(ix+$00)
85ac: 32 b9 82     ld   ($82B9),a
85af: dd 5e 01     ld   e,(ix+$01)
85b2: dd 56 02     ld   d,(ix+$02)
85b5: ed 53 7e 70  ld   ($707E),de
85b9: cd c9 6e     call $6EC9
85bc: cd 03 6f     call $6F03
85bf: cd 2b 6f     call $6F2B
85c2: cd 77 6f     call $6F77
85c5: cd 7e 6f     call $6F7E
85c8: c9           ret
85c9: dd 7e 03     ld   a,(ix+$03)
85cc: fe 03        cp   $03
85ce: 28 02        jr   z,$85D2
85d0: 18 0d        jr   $85DF
85d2: 2a 7e 70     ld   hl,($707E)
85d5: ed 5b 7a 70  ld   de,($707A)
85d9: 37           scf
85da: 3f           ccf
85db: ed 52        sbc  hl,de
85dd: 18 0b        jr   $85EA
85df: 2a 7c 70     ld   hl,($707C)
85e2: ed 5b 7e 70  ld   de,($707E)
85e6: 37           scf
85e7: 3f           ccf
85e8: ed 52        sbc  hl,de
85ea: cd 89 6f     call $6F89
85ed: e5           push hl
85ee: 21 7f 00     ld   hl,$007F
85f1: 37           scf
85f2: 3f           ccf
85f3: ed 52        sbc  hl,de
85f5: e1           pop  hl
85f6: f2 fa 6e     jp   p,$6EFA
85f9: 23           inc  hl
85fa: 3a c5 4f     ld   a,($4FC5)
85fd: b4           or   h
85fe: 67           ld   h,a
85ff: 22 ba 82     ld   ($82BA),hl
8602: c9           ret
8603: dd 7e 04     ld   a,(ix+$04)
8606: fe 02        cp   $02
8608: 28 02        jr   z,$860C
860a: 18 0d        jr   $8619
860c: 2a 7e 70     ld   hl,($707E)
860f: ed 5b 7c 70  ld   de,($707C)
8613: 37           scf
8614: 3f           ccf
8615: ed 52        sbc  hl,de
8617: 18 0b        jr   $8624
8619: 2a 7a 70     ld   hl,($707A)
861c: ed 5b 7e 70  ld   de,($707E)
8620: 37           scf
8621: 3f           ccf
8622: ed 52        sbc  hl,de
8624: cd 89 6f     call $6F89
8627: 22 c2 82     ld   ($82C2),hl
862a: c9           ret
862b: 2a 10 70     ld   hl,($7010)
862e: dd 7e 09     ld   a,(ix+$09)
8631: fe 2b        cp   $2B
8633: cc 58 6f     call z,$6F58
8636: fe 2d        cp   $2D
8638: cc 5e 6f     call z,$6F5E
863b: e5           push hl
863c: ed 5b 12 70  ld   de,($7012)
8640: dd 7e 0a     ld   a,(ix+$0a)
8643: fe 2b        cp   $2B
8645: cc 67 6f     call z,$6F67
8648: fe 2d        cp   $2D
864a: cc 6d 6f     call z,$6F6D
864d: e1           pop  hl
864e: cd bf 69     call $69BF
8651: 22 b0 82     ld   ($82B0),hl
8654: 32 b2 82     ld   ($82B2),a
8657: c9           ret
8658: ed 5b 14 70  ld   de,($7014)
865c: 19           add  hl,de
865d: c9           ret
865e: ed 5b 14 70  ld   de,($7014)
8662: 37           scf
8663: 3f           ccf
8664: ed 52        sbc  hl,de
8666: c9           ret
8667: 2a 14 70     ld   hl,($7014)
866a: 19           add  hl,de
866b: eb           ex   de,hl
866c: c9           ret
866d: 2a 14 70     ld   hl,($7014)
8670: eb           ex   de,hl
8671: 37           scf
8672: 3f           ccf
8673: ed 52        sbc  hl,de
8675: eb           ex   de,hl
8676: c9           ret
8677: 21 ad 82     ld   hl,$82AD
867a: cd 82 81     call $8182
867d: c9           ret
867e: dd 5e 07     ld   e,(ix+$07)
8681: dd 56 08     ld   d,(ix+$08)
8684: ed 53 7a 70  ld   ($707A),de
8688: c9           ret
8689: cd 0a 70     call $700A
868c: b7           or   a
868d: 21 00 00     ld   hl,$0000
8690: 11 00 00     ld   de,$0000
8693: 28 11        jr   z,$86A6
8695: 2a 14 70     ld   hl,($7014)
8698: e5           push hl
8699: 4f           ld   c,a
869a: 06 00        ld   b,$00
869c: cd 5f 86     call $865F
869f: 01 ff 00     ld   bc,$00FF
86a2: cd a9 87     call $87A9
86a5: eb           ex   de,hl
86a6: c9           ret
86a7: 2a 16 70     ld   hl,($7016)
86aa: 22 7a 70     ld   ($707A),hl
86ad: 22 8c 70     ld   ($708C),hl
86b0: cd dc 6f     call $6FDC
86b3: 32 83 70     ld   ($7083),a
86b6: ed 53 7c 70  ld   ($707C),de
86ba: eb           ex   de,hl
86bb: 11 2d 00     ld   de,$002D
86be: 37           scf
86bf: 3f           ccf
86c0: ed 52        sbc  hl,de
86c2: ed 5b 7a 70  ld   de,($707A)
86c6: ed 52        sbc  hl,de
86c8: f0           ret  p
86c9: 3e ff        ld   a,$FF
86cb: 32 8e 70     ld   ($708E),a
86ce: c9           ret
86cf: 2a 18 70     ld   hl,($7018)
86d2: 22 8c 70     ld   ($708C),hl
86d5: cd dc 6f     call $6FDC
86d8: 32 84 70     ld   ($7084),a
86db: c9           ret
86dc: 11 5a 00     ld   de,$005A
86df: 37           scf
86e0: 3f           ccf
86e1: ed 52        sbc  hl,de
86e3: 3e 03        ld   a,$03
86e5: f8           ret  m
86e6: 2a 8c 70     ld   hl,($708C)
86e9: 11 b4 00     ld   de,$00B4
86ec: ed 52        sbc  hl,de
86ee: 3e 00        ld   a,$00
86f0: f8           ret  m
86f1: 2a 8c 70     ld   hl,($708C)
86f4: 11 0e 01     ld   de,$010E
86f7: ed 52        sbc  hl,de
86f9: 3e 02        ld   a,$02
86fb: f8           ret  m
86fc: 2a 8c 70     ld   hl,($708C)
86ff: 11 68 01     ld   de,$0168
8702: ed 52        sbc  hl,de
8704: 3e 01        ld   a,$01
8706: f8           ret  m
8707: 3e ff        ld   a,$FF
8709: c9           ret
870a: 11 91 70     ld   de,$7091
870d: 19           add  hl,de
870e: 7e           ld   a,(hl)
870f: c9           ret
8710: 00           nop
8711: 00           nop
8712: 00           nop
8713: 00           nop
8714: 00           nop
8715: 00           nop
8716: 00           nop
8717: 00           nop
8718: 00           nop
8719: 00           nop
871a: 22 70 38     ld   ($3870),hl
871d: 70           ld   (hl),b
871e: 4e           ld   c,(hl)
871f: 70           ld   (hl),b
8720: 64           ld   h,h
8721: 70           ld   (hl),b
8722: 24           inc  h
8723: 00           nop
8724: 00           nop
8725: 00           nop
8726: 01 2d 00     ld   bc,$002D
8729: 2d           dec  l
872a: 00           nop
872b: 2b           dec  hl
872c: 00           nop
872d: 21 5a 00     ld   hl,$005A
8730: 03           inc  bc
8731: 02           ld   (bc),a
8732: 5a           ld   e,d
8733: 00           nop
8734: 5a           ld   e,d
8735: 00           nop
8736: 00           nop
8737: 2d           dec  l
8738: 26 5a        ld   h,$5A
873a: 00           nop
873b: 00           nop
873c: 01 87 00     ld   bc,$0087
873f: 87           add  a,a
8740: 00           nop
8741: 00           nop
8742: 2d           dec  l
8743: 23           inc  hl
8744: b4           or   h
8745: 00           nop
8746: 03           inc  bc
8747: 02           ld   (bc),a
8748: b4           or   h
8749: 00           nop
874a: b4           or   h
874b: 00           nop
874c: 2d           dec  l
874d: 00           nop
874e: 20 b4        jr   nz,$8704
8750: 00           nop
8751: 00           nop
8752: 01 e1 00     ld   bc,$00E1
8755: e1           pop  hl
8756: 00           nop
8757: 2d           dec  l
8758: 00           nop
8759: 25           dec  h
875a: 0e 01        ld   c,$01
875c: 03           inc  bc
875d: 02           ld   (bc),a
875e: 0e 01        ld   c,$01
8760: 0e 01        ld   c,$01
8762: 00           nop
8763: 2b           dec  hl
8764: 22 0e 01     ld   ($010E),hl
8767: 00           nop
8768: 01 3b 01     ld   bc,$013B
876b: 3b           dec  sp
876c: 01 00 2b     ld   bc,$2B00
876f: 27           daa
8770: 68           ld   l,b
8771: 01 03 02     ld   bc,$0203
8774: 68           ld   l,b
8775: 01 00 00     ld   bc,$0000
8778: 2b           dec  hl
8779: 00           nop
877a: 00           nop
877b: 00           nop
877c: 00           nop
877d: 00           nop
877e: 00           nop
877f: 00           nop
8780: 00           nop
8781: 00           nop
8782: 00           nop
8783: 00           nop
8784: 00           nop
8785: 00           nop
8786: 00           nop
8787: 00           nop
8788: 00           nop
8789: 00           nop
878a: 00           nop
878b: 00           nop
878c: 00           nop
878d: 00           nop
878e: 00           nop
878f: 6a           ld   l,d
8790: 01 00 04     ld   bc,$0400
8793: 09           add  hl,bc
8794: 0d           dec  c
8795: 12           ld   (de),a
8796: 16 1b        ld   d,$1B
8798: 1f           rra
8799: 23           inc  hl
879a: 28 2c        jr   z,$87C8
879c: 31 35 39     ld   sp,$3935
879f: 3e 42        ld   a,$42
87a1: 46           ld   b,(hl)
87a2: 4b           ld   c,e
87a3: 4f           ld   c,a
87a4: 53           ld   d,e
87a5: 57           ld   d,a
87a6: 5b           ld   e,e
87a7: 60           ld   h,b
87a8: 64           ld   h,h
87a9: 68           ld   l,b
87aa: 6c           ld   l,h
87ab: 70           ld   (hl),b
87ac: 74           ld   (hl),h
87ad: 78           ld   a,b
87ae: 7c           ld   a,h
87af: 7f           ld   a,a
87b0: 83           add  a,e
87b1: 87           add  a,a
87b2: 8b           adc  a,e
87b3: 8f           adc  a,a
87b4: 92           sub  d
87b5: 96           sub  (hl)
87b6: 99           sbc  a,c
87b7: 9d           sbc  a,l
87b8: a0           and  b
87b9: a4           and  h
87ba: a7           and  a
87bb: ab           xor  e
87bc: ae           xor  (hl)
87bd: b1           or   c
87be: b4           or   h
87bf: b7           or   a
87c0: ba           cp   d
87c1: be           cp   (hl)
87c2: c0           ret  nz
87c3: c3 c6 c9     jp   $C9C6
87c6: cc ce d1     call z,$D1CE
87c9: d3 d6        out  ($D6),a
87cb: d8           ret  c
87cc: db dd        in   a,($DD)
87ce: df           rst  $18
87cf: e1           pop  hl
87d0: e3           ex   (sp),hl
87d1: e5           push hl
87d2: e7           rst  $20
87d3: e9           jp   (hl)
87d4: eb           ex   de,hl
87d5: ec ee f0     call pe,$F0EE
87d8: f1           pop  af
87d9: f3           di
87da: f4 f5 f6     call p,$F6F5
87dd: f7           rst  $30
87de: f8           ret  m
87df: f9           ld   sp,hl
87e0: fa fb fc     jp   m,$FCFB
87e3: fd           db   $fd
87e4: fd           db   $fd
87e5: fe fe        cp   $FE
87e7: fe ff        cp   $FF
87e9: ff           rst  $38
87ea: ff           rst  $38
87eb: ff           rst  $38
87ec: 32 74 83     ld   ($8374),a
87ef: 3a 65 f0     ld   a,($F065)
87f2: 4f           ld   c,a
87f3: 06 00        ld   b,$00
87f5: e5           push hl
87f6: cd 9b f3     call $F39B
87f9: e1           pop  hl
87fa: 11 15 78     ld   de,$7815
87fd: 01 0a 00     ld   bc,$000A
8800: cd a5 f3     call $F3A5
8803: 21 15 78     ld   hl,$7815
8806: 11 10 70     ld   de,$7010
8809: 01 0a 00     ld   bc,$000A
880c: ed b0        ldir
880e: cd bc 72     call $72BC
8811: 3a 74 83     ld   a,($8374)
8814: e6 02        and  $02
8816: 20 03        jr   nz,$881B
8818: cd 36 79     call $7936
881b: 3a 74 83     ld   a,($8374)
881e: e6 01        and  $01
8820: c0           ret  nz
8821: 2a 15 78     ld   hl,($7815)
8824: ed 5b 17 78  ld   de,($7817)
8828: e5           push hl
8829: d5           push de
882a: cd bf 69     call $69BF
882d: 22 80 82     ld   ($8280),hl
8830: 32 82 82     ld   ($8282),a
8833: 2a 1f 78     ld   hl,($781F)
8836: ed 5b 21 78  ld   de,($7821)
883a: cd 5b 6a     call $6A5B
883d: d1           pop  de
883e: e1           pop  hl
883f: cd bf 69     call $69BF
8842: 22 80 82     ld   ($8280),hl
8845: 32 82 82     ld   ($8282),a
8848: 2a 23 78     ld   hl,($7823)
884b: ed 5b 25 78  ld   de,($7825)
884f: cd 5b 6a     call $6A5B
8852: cd 97 6d     call $6D97
8855: c9           ret
8856: af           xor  a
8857: 32 f2 77     ld   ($77F2),a
885a: 3a f1 77     ld   a,($77F1)
885d: cb af        res  5,a
885f: cb b7        res  6,a
8861: 37           scf
8862: 3f           ccf
8863: 2a 09 78     ld   hl,($7809)
8866: ed 5b 17 78  ld   de,($7817)
886a: ed 52        sbc  hl,de
886c: 22 ff 77     ld   ($77FF),hl
886f: 37           scf
8870: 3f           ccf
8871: 2a 09 78     ld   hl,($7809)
8874: ed 5b 21 78  ld   de,($7821)
8878: ed 52        sbc  hl,de
887a: 22 fb 77     ld   ($77FB),hl
887d: 38 03        jr   c,$8882
887f: cb ef        set  5,a
8881: 37           scf
8882: 3f           ccf
8883: 2a 09 78     ld   hl,($7809)
8886: ed 5b 25 78  ld   de,($7825)
888a: ed 52        sbc  hl,de
888c: 22 fd 77     ld   ($77FD),hl
888f: 38 03        jr   c,$8894
8891: cb f7        set  6,a
8893: 37           scf
8894: 3f           ccf
8895: 32 f1 77     ld   ($77F1),a
8898: 3a f1 77     ld   a,($77F1)
889b: e6 a0        and  $A0
889d: b7           or   a
889e: ca b7 71     jp   z,$71B7
88a1: ee a0        xor  $A0
88a3: ca b7 71     jp   z,$71B7
88a6: 3a f1 77     ld   a,($77F1)
88a9: e6 c0        and  $C0
88ab: b7           or   a
88ac: ca 39 72     jp   z,$7239
88af: ee c0        xor  $C0
88b1: ca 39 72     jp   z,$7239
88b4: c3 b8 72     jp   $72B8
88b7: 3a f2 77     ld   a,($77F2)
88ba: f6 01        or   $01
88bc: 32 f2 77     ld   ($77F2),a
88bf: af           xor  a
88c0: 32 61 6d     ld   ($6D61),a
88c3: ed 4b ff 77  ld   bc,($77FF)
88c7: 78           ld   a,b
88c8: e6 80        and  $80
88ca: 28 10        jr   z,$88DC
88cc: 3e 01        ld   a,$01
88ce: 32 61 6d     ld   ($6D61),a
88d1: f5           push af
88d2: 0b           dec  bc
88d3: 78           ld   a,b
88d4: 2f           cpl
88d5: 47           ld   b,a
88d6: 79           ld   a,c
88d7: 2f           cpl
88d8: 4f           ld   c,a
88d9: f1           pop  af
88da: 37           scf
88db: 3f           ccf
88dc: c5           push bc
88dd: ed 4b f5 77  ld   bc,($77F5)
88e1: 78           ld   a,b
88e2: e6 80        and  $80
88e4: 28 13        jr   z,$88F9
88e6: f5           push af
88e7: 0b           dec  bc
88e8: 78           ld   a,b
88e9: 2f           cpl
88ea: 47           ld   b,a
88eb: 79           ld   a,c
88ec: 2f           cpl
88ed: 4f           ld   c,a
88ee: f1           pop  af
88ef: 37           scf
88f0: 3f           ccf
88f1: 3a 61 6d     ld   a,($6D61)
88f4: ee 01        xor  $01
88f6: 32 61 6d     ld   ($6D61),a
88f9: cd 5f 86     call $865F
88fc: e5           push hl
88fd: d5           push de
88fe: af           xor  a
88ff: ed 4b f3 77  ld   bc,($77F3)
8903: 78           ld   a,b
8904: e6 80        and  $80
8906: 28 0d        jr   z,$8915
8908: f5           push af
8909: 0b           dec  bc
890a: 78           ld   a,b
890b: 2f           cpl
890c: 47           ld   b,a
890d: 79           ld   a,c
890e: 2f           cpl
890f: 4f           ld   c,a
8910: f1           pop  af
8911: 37           scf
8912: 3f           ccf
8913: 3e 01        ld   a,$01
8915: d1           pop  de
8916: e1           pop  hl
8917: f5           push af
8918: cd a9 87     call $87A9
891b: f1           pop  af
891c: eb           ex   de,hl
891d: e5           push hl
891e: 21 61 6d     ld   hl,$6D61
8921: ae           xor  (hl)
8922: e1           pop  hl
8923: 28 09        jr   z,$892E
8925: f5           push af
8926: 7c           ld   a,h
8927: 2f           cpl
8928: 67           ld   h,a
8929: 7d           ld   a,l
892a: 2f           cpl
892b: 6f           ld   l,a
892c: 23           inc  hl
892d: f1           pop  af
892e: ed 5b 15 78  ld   de,($7815)
8932: 19           add  hl,de
8933: 22 01 78     ld   ($7801),hl
8936: c3 a6 71     jp   $71A6
8939: 3a f2 77     ld   a,($77F2)
893c: f6 02        or   $02
893e: 32 f2 77     ld   ($77F2),a
8941: af           xor  a
8942: 32 61 6d     ld   ($6D61),a
8945: ed 4b ff 77  ld   bc,($77FF)
8949: 78           ld   a,b
894a: e6 80        and  $80
894c: 28 10        jr   z,$895E
894e: 3e 01        ld   a,$01
8950: 32 61 6d     ld   ($6D61),a
8953: f5           push af
8954: 0b           dec  bc
8955: 78           ld   a,b
8956: 2f           cpl
8957: 47           ld   b,a
8958: 79           ld   a,c
8959: 2f           cpl
895a: 4f           ld   c,a
895b: f1           pop  af
895c: 37           scf
895d: 3f           ccf
895e: c5           push bc
895f: ed 4b f9 77  ld   bc,($77F9)
8963: 78           ld   a,b
8964: e6 80        and  $80
8966: 28 13        jr   z,$897B
8968: f5           push af
8969: 0b           dec  bc
896a: 78           ld   a,b
896b: 2f           cpl
896c: 47           ld   b,a
896d: 79           ld   a,c
896e: 2f           cpl
896f: 4f           ld   c,a
8970: f1           pop  af
8971: 37           scf
8972: 3f           ccf
8973: 3a 61 6d     ld   a,($6D61)
8976: ee 01        xor  $01
8978: 32 61 6d     ld   ($6D61),a
897b: cd 5f 86     call $865F
897e: e5           push hl
897f: d5           push de
8980: af           xor  a
8981: ed 4b f7 77  ld   bc,($77F7)
8985: 78           ld   a,b
8986: e6 80        and  $80
8988: 28 0d        jr   z,$8997
898a: f5           push af
898b: 0b           dec  bc
898c: 78           ld   a,b
898d: 2f           cpl
898e: 47           ld   b,a
898f: 79           ld   a,c
8990: 2f           cpl
8991: 4f           ld   c,a
8992: f1           pop  af
8993: 37           scf
8994: 3f           ccf
8995: 3e 01        ld   a,$01
8997: d1           pop  de
8998: e1           pop  hl
8999: f5           push af
899a: cd a9 87     call $87A9
899d: f1           pop  af
899e: eb           ex   de,hl
899f: e5           push hl
89a0: 21 61 6d     ld   hl,$6D61
89a3: ae           xor  (hl)
89a4: e1           pop  hl
89a5: 28 09        jr   z,$89B0
89a7: f5           push af
89a8: 7c           ld   a,h
89a9: 2f           cpl
89aa: 67           ld   h,a
89ab: 7d           ld   a,l
89ac: 2f           cpl
89ad: 6f           ld   l,a
89ae: 23           inc  hl
89af: f1           pop  af
89b0: ed 5b 15 78  ld   de,($7815)
89b4: 19           add  hl,de
89b5: 22 05 78     ld   ($7805),hl
89b8: 3a f2 77     ld   a,($77F2)
89bb: c9           ret
89bc: 2a 1b 78     ld   hl,($781B)
89bf: cd d5 73     call $73D5
89c2: 22 25 78     ld   ($7825),hl
89c5: 2a 1b 78     ld   hl,($781B)
89c8: cd 3b 74     call $743B
89cb: 22 23 78     ld   ($7823),hl
89ce: 2a 1d 78     ld   hl,($781D)
89d1: cd d5 73     call $73D5
89d4: 22 21 78     ld   ($7821),hl
89d7: 2a 1d 78     ld   hl,($781D)
89da: cd 3b 74     call $743B
89dd: 22 1f 78     ld   ($781F),hl
89e0: 3e ff        ld   a,$FF
89e2: 32 27 78     ld   ($7827),a
89e5: af           xor  a
89e6: 32 f1 77     ld   ($77F1),a
89e9: 32 13 78     ld   ($7813),a
89ec: 32 14 78     ld   ($7814),a
89ef: 2a 15 78     ld   hl,($7815)
89f2: 22 14 79     ld   ($7914),hl
89f5: 2a 17 78     ld   hl,($7817)
89f8: 22 16 79     ld   ($7916),hl
89fb: 2a 19 78     ld   hl,($7819)
89fe: 22 18 79     ld   ($7918),hl
8a01: 2a 21 78     ld   hl,($7821)
8a04: ed 5b 17 78  ld   de,($7817)
8a08: ed 52        sbc  hl,de
8a0a: 22 f3 77     ld   ($77F3),hl
8a0d: 30 03        jr   nc,$8A12
8a0f: cb c7        set  0,a
8a11: b7           or   a
8a12: 20 07        jr   nz,$8A1B
8a14: f5           push af
8a15: 3e ff        ld   a,$FF
8a17: 32 13 78     ld   ($7813),a
8a1a: f1           pop  af
8a1b: 2a 25 78     ld   hl,($7825)
8a1e: ed 52        sbc  hl,de
8a20: 22 f7 77     ld   ($77F7),hl
8a23: 30 05        jr   nc,$8A2A
8a25: 37           scf
8a26: 3f           ccf
8a27: cb cf        set  1,a
8a29: b7           or   a
8a2a: 20 07        jr   nz,$8A33
8a2c: f5           push af
8a2d: 3e ff        ld   a,$FF
8a2f: 32 14 78     ld   ($7814),a
8a32: f1           pop  af
8a33: 2a 1f 78     ld   hl,($781F)
8a36: ed 5b 15 78  ld   de,($7815)
8a3a: ed 52        sbc  hl,de
8a3c: 22 f5 77     ld   ($77F5),hl
8a3f: 30 04        jr   nc,$8A45
8a41: cb d7        set  2,a
8a43: 37           scf
8a44: 3f           ccf
8a45: 2a 23 78     ld   hl,($7823)
8a48: ed 52        sbc  hl,de
8a4a: 22 f9 77     ld   ($77F9),hl
8a4d: 30 04        jr   nc,$8A53
8a4f: cb df        set  3,a
8a51: 37           scf
8a52: 3f           ccf
8a53: 32 f1 77     ld   ($77F1),a
8a56: cb 47        bit  0,a
8a58: 28 1b        jr   z,$8A75
8a5a: cb 4f        bit  1,a
8a5c: 28 17        jr   z,$8A75
8a5e: 2a 1f 78     ld   hl,($781F)
8a61: ed 5b 23 78  ld   de,($7823)
8a65: 37           scf
8a66: 3f           ccf
8a67: ed 52        sbc  hl,de
8a69: 38 0a        jr   c,$8A75
8a6b: 3a f1 77     ld   a,($77F1)
8a6e: cb e7        set  4,a
8a70: 32 f1 77     ld   ($77F1),a
8a73: 18 20        jr   $8A95
8a75: 37           scf
8a76: 3f           ccf
8a77: 3a f1 77     ld   a,($77F1)
8a7a: cb 47        bit  0,a
8a7c: 20 17        jr   nz,$8A95
8a7e: cb 4f        bit  1,a
8a80: 20 13        jr   nz,$8A95
8a82: 2a 23 78     ld   hl,($7823)
8a85: ed 5b 1f 78  ld   de,($781F)
8a89: ed 52        sbc  hl,de
8a8b: 38 08        jr   c,$8A95
8a8d: 3a f1 77     ld   a,($77F1)
8a90: cb e7        set  4,a
8a92: 32 f1 77     ld   ($77F1),a
8a95: 37           scf
8a96: 3f           ccf
8a97: 2a 21 78     ld   hl,($7821)
8a9a: ed 5b 17 78  ld   de,($7817)
8a9e: ed 52        sbc  hl,de
8aa0: 22 f3 77     ld   ($77F3),hl
8aa3: 37           scf
8aa4: 3f           ccf
8aa5: 2a 1f 78     ld   hl,($781F)
8aa8: ed 5b 15 78  ld   de,($7815)
8aac: ed 52        sbc  hl,de
8aae: 22 f5 77     ld   ($77F5),hl
8ab1: 37           scf
8ab2: 3f           ccf
8ab3: 2a 25 78     ld   hl,($7825)
8ab6: ed 5b 17 78  ld   de,($7817)
8aba: ed 52        sbc  hl,de
8abc: 22 f7 77     ld   ($77F7),hl
8abf: 37           scf
8ac0: 3f           ccf
8ac1: 2a 23 78     ld   hl,($7823)
8ac4: ed 5b 15 78  ld   de,($7815)
8ac8: ed 52        sbc  hl,de
8aca: 22 f9 77     ld   ($77F9),hl
8acd: 2a 18 79     ld   hl,($7918)
8ad0: 23           inc  hl
8ad1: 22 18 79     ld   ($7918),hl
8ad4: c9           ret
8ad5: cd b6 74     call $74B6
8ad8: fe 00        cp   $00
8ada: ca ec 73     jp   z,$73EC
8add: fe 01        cp   $01
8adf: ca fc 73     jp   z,$73FC
8ae2: fe 02        cp   $02
8ae4: ca 14 74     jp   z,$7414
8ae7: fe 03        cp   $03
8ae9: ca 27 74     jp   z,$7427
8aec: cd 89 6f     call $6F89
8aef: cd a8 74     call $74A8
8af2: ed 5b 17 78  ld   de,($7817)
8af6: eb           ex   de,hl
8af7: 37           scf
8af8: 3f           ccf
8af9: ed 52        sbc  hl,de
8afb: c9           ret
8afc: 11 b4 00     ld   de,$00B4
8aff: eb           ex   de,hl
8b00: 37           scf
8b01: 3f           ccf
8b02: ed 52        sbc  hl,de
8b04: cd 89 6f     call $6F89
8b07: cd a8 74     call $74A8
8b0a: ed 5b 17 78  ld   de,($7817)
8b0e: eb           ex   de,hl
8b0f: 37           scf
8b10: 3f           ccf
8b11: ed 52        sbc  hl,de
8b13: c9           ret
8b14: 11 b4 00     ld   de,$00B4
8b17: 37           scf
8b18: 3f           ccf
8b19: ed 52        sbc  hl,de
8b1b: cd 89 6f     call $6F89
8b1e: cd a8 74     call $74A8
8b21: ed 5b 17 78  ld   de,($7817)
8b25: 19           add  hl,de
8b26: c9           ret
8b27: 11 68 01     ld   de,$0168
8b2a: eb           ex   de,hl
8b2b: 37           scf
8b2c: 3f           ccf
8b2d: ed 52        sbc  hl,de
8b2f: cd 89 6f     call $6F89
8b32: cd a8 74     call $74A8
8b35: ed 5b 17 78  ld   de,($7817)
8b39: 19           add  hl,de
8b3a: c9           ret
8b3b: cd b6 74     call $74B6
8b3e: fe 00        cp   $00
8b40: ca 52 74     jp   z,$7452
8b43: fe 01        cp   $01
8b45: ca 66 74     jp   z,$7466
8b48: fe 02        cp   $02
8b4a: ca 7d 74     jp   z,$747D
8b4d: fe 03        cp   $03
8b4f: ca 95 74     jp   z,$7495
8b52: 11 5a 00     ld   de,$005A
8b55: eb           ex   de,hl
8b56: 37           scf
8b57: 3f           ccf
8b58: ed 52        sbc  hl,de
8b5a: cd 89 6f     call $6F89
8b5d: cd a8 74     call $74A8
8b60: ed 5b 15 78  ld   de,($7815)
8b64: 19           add  hl,de
8b65: c9           ret
8b66: 11 5a 00     ld   de,$005A
8b69: 37           scf
8b6a: 3f           ccf
8b6b: ed 52        sbc  hl,de
8b6d: cd 89 6f     call $6F89
8b70: cd a8 74     call $74A8
8b73: ed 5b 15 78  ld   de,($7815)
8b77: eb           ex   de,hl
8b78: 37           scf
8b79: 3f           ccf
8b7a: ed 52        sbc  hl,de
8b7c: c9           ret
8b7d: 11 0e 01     ld   de,$010E
8b80: eb           ex   de,hl
8b81: 37           scf
8b82: 3f           ccf
8b83: ed 52        sbc  hl,de
8b85: cd 89 6f     call $6F89
8b88: cd a8 74     call $74A8
8b8b: ed 5b 15 78  ld   de,($7815)
8b8f: eb           ex   de,hl
8b90: 37           scf
8b91: 3f           ccf
8b92: ed 52        sbc  hl,de
8b94: c9           ret
8b95: 11 0e 01     ld   de,$010E
8b98: 37           scf
8b99: 3f           ccf
8b9a: ed 52        sbc  hl,de
8b9c: cd 89 6f     call $6F89
8b9f: cd a8 74     call $74A8
8ba2: ed 5b 15 78  ld   de,($7815)
8ba6: 19           add  hl,de
8ba7: c9           ret
8ba8: e5           push hl
8ba9: 21 7f 00     ld   hl,$007F
8bac: 37           scf
8bad: 3f           ccf
8bae: ed 52        sbc  hl,de
8bb0: e1           pop  hl
8bb1: f2 b5 74     jp   p,$74B5
8bb4: 23           inc  hl
8bb5: c9           ret
8bb6: 44           ld   b,h
8bb7: 4d           ld   c,l
8bb8: 11 5a 00     ld   de,$005A
8bbb: 37           scf
8bbc: 3f           ccf
8bbd: ed 52        sbc  hl,de
8bbf: 3e 00        ld   a,$00
8bc1: fa de 74     jp   m,$74DE
8bc4: 60           ld   h,b
8bc5: 69           ld   l,c
8bc6: 11 b4 00     ld   de,$00B4
8bc9: ed 52        sbc  hl,de
8bcb: 3e 01        ld   a,$01
8bcd: fa de 74     jp   m,$74DE
8bd0: 60           ld   h,b
8bd1: 69           ld   l,c
8bd2: 11 0e 01     ld   de,$010E
8bd5: ed 52        sbc  hl,de
8bd7: 3e 02        ld   a,$02
8bd9: fa de 74     jp   m,$74DE
8bdc: 3e 03        ld   a,$03
8bde: 60           ld   h,b
8bdf: 69           ld   l,c
8be0: c9           ret
8be1: 2a ac 7a     ld   hl,($7AAC)
8be4: 22 0f 78     ld   ($780F),hl
8be7: ed 5b ae 7a  ld   de,($7AAE)
8beb: ed 53 11 78  ld   ($7811),de
8bef: 2a 15 78     ld   hl,($7815)
8bf2: e5           push hl
8bf3: ed 5b 0f 78  ld   de,($780F)
8bf7: 37           scf
8bf8: 3f           ccf
8bf9: ed 52        sbc  hl,de
8bfb: 22 0d 78     ld   ($780D),hl
8bfe: e1           pop  hl
8bff: ed 5a        adc  hl,de
8c01: 22 0b 78     ld   ($780B),hl
8c04: 2a 17 78     ld   hl,($7817)
8c07: ed 5b 11 78  ld   de,($7811)
8c0b: ed 5a        adc  hl,de
8c0d: 22 09 78     ld   ($7809),hl
8c10: 3a f1 77     ld   a,($77F1)
8c13: cb bf        res  7,a
8c15: 32 f1 77     ld   ($77F1),a
8c18: cd 7a 75     call $757A
8c1b: 2a 17 78     ld   hl,($7817)
8c1e: ed 5b 11 78  ld   de,($7811)
8c22: 37           scf
8c23: 3f           ccf
8c24: ed 52        sbc  hl,de
8c26: 22 09 78     ld   ($7809),hl
8c29: 3a f1 77     ld   a,($77F1)
8c2c: cb ff        set  7,a
8c2e: 32 f1 77     ld   ($77F1),a
8c31: cd 7a 75     call $757A
8c34: 2a 15 78     ld   hl,($7815)
8c37: e5           push hl
8c38: ed 5b 11 78  ld   de,($7811)
8c3c: 37           scf
8c3d: 3f           ccf
8c3e: ed 52        sbc  hl,de
8c40: 22 0d 78     ld   ($780D),hl
8c43: e1           pop  hl
8c44: ed 5a        adc  hl,de
8c46: 22 0b 78     ld   ($780B),hl
8c49: 2a 17 78     ld   hl,($7817)
8c4c: ed 5b 0f 78  ld   de,($780F)
8c50: ed 5a        adc  hl,de
8c52: 22 09 78     ld   ($7809),hl
8c55: 3a f1 77     ld   a,($77F1)
8c58: cb bf        res  7,a
8c5a: 32 f1 77     ld   ($77F1),a
8c5d: cd 7a 75     call $757A
8c60: 2a 17 78     ld   hl,($7817)
8c63: ed 5b 0f 78  ld   de,($780F)
8c67: 37           scf
8c68: 3f           ccf
8c69: ed 52        sbc  hl,de
8c6b: 22 09 78     ld   ($7809),hl
8c6e: 3a f1 77     ld   a,($77F1)
8c71: cb ff        set  7,a
8c73: 32 f1 77     ld   ($77F1),a
8c76: cd 7a 75     call $757A
8c79: c9           ret
8c7a: cd 56 71     call $7156
8c7d: 2a 17 78     ld   hl,($7817)
8c80: ed 5b 19 78  ld   de,($7819)
8c84: 19           add  hl,de
8c85: eb           ex   de,hl
8c86: 2a 09 78     ld   hl,($7809)
8c89: 37           scf
8c8a: 3f           ccf
8c8b: ed 52        sbc  hl,de
8c8d: c8           ret  z
8c8e: 2a 17 78     ld   hl,($7817)
8c91: ed 5b 19 78  ld   de,($7819)
8c95: 37           scf
8c96: 3f           ccf
8c97: ed 52        sbc  hl,de
8c99: eb           ex   de,hl
8c9a: 2a 09 78     ld   hl,($7809)
8c9d: 37           scf
8c9e: 3f           ccf
8c9f: ed 52        sbc  hl,de
8ca1: c8           ret  z
8ca2: fe 00        cp   $00
8ca4: ca b7 75     jp   z,$75B7
8ca7: fe 01        cp   $01
8ca9: ca 77 76     jp   z,$7677
8cac: fe 02        cp   $02
8cae: ca ad 76     jp   z,$76AD
8cb1: fe 03        cp   $03
8cb3: ca e3 76     jp   z,$76E3
8cb6: c9           ret
8cb7: 3a f1 77     ld   a,($77F1)
8cba: cb 47        bit  0,a
8cbc: ca fa 75     jp   z,$75FA
8cbf: cb 4f        bit  1,a
8cc1: ca fa 75     jp   z,$75FA
8cc4: cb 67        bit  4,a
8cc6: ca e4 75     jp   z,$75E4
8cc9: 3a f1 77     ld   a,($77F1)
8ccc: cb 6f        bit  5,a
8cce: 28 04        jr   z,$8CD4
8cd0: cd 70 77     call $7770
8cd3: c9           ret
8cd4: cb 57        bit  2,a
8cd6: 28 06        jr   z,$8CDE
8cd8: cb 5f        bit  3,a
8cda: c4 70 77     call nz,$7770
8cdd: c9           ret
8cde: cb 5f        bit  3,a
8ce0: cc 70 77     call z,$7770
8ce3: c9           ret
8ce4: 3a f1 77     ld   a,($77F1)
8ce7: cb 6f        bit  5,a
8ce9: c0           ret  nz
8cea: cb 57        bit  2,a
8cec: 28 06        jr   z,$8CF4
8cee: cb 5f        bit  3,a
8cf0: cc 70 77     call z,$7770
8cf3: c9           ret
8cf4: cb 5f        bit  3,a
8cf6: c4 70 77     call nz,$7770
8cf9: c9           ret
8cfa: 3a f1 77     ld   a,($77F1)
8cfd: cb 47        bit  0,a
8cff: c2 3f 76     jp   nz,$763F
8d02: cb 4f        bit  1,a
8d04: c2 3f 76     jp   nz,$763F
8d07: 3a f1 77     ld   a,($77F1)
8d0a: cb 67        bit  4,a
8d0c: 28 1b        jr   z,$8D29
8d0e: 3a f1 77     ld   a,($77F1)
8d11: cb 6f        bit  5,a
8d13: 20 04        jr   nz,$8D19
8d15: cd 70 77     call $7770
8d18: c9           ret
8d19: cb 57        bit  2,a
8d1b: 28 06        jr   z,$8D23
8d1d: cb 5f        bit  3,a
8d1f: c4 70 77     call nz,$7770
8d22: c9           ret
8d23: cb 5f        bit  3,a
8d25: cc 70 77     call z,$7770
8d28: c9           ret
8d29: 3a f1 77     ld   a,($77F1)
8d2c: cb 6f        bit  5,a
8d2e: c8           ret  z
8d2f: cb 57        bit  2,a
8d31: 28 06        jr   z,$8D39
8d33: cb 5f        bit  3,a
8d35: cc 70 77     call z,$7770
8d38: c9           ret
8d39: cb 5f        bit  3,a
8d3b: c4 70 77     call nz,$7770
8d3e: c9           ret
8d3f: 3a f1 77     ld   a,($77F1)
8d42: cb 7f        bit  7,a
8d44: ca 5f 76     jp   z,$765F
8d47: 3a f1 77     ld   a,($77F1)
8d4a: e6 07        and  $07
8d4c: ee 05        xor  $05
8d4e: 20 04        jr   nz,$8D54
8d50: cd 70 77     call $7770
8d53: c9           ret
8d54: 3a f1 77     ld   a,($77F1)
8d57: e6 0b        and  $0B
8d59: ee 02        xor  $02
8d5b: cc 70 77     call z,$7770
8d5e: c9           ret
8d5f: 3a f1 77     ld   a,($77F1)
8d62: e6 0b        and  $0B
8d64: ee 09        xor  $09
8d66: 20 04        jr   nz,$8D6C
8d68: cd 70 77     call $7770
8d6b: c9           ret
8d6c: 3a f1 77     ld   a,($77F1)
8d6f: e6 07        and  $07
8d71: ee 02        xor  $02
8d73: cc 70 77     call z,$7770
8d76: c9           ret
8d77: 3a f1 77     ld   a,($77F1)
8d7a: cb 47        bit  0,a
8d7c: 28 15        jr   z,$8D93
8d7e: 2a 01 78     ld   hl,($7801)
8d81: 23           inc  hl
8d82: ed 5b 09 78  ld   de,($7809)
8d86: d5           push de
8d87: fd e1        pop  iy
8d89: dd 2a 0b 78  ld   ix,($780B)
8d8d: dd 2b        dec  ix
8d8f: cd 82 77     call $7782
8d92: c9           ret
8d93: 3a 13 78     ld   a,($7813)
8d96: b7           or   a
8d97: c0           ret  nz
8d98: 2a 0d 78     ld   hl,($780D)
8d9b: 23           inc  hl
8d9c: ed 5b 09 78  ld   de,($7809)
8da0: d5           push de
8da1: fd e1        pop  iy
8da3: dd 2a 01 78  ld   ix,($7801)
8da7: dd 2b        dec  ix
8da9: cd 82 77     call $7782
8dac: c9           ret
8dad: 3a f1 77     ld   a,($77F1)
8db0: cb 4f        bit  1,a
8db2: 28 15        jr   z,$8DC9
8db4: 2a 0d 78     ld   hl,($780D)
8db7: 23           inc  hl
8db8: ed 5b 09 78  ld   de,($7809)
8dbc: d5           push de
8dbd: fd e1        pop  iy
8dbf: dd 2a 05 78  ld   ix,($7805)
8dc3: dd 2b        dec  ix
8dc5: cd 82 77     call $7782
8dc8: c9           ret
8dc9: 3a 14 78     ld   a,($7814)
8dcc: b7           or   a
8dcd: c0           ret  nz
8dce: 2a 05 78     ld   hl,($7805)
8dd1: 23           inc  hl
8dd2: ed 5b 09 78  ld   de,($7809)
8dd6: d5           push de
8dd7: fd e1        pop  iy
8dd9: dd 2a 0b 78  ld   ix,($780B)
8ddd: dd 2b        dec  ix
8ddf: cd 82 77     call $7782
8de2: c9           ret
8de3: 3a f1 77     ld   a,($77F1)
8de6: cb 47        bit  0,a
8de8: ca 2d 77     jp   z,$772D
8deb: cb 67        bit  4,a
8ded: 20 15        jr   nz,$8E04
8def: 2a 01 78     ld   hl,($7801)
8df2: 23           inc  hl
8df3: ed 5b 09 78  ld   de,($7809)
8df7: d5           push de
8df8: fd e1        pop  iy
8dfa: dd 2a 05 78  ld   ix,($7805)
8dfe: dd 2b        dec  ix
8e00: cd 82 77     call $7782
8e03: c9           ret
8e04: 2a 0d 78     ld   hl,($780D)
8e07: 23           inc  hl
8e08: ed 5b 09 78  ld   de,($7809)
8e0c: d5           push de
8e0d: fd e1        pop  iy
8e0f: dd 2a 05 78  ld   ix,($7805)
8e13: dd 2b        dec  ix
8e15: cd 82 77     call $7782
8e18: 2a 01 78     ld   hl,($7801)
8e1b: 23           inc  hl
8e1c: ed 5b 09 78  ld   de,($7809)
8e20: d5           push de
8e21: fd e1        pop  iy
8e23: dd 2a 0b 78  ld   ix,($780B)
8e27: dd 2b        dec  ix
8e29: cd 82 77     call $7782
8e2c: c9           ret
8e2d: cb 67        bit  4,a
8e2f: ca 5b 77     jp   z,$775B
8e32: 2a 0d 78     ld   hl,($780D)
8e35: 23           inc  hl
8e36: ed 5b 09 78  ld   de,($7809)
8e3a: d5           push de
8e3b: fd e1        pop  iy
8e3d: dd 2a 01 78  ld   ix,($7801)
8e41: dd 2b        dec  ix
8e43: cd 82 77     call $7782
8e46: 2a 05 78     ld   hl,($7805)
8e49: 23           inc  hl
8e4a: ed 5b 09 78  ld   de,($7809)
8e4e: d5           push de
8e4f: fd e1        pop  iy
8e51: dd 2a 0b 78  ld   ix,($780B)
8e55: dd 2b        dec  ix
8e57: cd 82 77     call $7782
8e5a: c9           ret
8e5b: 2a 05 78     ld   hl,($7805)
8e5e: 23           inc  hl
8e5f: ed 5b 09 78  ld   de,($7809)
8e63: d5           push de
8e64: fd e1        pop  iy
8e66: dd 2a 01 78  ld   ix,($7801)
8e6a: dd 2b        dec  ix
8e6c: cd 82 77     call $7782
8e6f: c9           ret
8e70: 2a 0d 78     ld   hl,($780D)
8e73: ed 5b 09 78  ld   de,($7809)
8e77: d5           push de
8e78: fd e1        pop  iy
8e7a: dd 2a 0b 78  ld   ix,($780B)
8e7e: cd 82 77     call $7782
8e81: c9           ret
8e82: e5           push hl
8e83: d5           push de
8e84: c5           push bc
8e85: dd e5        push ix
8e87: fd e5        push iy
8e89: 22 35 81     ld   ($8135),hl
8e8c: 7b           ld   a,e
8e8d: e6 07        and  $07
8e8f: 5f           ld   e,a
8e90: 16 00        ld   d,$00
8e92: 2a a7 7c     ld   hl,($7CA7)
8e95: 19           add  hl,de
8e96: 5e           ld   e,(hl)
8e97: 56           ld   d,(hl)
8e98: 2a 35 81     ld   hl,($8135)
8e9b: eb           ex   de,hl
8e9c: 7b           ld   a,e
8e9d: cd ae 77     call $77AE
8ea0: 22 3e 83     ld   ($833E),hl
8ea3: fd e1        pop  iy
8ea5: dd e1        pop  ix
8ea7: c1           pop  bc
8ea8: d1           pop  de
8ea9: e1           pop  hl
8eaa: cd bc 77     call $77BC
8ead: c9           ret
8eae: e6 07        and  $07
8eb0: b7           or   a
8eb1: 4f           ld   c,a
8eb2: ca ba 77     jp   z,$77BA
8eb5: cb 0d        rrc  l
8eb7: 0d           dec  c
8eb8: 20 fb        jr   nz,$8EB5
8eba: 65           ld   h,l
8ebb: c9           ret
8ebc: e5           push hl
8ebd: dd e5        push ix
8ebf: cd bf 69     call $69BF
8ec2: 22 39 83     ld   ($8339),hl
8ec5: 32 3b 83     ld   ($833B),a
8ec8: 37           scf
8ec9: 3f           ccf
8eca: e1           pop  hl
8ecb: d1           pop  de
8ecc: ed 52        sbc  hl,de
8ece: c8           ret  z
8ecf: d8           ret  c
8ed0: e5           push hl
8ed1: 2b           dec  hl
8ed2: 7c           ld   a,h
8ed3: f6 40        or   $40
8ed5: 67           ld   h,a
8ed6: 22 43 83     ld   ($8343),hl
8ed9: e1           pop  hl
8eda: f5           push af
8edb: 7c           ld   a,h
8edc: 2f           cpl
8edd: 67           ld   h,a
8ede: 7d           ld   a,l
8edf: 2f           cpl
8ee0: 6f           ld   l,a
8ee1: 23           inc  hl
8ee2: f1           pop  af
8ee3: 22 45 83     ld   ($8345),hl
8ee6: 29           add  hl,hl
8ee7: 22 47 83     ld   ($8347),hl
8eea: 21 36 83     ld   hl,$8336
8eed: cd 82 81     call $8182
8ef0: c9           ret
8ef1: 00           nop
8ef2: 00           nop
8ef3: 00           nop
8ef4: 00           nop
8ef5: 00           nop
8ef6: 00           nop
8ef7: 00           nop
8ef8: 00           nop
8ef9: 00           nop
8efa: 00           nop
8efb: 00           nop
8efc: 00           nop
8efd: 00           nop
8efe: 00           nop
8eff: 00           nop
8f00: 00           nop
8f01: 00           nop
8f02: 00           nop
8f03: 00           nop
8f04: 00           nop
8f05: 00           nop
8f06: 00           nop
8f07: 00           nop
8f08: 00           nop
8f09: 00           nop
8f0a: 00           nop
8f0b: 00           nop
8f0c: 00           nop
8f0d: 00           nop
8f0e: 00           nop
8f0f: 00           nop
8f10: 00           nop
8f11: 00           nop
8f12: 00           nop
8f13: 00           nop
8f14: 00           nop
8f15: 00           nop
8f16: 00           nop
8f17: 00           nop
8f18: 00           nop
8f19: 00           nop
8f1a: 00           nop
8f1b: 00           nop
8f1c: 00           nop
8f1d: 00           nop
8f1e: 00           nop
8f1f: 00           nop
8f20: 00           nop
8f21: 00           nop
8f22: 00           nop
8f23: 00           nop
8f24: 00           nop
8f25: 00           nop
8f26: 00           nop
8f27: 00           nop
8f28: 32 74 83     ld   ($8374),a
8f2b: 22 14 79     ld   ($7914),hl
8f2e: ed 53 16 79  ld   ($7916),de
8f32: dd 22 18 79  ld   ($7918),ix
8f36: af           xor  a
8f37: 32 27 78     ld   ($7827),a
8f3a: 2a 18 79     ld   hl,($7918)
8f3d: 2b           dec  hl
8f3e: 22 bc 82     ld   ($82BC),hl
8f41: af           xor  a
8f42: cb 24        sla  h
8f44: cb 25        sla  l
8f46: 8c           adc  a,h
8f47: 67           ld   h,a
8f48: 22 be 82     ld   ($82BE),hl
8f4b: ed 5b 18 79  ld   de,($7918)
8f4f: 6a           ld   l,d
8f50: 53           ld   d,e
8f51: 26 00        ld   h,$00
8f53: 1e 00        ld   e,$00
8f55: ed 4b 8f 70  ld   bc,($708F)
8f59: cd a9 87     call $87A9
8f5c: eb           ex   de,hl
8f5d: 3a c5 4f     ld   a,($4FC5)
8f60: b7           or   a
8f61: 67           ld   h,a
8f62: 22 ba 82     ld   ($82BA),hl
8f65: 21 00 00     ld   hl,$0000
8f68: 22 c2 82     ld   ($82C2),hl
8f6b: 2a 16 79     ld   hl,($7916)
8f6e: ed 5b 18 79  ld   de,($7918)
8f72: cd 70 6d     call $6D70
8f75: 22 20 79     ld   ($7920),hl
8f78: 2a 14 79     ld   hl,($7914)
8f7b: 22 1e 79     ld   ($791E),hl
8f7e: 22 26 79     ld   ($7926),hl
8f81: 2a 14 79     ld   hl,($7914)
8f84: ed 5b 18 79  ld   de,($7918)
8f88: 19           add  hl,de
8f89: 22 22 79     ld   ($7922),hl
8f8c: 2a 16 79     ld   hl,($7916)
8f8f: 22 24 79     ld   ($7924),hl
8f92: 22 2c 79     ld   ($792C),hl
8f95: 2a 16 79     ld   hl,($7916)
8f98: ed 5b 18 79  ld   de,($7918)
8f9c: 19           add  hl,de
8f9d: 22 28 79     ld   ($7928),hl
8fa0: 2a 14 79     ld   hl,($7914)
8fa3: ed 5b 18 79  ld   de,($7918)
8fa7: cd 70 6d     call $6D70
8faa: 22 2a 79     ld   ($792A),hl
8fad: 06 04        ld   b,$04
8faf: 21 2e 79     ld   hl,$792E
8fb2: 22 1c 79     ld   ($791C),hl
8fb5: 21 1e 79     ld   hl,$791E
8fb8: 3a 74 83     ld   a,($8374)
8fbb: e6 01        and  $01
8fbd: 20 3e        jr   nz,$8FFD
8fbf: 3a 39 81     ld   a,($8139)
8fc2: cd 66 69     call $6966
8fc5: c5           push bc
8fc6: 4e           ld   c,(hl)
8fc7: 23           inc  hl
8fc8: 46           ld   b,(hl)
8fc9: 23           inc  hl
8fca: 5e           ld   e,(hl)
8fcb: 23           inc  hl
8fcc: 56           ld   d,(hl)
8fcd: 23           inc  hl
8fce: e5           push hl
8fcf: c5           push bc
8fd0: e1           pop  hl
8fd1: e5           push hl
8fd2: d5           push de
8fd3: cd bf 69     call $69BF
8fd6: 22 b0 82     ld   ($82B0),hl
8fd9: 32 b2 82     ld   ($82B2),a
8fdc: cd 06 79     call $7906
8fdf: 21 ad 82     ld   hl,$82AD
8fe2: cd 82 81     call $8182
8fe5: d1           pop  de
8fe6: e1           pop  hl
8fe7: cd bf 69     call $69BF
8fea: 22 b0 82     ld   ($82B0),hl
8fed: 32 b2 82     ld   ($82B2),a
8ff0: cd 06 79     call $7906
8ff3: 21 ad 82     ld   hl,$82AD
8ff6: cd 82 81     call $8182
8ff9: e1           pop  hl
8ffa: c1           pop  bc
8ffb: 10 c8        djnz $8FC5
8ffd: 3a 74 83     ld   a,($8374)
9000: e6 02        and  $02
9002: cc 36 79     call z,$7936
9005: c9           ret
9006: 2a 1c 79     ld   hl,($791C)
9009: 7e           ld   a,(hl)
900a: f6 20        or   $20
900c: 32 b9 82     ld   ($82B9),a
900f: 23           inc  hl
9010: 22 1c 79     ld   ($791C),hl
9013: c9           ret
9014: 00           nop
9015: 00           nop
9016: 00           nop
9017: 00           nop
9018: 00           nop
9019: 00           nop
901a: 00           nop
901b: 00           nop
901c: 00           nop
901d: 00           nop
901e: 00           nop
901f: 00           nop
9020: 00           nop
9021: 00           nop
9022: 00           nop
9023: 00           nop
9024: 00           nop
9025: 00           nop
9026: 00           nop
9027: 00           nop
9028: 00           nop
9029: 00           nop
902a: 00           nop
902b: 00           nop
902c: 00           nop
902d: 00           nop
902e: 01 06 04     ld   bc,$0406
9031: 07           rlca
9032: 02           ld   (bc),a
9033: 05           dec  b
9034: 00           nop
9035: 03           inc  bc
9036: 2a 85 82     ld   hl,($8285)
9039: 22 b2 7a     ld   ($7AB2),hl
903c: 2a 18 79     ld   hl,($7918)
903f: 2b           dec  hl
9040: 22 18 79     ld   ($7918),hl
9043: 21 00 00     ld   hl,$0000
9046: 22 ac 7a     ld   ($7AAC),hl
9049: 2a 18 79     ld   hl,($7918)
904c: 22 ae 7a     ld   ($7AAE),hl
904f: cd d4 79     call $79D4
9052: 11 03 00     ld   de,$0003
9055: eb           ex   de,hl
9056: ed 52        sbc  hl,de
9058: 22 b0 7a     ld   ($7AB0),hl
905b: 2a ac 7a     ld   hl,($7AAC)
905e: ed 5b ae 7a  ld   de,($7AAE)
9062: ed 52        sbc  hl,de
9064: ca bd 79     jp   z,$79BD
9067: d2 bd 79     jp   nc,$79BD
906a: cd d9 79     call $79D9
906d: ed 4b b0 7a  ld   bc,($7AB0)
9071: 78           ld   a,b
9072: e6 80        and  $80
9074: ca 91 79     jp   z,$7991
9077: 2a ac 7a     ld   hl,($7AAC)
907a: cd d0 79     call $79D0
907d: 11 06 00     ld   de,$0006
9080: ed 5a        adc  hl,de
9082: ed 4b b0 7a  ld   bc,($7AB0)
9086: ed 4a        adc  hl,bc
9088: 44           ld   b,h
9089: 4d           ld   c,l
908a: ed 43 b0 7a  ld   ($7AB0),bc
908e: c3 b3 79     jp   $79B3
9091: 2a ac 7a     ld   hl,($7AAC)
9094: ed 5b ae 7a  ld   de,($7AAE)
9098: ed 52        sbc  hl,de
909a: cd d0 79     call $79D0
909d: 11 0a 00     ld   de,$000A
90a0: ed 5a        adc  hl,de
90a2: ed 4a        adc  hl,bc
90a4: 44           ld   b,h
90a5: 4d           ld   c,l
90a6: ed 43 b0 7a  ld   ($7AB0),bc
90aa: ed 5b ae 7a  ld   de,($7AAE)
90ae: 1b           dec  de
90af: ed 53 ae 7a  ld   ($7AAE),de
90b3: 2a ac 7a     ld   hl,($7AAC)
90b6: 23           inc  hl
90b7: 22 ac 7a     ld   ($7AAC),hl
90ba: c3 5b 79     jp   $795B
90bd: 2a ac 7a     ld   hl,($7AAC)
90c0: ed 5b ae 7a  ld   de,($7AAE)
90c4: ed 52        sbc  hl,de
90c6: cc d9 79     call z,$79D9
90c9: 2a b2 7a     ld   hl,($7AB2)
90cc: 22 85 82     ld   ($8285),hl
90cf: c9           ret
90d0: cb 25        sla  l
90d2: cb 14        rl   h
90d4: cb 25        sla  l
90d6: cb 14        rl   h
90d8: c9           ret
90d9: 3a 27 78     ld   a,($7827)
90dc: b7           or   a
90dd: c2 e1 74     jp   nz,$74E1
90e0: 2a ac 7a     ld   hl,($7AAC)
90e3: e5           push hl
90e4: ed 5b 14 79  ld   de,($7914)
90e8: 37           scf
90e9: 3f           ccf
90ea: ed 5a        adc  hl,de
90ec: 22 a4 7a     ld   ($7AA4),hl
90ef: e1           pop  hl
90f0: eb           ex   de,hl
90f1: 37           scf
90f2: 3f           ccf
90f3: ed 52        sbc  hl,de
90f5: 22 a8 7a     ld   ($7AA8),hl
90f8: 2a ae 7a     ld   hl,($7AAE)
90fb: ed 5b 16 79  ld   de,($7916)
90ff: 37           scf
9100: 3f           ccf
9101: ed 5a        adc  hl,de
9103: 22 a6 7a     ld   ($7AA6),hl
9106: 22 aa 7a     ld   ($7AAA),hl
9109: cd 61 7a     call $7A61
910c: 2a 16 79     ld   hl,($7916)
910f: ed 5b ae 7a  ld   de,($7AAE)
9113: 37           scf
9114: 3f           ccf
9115: ed 52        sbc  hl,de
9117: 22 a6 7a     ld   ($7AA6),hl
911a: 22 aa 7a     ld   ($7AAA),hl
911d: cd 61 7a     call $7A61
9120: 2a ae 7a     ld   hl,($7AAE)
9123: e5           push hl
9124: ed 5b 14 79  ld   de,($7914)
9128: 37           scf
9129: 3f           ccf
912a: ed 5a        adc  hl,de
912c: 22 a4 7a     ld   ($7AA4),hl
912f: e1           pop  hl
9130: eb           ex   de,hl
9131: 37           scf
9132: 3f           ccf
9133: ed 52        sbc  hl,de
9135: 22 a8 7a     ld   ($7AA8),hl
9138: 2a ac 7a     ld   hl,($7AAC)
913b: ed 5b 16 79  ld   de,($7916)
913f: 37           scf
9140: 3f           ccf
9141: ed 5a        adc  hl,de
9143: 22 a6 7a     ld   ($7AA6),hl
9146: 22 aa 7a     ld   ($7AAA),hl
9149: cd 61 7a     call $7A61
914c: 2a 16 79     ld   hl,($7916)
914f: ed 5b ac 7a  ld   de,($7AAC)
9153: 37           scf
9154: 3f           ccf
9155: ed 52        sbc  hl,de
9157: 22 a6 7a     ld   ($7AA6),hl
915a: 22 aa 7a     ld   ($7AAA),hl
915d: cd 61 7a     call $7A61
9160: c9           ret
9161: ed 5b a6 7a  ld   de,($7AA6)
9165: 7b           ld   a,e
9166: e6 07        and  $07
9168: 5f           ld   e,a
9169: 16 00        ld   d,$00
916b: 2a a7 7c     ld   hl,($7CA7)
916e: 19           add  hl,de
916f: 5e           ld   e,(hl)
9170: 56           ld   d,(hl)
9171: 2a a4 7a     ld   hl,($7AA4)
9174: eb           ex   de,hl
9175: 7b           ld   a,e
9176: cd 96 7a     call $7A96
9179: 22 85 82     ld   ($8285),hl
917c: 2a a4 7a     ld   hl,($7AA4)
917f: 2b           dec  hl
9180: ed 5b a6 7a  ld   de,($7AA6)
9184: dd 2a a8 7a  ld   ix,($7AA8)
9188: fd 2a aa 7a  ld   iy,($7AAA)
918c: 3a 39 81     ld   a,($8139)
918f: cd 66 69     call $6966
9192: cd 26 6a     call $6A26
9195: c9           ret
9196: e6 07        and  $07
9198: b7           or   a
9199: 4f           ld   c,a
919a: ca a2 7a     jp   z,$7AA2
919d: cb 05        rlc  l
919f: 0d           dec  c
91a0: 20 fb        jr   nz,$919D
91a2: 65           ld   h,l
91a3: c9           ret
91a4: 00           nop
91a5: 00           nop
91a6: 00           nop
91a7: 00           nop
91a8: 00           nop
91a9: 00           nop
91aa: 00           nop
91ab: 00           nop
91ac: 00           nop
91ad: 00           nop
91ae: 00           nop
91af: 00           nop
91b0: 00           nop
91b1: 00           nop
91b2: 00           nop
91b3: 00           nop
91b4: 32 74 83     ld   ($8374),a
91b7: 22 9f 7c     ld   ($7C9F),hl
91ba: ed 53 a3 7c  ld   ($7CA3),de
91be: dd 22 a1 7c  ld   ($7CA1),ix
91c2: fd 22 a5 7c  ld   ($7CA5),iy
91c6: 2a 66 83     ld   hl,($8366)
91c9: ed 5b 9f 7c  ld   de,($7C9F)
91cd: ed 52        sbc  hl,de
91cf: f2 d8 7a     jp   p,$7AD8
91d2: 2a 66 83     ld   hl,($8366)
91d5: 22 9f 7c     ld   ($7C9F),hl
91d8: 2a 66 83     ld   hl,($8366)
91db: ed 5b a1 7c  ld   de,($7CA1)
91df: ed 52        sbc  hl,de
91e1: f2 ea 7a     jp   p,$7AEA
91e4: 2a 66 83     ld   hl,($8366)
91e7: 22 a1 7c     ld   ($7CA1),hl
91ea: 2a 68 83     ld   hl,($8368)
91ed: ed 5b a3 7c  ld   de,($7CA3)
91f1: ed 52        sbc  hl,de
91f3: f2 fc 7a     jp   p,$7AFC
91f6: 2a 68 83     ld   hl,($8368)
91f9: 22 a3 7c     ld   ($7CA3),hl
91fc: 2a 68 83     ld   hl,($8368)
91ff: ed 5b a5 7c  ld   de,($7CA5)
9203: ed 52        sbc  hl,de
9205: f2 0e 7b     jp   p,$7B0E
9208: 2a 68 83     ld   hl,($8368)
920b: 22 a5 7c     ld   ($7CA5),hl
920e: af           xor  a
920f: 2a a1 7c     ld   hl,($7CA1)
9212: ed 5b 9f 7c  ld   de,($7C9F)
9216: cd 70 6d     call $6D70
9219: 22 69 6b     ld   ($6B69),hl
921c: ca 9a 7c     jp   z,$7C9A
921f: f2 2c 7b     jp   p,$7B2C
9222: f6 04        or   $04
9224: f5           push af
9225: cd 77 7c     call $7C77
9228: 22 69 6b     ld   ($6B69),hl
922b: f1           pop  af
922c: 2a 69 6b     ld   hl,($6B69)
922f: cd 7f 7c     call $7C7F
9232: 2a a5 7c     ld   hl,($7CA5)
9235: ed 5b a3 7c  ld   de,($7CA3)
9239: cd 70 6d     call $6D70
923c: 22 6b 6b     ld   ($6B6B),hl
923f: ca 9a 7c     jp   z,$7C9A
9242: f2 80 7b     jp   p,$7B80
9245: f5           push af
9246: cd 77 7c     call $7C77
9249: 22 6b 6b     ld   ($6B6B),hl
924c: cd 7f 7c     call $7C7F
924f: f1           pop  af
9250: fe 04        cp   $04
9252: 28 16        jr   z,$926A
9254: 3e 42        ld   a,$42
9256: 32 a0 82     ld   ($82A0),a
9259: 2a 9f 7c     ld   hl,($7C9F)
925c: 23           inc  hl
925d: 22 aa 7c     ld   ($7CAA),hl
9260: 2a a3 7c     ld   hl,($7CA3)
9263: 2b           dec  hl
9264: 22 ac 7c     ld   ($7CAC),hl
9267: c3 b3 7b     jp   $7BB3
926a: 3e 44        ld   a,$44
926c: 32 a0 82     ld   ($82A0),a
926f: 2a 9f 7c     ld   hl,($7C9F)
9272: 2b           dec  hl
9273: 22 aa 7c     ld   ($7CAA),hl
9276: 2a a3 7c     ld   hl,($7CA3)
9279: 2b           dec  hl
927a: 22 ac 7c     ld   ($7CAC),hl
927d: c3 d7 7b     jp   $7BD7
9280: 2a 6b 6b     ld   hl,($6B6B)
9283: cd 7f 7c     call $7C7F
9286: fe 04        cp   $04
9288: 28 16        jr   z,$92A0
928a: 3e 40        ld   a,$40
928c: 32 a0 82     ld   ($82A0),a
928f: 2a 9f 7c     ld   hl,($7C9F)
9292: 23           inc  hl
9293: 22 aa 7c     ld   ($7CAA),hl
9296: 2a a3 7c     ld   hl,($7CA3)
9299: 23           inc  hl
929a: 22 ac 7c     ld   ($7CAC),hl
929d: c3 d7 7b     jp   $7BD7
92a0: 3e 46        ld   a,$46
92a2: 32 a0 82     ld   ($82A0),a
92a5: 2a 9f 7c     ld   hl,($7C9F)
92a8: 2b           dec  hl
92a9: 22 aa 7c     ld   ($7CAA),hl
92ac: 2a a3 7c     ld   hl,($7CA3)
92af: 23           inc  hl
92b0: 22 ac 7c     ld   ($7CAC),hl
92b3: 2a 69 6b     ld   hl,($6B69)
92b6: 2b           dec  hl
92b7: 22 a3 82     ld   ($82A3),hl
92ba: 22 a9 82     ld   ($82A9),hl
92bd: 2b           dec  hl
92be: 22 77 82     ld   ($8277),hl
92c1: 22 79 82     ld   ($8279),hl
92c4: 2a 6b 6b     ld   hl,($6B6B)
92c7: 2b           dec  hl
92c8: 22 a5 82     ld   ($82A5),hl
92cb: 2b           dec  hl
92cc: 2b           dec  hl
92cd: 3a c5 4f     ld   a,($4FC5)
92d0: b4           or   h
92d1: 67           ld   h,a
92d2: 22 75 82     ld   ($8275),hl
92d5: 18 22        jr   $92F9
92d7: 2a 6b 6b     ld   hl,($6B6B)
92da: 2b           dec  hl
92db: 22 a3 82     ld   ($82A3),hl
92de: 22 a9 82     ld   ($82A9),hl
92e1: 2b           dec  hl
92e2: 22 77 82     ld   ($8277),hl
92e5: 22 79 82     ld   ($8279),hl
92e8: 2a 69 6b     ld   hl,($6B69)
92eb: 2b           dec  hl
92ec: 22 a5 82     ld   ($82A5),hl
92ef: 2b           dec  hl
92f0: 2b           dec  hl
92f1: 3a c5 4f     ld   a,($4FC5)
92f4: b4           or   h
92f5: 67           ld   h,a
92f6: 22 75 82     ld   ($8275),hl
92f9: 3a 74 83     ld   a,($8374)
92fc: e6 01        and  $01
92fe: 20 22        jr   nz,$9322
9300: 2a 9f 7c     ld   hl,($7C9F)
9303: ed 5b a3 7c  ld   de,($7CA3)
9307: cd bf 69     call $69BF
930a: 22 97 82     ld   ($8297),hl
930d: 32 99 82     ld   ($8299),a
9310: 3a 39 81     ld   a,($8139)
9313: cd 66 69     call $6966
9316: 3a c5 4f     ld   a,($4FC5)
9319: 32 a2 82     ld   ($82A2),a
931c: 21 94 82     ld   hl,$8294
931f: cd 82 81     call $8182
9322: 3a 74 83     ld   a,($8374)
9325: e6 02        and  $02
9327: c0           ret  nz
9328: 3a 39 81     ld   a,($8139)
932b: cd 66 69     call $6966
932e: 2a a7 7c     ld   hl,($7CA7)
9331: 01 08 00     ld   bc,$0008
9334: 11 6a 82     ld   de,$826A
9337: ed b0        ldir
9339: 3a a0 82     ld   a,($82A0)
933c: e6 0f        and  $0F
933e: f6 10        or   $10
9340: 32 74 82     ld   ($8274),a
9343: 2a aa 7c     ld   hl,($7CAA)
9346: ed 5b ac 7c  ld   de,($7CAC)
934a: cd bf 69     call $69BF
934d: 22 65 82     ld   ($8265),hl
9350: 32 67 82     ld   ($8267),a
9353: 3a c4 4f     ld   a,($4FC4)
9356: b7           or   a
9357: c4 61 7c     call nz,$7C61
935a: 21 62 82     ld   hl,$8262
935d: cd 82 81     call $8182
9360: c9           ret
9361: 3e ff        ld   a,$FF
9363: 32 3a 82     ld   ($823A),a
9366: ed 4b 77 82  ld   bc,($8277)
936a: ed 43 36 82  ld   ($8236),bc
936e: ed 4b a5 82  ld   bc,($82A5)
9372: ed 43 38 82  ld   ($8238),bc
9376: c9           ret
9377: 2b           dec  hl
9378: 7c           ld   a,h
9379: 2f           cpl
937a: 67           ld   h,a
937b: 7d           ld   a,l
937c: 2f           cpl
937d: 6f           ld   l,a
937e: c9           ret
937f: f5           push af
9380: 2b           dec  hl
9381: 7c           ld   a,h
9382: b5           or   l
9383: cc 8e 7c     call z,$7C8E
9386: 2b           dec  hl
9387: 7c           ld   a,h
9388: b5           or   l
9389: cc 94 7c     call z,$7C94
938c: f1           pop  af
938d: c9           ret
938e: 3a 74 83     ld   a,($8374)
9391: f6 01        or   $01
9393: c9           ret
9394: 3a 74 83     ld   a,($8374)
9397: f6 02        or   $02
9399: c9           ret
939a: c9           ret
939b: 2a a7 7c     ld   hl,($7CA7)
939e: c9           ret
939f: 00           nop
93a0: 00           nop
93a1: 00           nop
93a2: 00           nop
93a3: 00           nop
93a4: 00           nop
93a5: 00           nop
93a6: 00           nop
93a7: 00           nop
93a8: 00           nop
93a9: 00           nop
93aa: 00           nop
93ab: 00           nop
93ac: 00           nop
93ad: 00           nop
93ae: ed 4b 14 7d  ld   bc,($7D14)
93b2: af           xor  a
93b3: cb 21        sla  c
93b5: ce 00        adc  a,$00
93b7: cb 27        sla  a
93b9: cb 21        sla  c
93bb: ce 00        adc  a,$00
93bd: 47           ld   b,a
93be: c5           push bc
93bf: 3a 65 f0     ld   a,($F065)
93c2: 4f           ld   c,a
93c3: 06 00        ld   b,$00
93c5: cd 9b f3     call $F39B
93c8: 11 80 b1     ld   de,$B180
93cb: 2a 16 7d     ld   hl,($7D16)
93ce: c1           pop  bc
93cf: cd a5 f3     call $F3A5
93d2: c9           ret
93d3: ed 53 14 7d  ld   ($7D14),de
93d7: 22 16 7d     ld   ($7D16),hl
93da: cd ae 7c     call $7CAE
93dd: 3a 14 7d     ld   a,($7D14)
93e0: 47           ld   b,a
93e1: 21 80 b1     ld   hl,$B180
93e4: 22 c9 7d     ld   ($7DC9),hl
93e7: c5           push bc
93e8: cd b8 7d     call $7DB8
93eb: 22 18 7d     ld   ($7D18),hl
93ee: ed 53 1a 7d  ld   ($7D1A),de
93f2: c1           pop  bc
93f3: 05           dec  b
93f4: c5           push bc
93f5: cd b8 7d     call $7DB8
93f8: e5           push hl
93f9: dd e1        pop  ix
93fb: d5           push de
93fc: fd e1        pop  iy
93fe: 2a 18 7d     ld   hl,($7D18)
9401: ed 5b 1a 7d  ld   de,($7D1A)
9405: dd 22 18 7d  ld   ($7D18),ix
9409: fd 22 1a 7d  ld   ($7D1A),iy
940d: cd 26 6a     call $6A26
9410: c1           pop  bc
9411: 10 e1        djnz $93F4
9413: c9           ret
9414: 00           nop
9415: 00           nop
9416: 00           nop
9417: 00           nop
9418: 00           nop
9419: 00           nop
941a: 00           nop
941b: 00           nop
941c: 32 74 83     ld   ($8374),a
941f: ed 53 14 7d  ld   ($7D14),de
9423: 22 16 7d     ld   ($7D16),hl
9426: cd ae 7c     call $7CAE
9429: 3a 14 7d     ld   a,($7D14)
942c: 21 80 b1     ld   hl,$B180
942f: 22 c9 7d     ld   ($7DC9),hl
9432: 22 cb 7d     ld   ($7DCB),hl
9435: fe 01        cp   $01
9437: 28 63        jr   z,$949C
9439: fe 02        cp   $02
943b: 28 65        jr   z,$94A2
943d: 32 d1 7d     ld   ($7DD1),a
9440: 47           ld   b,a
9441: c5           push bc
9442: ed 5b cb 7d  ld   de,($7DCB)
9446: 3a d1 7d     ld   a,($7DD1)
9449: 06 00        ld   b,$00
944b: 4f           ld   c,a
944c: cd 9b 7c     call $7C9B
944f: eb           ex   de,hl
9450: 3a 74 83     ld   a,($8374)
9453: e6 02        and  $02
9455: cc a2 83     call z,$83A2
9458: 3a 74 83     ld   a,($8374)
945b: e6 01        and  $01
945d: 28 02        jr   z,$9461
945f: c1           pop  bc
9460: c9           ret
9461: cd b8 7d     call $7DB8
9464: 22 79 83     ld   ($8379),hl
9467: ed 53 7b 83  ld   ($837B),de
946b: c1           pop  bc
946c: c5           push bc
946d: cd b8 7d     call $7DB8
9470: e5           push hl
9471: dd e1        pop  ix
9473: d5           push de
9474: fd e1        pop  iy
9476: 2a 79 83     ld   hl,($8379)
9479: ed 5b 7b 83  ld   de,($837B)
947d: dd 22 79 83  ld   ($8379),ix
9481: fd 22 7b 83  ld   ($837B),iy
9485: fd e5        push iy
9487: dd e5        push ix
9489: cd 26 6a     call $6A26
948c: dd e1        pop  ix
948e: fd e1        pop  iy
9490: dd 22 79 83  ld   ($8379),ix
9494: fd 22 7b 83  ld   ($837B),iy
9498: c1           pop  bc
9499: 10 d1        djnz $946C
949b: c9           ret
949c: cd b8 7d     call $7DB8
949f: c3 6f 69     jp   $696F
94a2: c5           push bc
94a3: cd b8 7d     call $7DB8
94a6: e5           push hl
94a7: d5           push de
94a8: cd b8 7d     call $7DB8
94ab: e5           push hl
94ac: dd e1        pop  ix
94ae: d5           push de
94af: fd e1        pop  iy
94b1: d1           pop  de
94b2: e1           pop  hl
94b3: c1           pop  bc
94b4: cd 26 6a     call $6A26
94b7: c9           ret
94b8: 2a c9 7d     ld   hl,($7DC9)
94bb: 4e           ld   c,(hl)
94bc: 23           inc  hl
94bd: 46           ld   b,(hl)
94be: 23           inc  hl
94bf: 5e           ld   e,(hl)
94c0: 23           inc  hl
94c1: 56           ld   d,(hl)
94c2: 23           inc  hl
94c3: 22 c9 7d     ld   ($7DC9),hl
94c6: 60           ld   h,b
94c7: 69           ld   l,c
94c8: c9           ret
94c9: 00           nop
94ca: 00           nop
94cb: 00           nop
94cc: 00           nop
94cd: 00           nop
94ce: 00           nop
94cf: 00           nop
94d0: 00           nop
94d1: 00           nop
94d2: e5           push hl
94d3: 3a 65 f0     ld   a,($F065)
94d6: 4f           ld   c,a
94d7: 06 00        ld   b,$00
94d9: cd 9b f3     call $F39B
94dc: 11 da 7e     ld   de,$7EDA
94df: e1           pop  hl
94e0: 01 0c 00     ld   bc,$000C
94e3: cd a5 f3     call $F3A5
94e6: 3a da 7e     ld   a,($7EDA)
94e9: e6 01        and  $01
94eb: c2 e6 7e     jp   nz,$7EE6
94ee: ed 4b dc 7e  ld   bc,($7EDC)
94f2: 78           ld   a,b
94f3: b1           or   c
94f4: c8           ret  z
94f5: ed 4b de 7e  ld   bc,($7EDE)
94f9: 78           ld   a,b
94fa: b1           or   c
94fb: c8           ret  z
94fc: 3a c5 4f     ld   a,($4FC5)
94ff: 32 d0 82     ld   ($82D0),a
9502: ed 4b dc 7e  ld   bc,($7EDC)
9506: 79           ld   a,c
9507: e6 0f        and  $0F
9509: 32 62 83     ld   ($8362),a
950c: cd cd 7e     call $7ECD
950f: ed 43 60 83  ld   ($8360),bc
9513: cb 39        srl  c
9515: 79           ld   a,c
9516: 32 64 83     ld   ($8364),a
9519: 3a 62 83     ld   a,($8362)
951c: b7           or   a
951d: 28 07        jr   z,$9526
951f: 2a 60 83     ld   hl,($8360)
9522: 23           inc  hl
9523: 22 60 83     ld   ($8360),hl
9526: ed 5b de 7e  ld   de,($7EDE)
952a: d5           push de
952b: ed 5b e2 7e  ld   de,($7EE2)
952f: d5           push de
9530: 2a e0 7e     ld   hl,($7EE0)
9533: 22 35 81     ld   ($8135),hl
9536: cd 66 7e     call $7E66
9539: d1           pop  de
953a: 13           inc  de
953b: ed 53 e2 7e  ld   ($7EE2),de
953f: d1           pop  de
9540: 1b           dec  de
9541: 7a           ld   a,d
9542: b3           or   e
9543: c8           ret  z
9544: c3 2a 7e     jp   $7E2A
9547: 3a 65 f0     ld   a,($F065)
954a: 4f           ld   c,a
954b: 06 00        ld   b,$00
954d: cd 9b f3     call $F39B
9550: 11 80 b1     ld   de,$B180
9553: 2a e4 7e     ld   hl,($7EE4)
9556: ed 4b 60 83  ld   bc,($8360)
955a: e5           push hl
955b: c5           push bc
955c: cd a5 f3     call $F3A5
955f: c1           pop  bc
9560: e1           pop  hl
9561: 09           add  hl,bc
9562: 22 e4 7e     ld   ($7EE4),hl
9565: c9           ret
9566: cd 47 7e     call $7E47
9569: 21 80 b1     ld   hl,$B180
956c: 3a 64 83     ld   a,($8364)
956f: b7           or   a
9570: 28 34        jr   z,$95A6
9572: 47           ld   b,a
9573: c5           push bc
9574: 4e           ld   c,(hl)
9575: 23           inc  hl
9576: 46           ld   b,(hl)
9577: ed 43 d9 82  ld   ($82D9),bc
957b: e5           push hl
957c: 2a 35 81     ld   hl,($8135)
957f: ed 5b e2 7e  ld   de,($7EE2)
9583: cd bf 69     call $69BF
9586: 22 c9 82     ld   ($82C9),hl
9589: 32 cb 82     ld   ($82CB),a
958c: 3e 0f        ld   a,$0F
958e: 32 cf 82     ld   ($82CF),a
9591: 21 c6 82     ld   hl,$82C6
9594: cd 82 81     call $8182
9597: 2a 35 81     ld   hl,($8135)
959a: 11 10 00     ld   de,$0010
959d: 19           add  hl,de
959e: 22 35 81     ld   ($8135),hl
95a1: e1           pop  hl
95a2: 23           inc  hl
95a3: c1           pop  bc
95a4: 10 cd        djnz $9573
95a6: 3a 62 83     ld   a,($8362)
95a9: b7           or   a
95aa: c8           ret  z
95ab: 3d           dec  a
95ac: 32 cf 82     ld   ($82CF),a
95af: 4e           ld   c,(hl)
95b0: 23           inc  hl
95b1: 46           ld   b,(hl)
95b2: ed 43 d9 82  ld   ($82D9),bc
95b6: 2a 35 81     ld   hl,($8135)
95b9: ed 5b e2 7e  ld   de,($7EE2)
95bd: cd bf 69     call $69BF
95c0: 22 c9 82     ld   ($82C9),hl
95c3: 32 cb 82     ld   ($82CB),a
95c6: 21 c6 82     ld   hl,$82C6
95c9: cd 82 81     call $8182
95cc: c9           ret
95cd: cb 38        srl  b
95cf: cb 19        rr   c
95d1: cb 38        srl  b
95d3: cb 19        rr   c
95d5: cb 38        srl  b
95d7: cb 19        rr   c
95d9: c9           ret
95da: 00           nop
95db: 00           nop
95dc: 00           nop
95dd: 00           nop
95de: 00           nop
95df: 00           nop
95e0: 00           nop
95e1: 00           nop
95e2: 00           nop
95e3: 00           nop
95e4: 00           nop
95e5: 00           nop
95e6: 2a 7b 83     ld   hl,($837B)
95e9: 22 99 7f     ld   ($7F99),hl
95ec: 2a 79 83     ld   hl,($8379)
95ef: 22 97 7f     ld   ($7F97),hl
95f2: ed 4b dc 7e  ld   bc,($7EDC)
95f6: cd cd 7e     call $7ECD
95f9: 78           ld   a,b
95fa: b1           or   c
95fb: c8           ret  z
95fc: ed 43 60 83  ld   ($8360),bc
9600: 79           ld   a,c
9601: cb 3f        srl  a
9603: 30 01        jr   nc,$9606
9605: 3c           inc  a
9606: 32 21 83     ld   ($8321),a
9609: 3a c5 4f     ld   a,($4FC5)
960c: 32 22 83     ld   ($8322),a
960f: ed 4b de 7e  ld   bc,($7EDE)
9613: 78           ld   a,b
9614: b1           or   c
9615: c8           ret  z
9616: ed 43 9b 7f  ld   ($7F9B),bc
961a: 2a e0 7e     ld   hl,($7EE0)
961d: ed 5b e2 7e  ld   de,($7EE2)
9621: cd bf 69     call $69BF
9624: 22 17 83     ld   ($8317),hl
9627: 32 19 83     ld   ($8319),a
962a: 3e 02        ld   a,$02
962c: cd e9 81     call $81E9
962f: cd 74 7f     call $7F74
9632: 3a c4 4f     ld   a,($4FC4)
9635: b7           or   a
9636: ca 69 7f     jp   z,$7F69
9639: 2a e0 7e     ld   hl,($7EE0)
963c: ed 5b e2 7e  ld   de,($7EE2)
9640: cd bf 69     call $69BF
9643: 22 17 83     ld   ($8317),hl
9646: 32 19 83     ld   ($8319),a
9649: 3e 01        ld   a,$01
964b: cd e9 81     call $81E9
964e: cd 74 7f     call $7F74
9651: 2a e0 7e     ld   hl,($7EE0)
9654: ed 5b e2 7e  ld   de,($7EE2)
9658: cd bf 69     call $69BF
965b: 22 17 83     ld   ($8317),hl
965e: 32 19 83     ld   ($8319),a
9661: 3e 04        ld   a,$04
9663: cd e9 81     call $81E9
9666: cd 74 7f     call $7F74
9669: 2a 97 7f     ld   hl,($7F97)
966c: ed 5b 99 7f  ld   de,($7F99)
9670: cd bf 69     call $69BF
9673: c9           ret
9674: ed 4b 9b 7f  ld   bc,($7F9B)
9678: c5           push bc
9679: cd 9d 7f     call $7F9D
967c: cd bb 7f     call $7FBB
967f: ed 5b 7b 83  ld   de,($837B)
9683: 13           inc  de
9684: 2a 79 83     ld   hl,($8379)
9687: cd bf 69     call $69BF
968a: 22 17 83     ld   ($8317),hl
968d: 32 19 83     ld   ($8319),a
9690: c1           pop  bc
9691: 0b           dec  bc
9692: 78           ld   a,b
9693: b1           or   c
9694: 20 e2        jr   nz,$9678
9696: c9           ret
9697: 00           nop
9698: 00           nop
9699: 00           nop
969a: 00           nop
969b: 00           nop
969c: 00           nop
969d: 21 14 83     ld   hl,$8314
96a0: cd 8d 81     call $818D
96a3: ed 4b 60 83  ld   bc,($8360)
96a7: 41           ld   b,c
96a8: 21 80 b1     ld   hl,$B180
96ab: c5           push bc
96ac: cd 2c 82     call $822C
96af: 77           ld   (hl),a
96b0: 23           inc  hl
96b1: c1           pop  bc
96b2: 10 f7        djnz $96AB
96b4: 3a 39 81     ld   a,($8139)
96b7: cd 66 69     call $6966
96ba: c9           ret
96bb: 3a 65 f0     ld   a,($F065)
96be: 0e 00        ld   c,$00
96c0: 47           ld   b,a
96c1: cd 9b f3     call $F39B
96c4: ed 5b e4 7e  ld   de,($7EE4)
96c8: ed 4b 60 83  ld   bc,($8360)
96cc: 21 80 b1     ld   hl,$B180
96cf: cd a5 f3     call $F3A5
96d2: 2a e4 7e     ld   hl,($7EE4)
96d5: ed 4b 60 83  ld   bc,($8360)
96d9: 09           add  hl,bc
96da: 22 e4 7e     ld   ($7EE4),hl
96dd: c9           ret
96de: 32 3c 81     ld   ($813C),a
96e1: e6 07        and  $07
96e3: f5           push af
96e4: 3a 9a 4f     ld   a,($4F9A)
96e7: 32 47 81     ld   ($8147),a
96ea: f1           pop  af
96eb: 32 9a 4f     ld   ($4F9A),a
96ee: 22 79 83     ld   ($8379),hl
96f1: ed 53 7b 83  ld   ($837B),de
96f5: dd e5        push ix
96f7: fd e5        push iy
96f9: e1           pop  hl
96fa: 3a 65 f0     ld   a,($F065)
96fd: 4f           ld   c,a
96fe: 06 00        ld   b,$00
9700: e5           push hl
9701: cd 9b f3     call $F39B
9704: e1           pop  hl
9705: 11 80 b1     ld   de,$B180
9708: c1           pop  bc
9709: c5           push bc
970a: cd a5 f3     call $F3A5
970d: 3a 3c 81     ld   a,($813C)
9710: e6 18        and  $18
9712: 20 06        jr   nz,$971A
9714: cd 59 40     call $4059
9717: 22 72 83     ld   ($8372),hl
971a: c1           pop  bc
971b: 41           ld   b,c
971c: 0e 00        ld   c,$00
971e: fd 21 80 b1  ld   iy,$B180
9722: 3a c5 4f     ld   a,($4FC5)
9725: 32 f1 82     ld   ($82F1),a
9728: 32 02 83     ld   ($8302),a
972b: c5           push bc
972c: fd 7e 00     ld   a,(iy+$00)
972f: fd e5        push iy
9731: 32 3d 81     ld   ($813D),a
9734: 3a 3c 81     ld   a,($813C)
9737: e6 18        and  $18
9739: f5           push af
973a: c4 e6 80     call nz,$80E6
973d: f1           pop  af
973e: 20 03        jr   nz,$9743
9740: cd aa 80     call $80AA
9743: 3a 3c 81     ld   a,($813C)
9746: cb 77        bit  6,a
9748: 28 05        jr   z,$974F
974a: 3e ff        ld   a,$FF
974c: 32 eb 82     ld   ($82EB),a
974f: 3a 3c 81     ld   a,($813C)
9752: cb 7f        bit  7,a
9754: 21 e5 82     ld   hl,$82E5
9757: c4 db 80     call nz,$80DB
975a: 21 f6 82     ld   hl,$82F6
975d: c4 db 80     call nz,$80DB
9760: 3a 39 81     ld   a,($8139)
9763: cd 66 69     call $6966
9766: 2a 79 83     ld   hl,($8379)
9769: ed 5b 7b 83  ld   de,($837B)
976d: cd bf 69     call $69BF
9770: 22 e0 82     ld   ($82E0),hl
9773: 32 e2 82     ld   ($82E2),a
9776: 3e ff        ld   a,$FF
9778: 32 3a 82     ld   ($823A),a
977b: 11 1e 00     ld   de,$001E
977e: ed 53 36 82  ld   ($8236),de
9782: 11 01 00     ld   de,$0001
9785: ed 53 38 82  ld   ($8238),de
9789: 21 dd 82     ld   hl,$82DD
978c: cd 82 81     call $8182
978f: 2a 79 83     ld   hl,($8379)
9792: 11 08 00     ld   de,$0008
9795: 19           add  hl,de
9796: 22 79 83     ld   ($8379),hl
9799: fd e1        pop  iy
979b: fd 23        inc  iy
979d: c1           pop  bc
979e: 10 8b        djnz $972B
97a0: 3a 47 81     ld   a,($8147)
97a3: 32 9a 4f     ld   ($4F9A),a
97a6: cd 59 40     call $4059
97a9: c9           ret
97aa: 3a 3d 81     ld   a,($813D)
97ad: f5           push af
97ae: 21 71 83     ld   hl,$8371
97b1: 96           sub  (hl)
97b2: 32 3d 81     ld   ($813D),a
97b5: 21 3d 81     ld   hl,$813D
97b8: af           xor  a
97b9: ed 6f        rld  (hl)
97bb: 57           ld   d,a
97bc: 5e           ld   e,(hl)
97bd: f1           pop  af
97be: e6 80        and  $80
97c0: 21 11 55     ld   hl,$5511
97c3: 20 03        jr   nz,$97C8
97c5: 2a 72 83     ld   hl,($8372)
97c8: 19           add  hl,de
97c9: 01 08 00     ld   bc,$0008
97cc: 11 e5 82     ld   de,$82E5
97cf: ed b0        ldir
97d1: 01 08 00     ld   bc,$0008
97d4: 11 f6 82     ld   de,$82F6
97d7: ed b0        ldir
97d9: af           xor  a
97da: c9           ret
97db: f5           push af
97dc: 06 08        ld   b,$08
97de: 7e           ld   a,(hl)
97df: 2f           cpl
97e0: 77           ld   (hl),a
97e1: 23           inc  hl
97e2: 10 fa        djnz $97DE
97e4: f1           pop  af
97e5: c9           ret
97e6: 3a 3d 81     ld   a,($813D)
97e9: d6 20        sub  $20
97eb: 32 3d 81     ld   ($813D),a
97ee: cd 28 81     call $8128
97f1: 21 00 bf     ld   hl,$BF00
97f4: 19           add  hl,de
97f5: e5           push hl
97f6: 3a 3c 81     ld   a,($813C)
97f9: cb 67        bit  4,a
97fb: c2 13 81     jp   nz,$8113
97fe: e1           pop  hl
97ff: 11 e5 82     ld   de,$82E5
9802: 01 08 00     ld   bc,$0008
9805: ed b0        ldir
9807: 21 3f 81     ld   hl,$813F
980a: 11 f6 82     ld   de,$82F6
980d: 01 08 00     ld   bc,$0008
9810: ed b0        ldir
9812: c9           ret
9813: e1           pop  hl
9814: 11 f6 82     ld   de,$82F6
9817: 01 08 00     ld   bc,$0008
981a: ed b0        ldir
981c: 21 3f 81     ld   hl,$813F
981f: 11 e5 82     ld   de,$82E5
9822: 01 08 00     ld   bc,$0008
9825: ed b0        ldir
9827: c9           ret
9828: 5f           ld   e,a
9829: af           xor  a
982a: 16 00        ld   d,$00
982c: 06 03        ld   b,$03
982e: cb 23        sla  e
9830: cb 12        rl   d
9832: 10 fa        djnz $982E
9834: c9           ret
9835: 00           nop
9836: 00           nop
9837: 00           nop
9838: 00           nop
9839: 00           nop
983a: 00           nop
983b: ff           rst  $38
983c: 00           nop
983d: 00           nop
983e: 00           nop
983f: 00           nop
9840: 00           nop
9841: 00           nop
9842: 00           nop
9843: 00           nop
9844: 00           nop
9845: 00           nop
9846: 00           nop
9847: 00           nop
9848: 3e 0c        ld   a,$0C
984a: cd 14 82     call $8214
984d: c9           ret
984e: 3e 0d        ld   a,$0D
9850: cd 14 82     call $8214
9853: c9           ret
9854: e5           push hl
9855: 21 00 00     ld   hl,$0000
9858: 11 00 00     ld   de,$0000
985b: cd bf 69     call $69BF
985e: 22 44 82     ld   ($8244),hl
9861: 32 46 82     ld   ($8246),a
9864: e1           pop  hl
9865: 3e 01        ld   a,$01
9867: a5           and  l
9868: 5f           ld   e,a
9869: 16 00        ld   d,$00
986b: 01 80 3e     ld   bc,$3E80
986e: cd 72 81     call $8172
9871: c9           ret
9872: 0b           dec  bc
9873: ed 43 4a 82  ld   ($824A),bc
9877: ed 53 52 82  ld   ($8252),de
987b: 21 41 82     ld   hl,$8241
987e: cd 82 81     call $8182
9881: c9           ret
9882: 3a c4 4f     ld   a,($4FC4)
9885: b7           or   a
9886: c2 ab 81     jp   nz,$81AB
9889: 3e 02        ld   a,$02
988b: d3 2d        out  ($2D),a
988d: 46           ld   b,(hl)
988e: 23           inc  hl
988f: c5           push bc
9890: 7e           ld   a,(hl)
9891: cd 14 82     call $8214
9894: 23           inc  hl
9895: 3e 00        ld   a,$00
9897: be           cp   (hl)
9898: 28 0e        jr   z,$98A8
989a: 7e           ld   a,(hl)
989b: 47           ld   b,a
989c: 0e 38        ld   c,$38
989e: 23           inc  hl
989f: cd 24 82     call $8224
98a2: ed b3        otir
98a4: c1           pop  bc
98a5: 10 e8        djnz $988F
98a7: c9           ret
98a8: 23           inc  hl
98a9: 18 f9        jr   $98A4
98ab: 22 6a 83     ld   ($836A),hl
98ae: 3a 6c 83     ld   a,($836C)
98b1: e6 01        and  $01
98b3: 28 09        jr   z,$98BE
98b5: cd e9 81     call $81E9
98b8: cd 8d 81     call $818D
98bb: cd fa 81     call $81FA
98be: 3a 6c 83     ld   a,($836C)
98c1: e6 02        and  $02
98c3: 28 0c        jr   z,$98D1
98c5: cd e9 81     call $81E9
98c8: 2a 6a 83     ld   hl,($836A)
98cb: cd 8d 81     call $818D
98ce: cd fa 81     call $81FA
98d1: 3a 6c 83     ld   a,($836C)
98d4: e6 04        and  $04
98d6: 28 0c        jr   z,$98E4
98d8: cd e9 81     call $81E9
98db: 2a 6a 83     ld   hl,($836A)
98de: cd 8d 81     call $818D
98e1: cd fa 81     call $81FA
98e4: af           xor  a
98e5: 32 3a 82     ld   ($823A),a
98e8: c9           ret
98e9: f5           push af
98ea: db 38        in   a,($38)
98ec: e6 08        and  $08
98ee: 20 fa        jr   nz,$98EA
98f0: db 38        in   a,($38)
98f2: e6 04        and  $04
98f4: 28 f4        jr   z,$98EA
98f6: f1           pop  af
98f7: d3 2d        out  ($2D),a
98f9: c9           ret
98fa: 3a 3a 82     ld   a,($823A)
98fd: b7           or   a
98fe: c8           ret  z
98ff: ed 4b 36 82  ld   bc,($8236)
9903: c5           push bc
9904: ed 4b 38 82  ld   bc,($8238)
9908: 79           ld   a,c
9909: b0           or   b
990a: 0b           dec  bc
990b: 20 fb        jr   nz,$9908
990d: c1           pop  bc
990e: 0b           dec  bc
990f: 79           ld   a,c
9910: b0           or   b
9911: 20 f0        jr   nz,$9903
9913: c9           ret
9914: cd 1a 82     call $821A
9917: d3 39        out  ($39),a
9919: c9           ret
991a: f5           push af
991b: db 38        in   a,($38)
991d: e6 02        and  $02
991f: c2 1b 82     jp   nz,$821B
9922: f1           pop  af
9923: c9           ret
9924: db 38        in   a,($38)
9926: e6 04        and  $04
9928: ca 24 82     jp   z,$8224
992b: c9           ret
992c: db 38        in   a,($38)
992e: e6 01        and  $01
9930: ca 2c 82     jp   z,$822C
9933: db 39        in   a,($39)
9935: c9           ret
9936: 00           nop
9937: 00           nop
9938: 00           nop
9939: 00           nop
993a: 00           nop
993b: 01 49 03     ld   bc,$0349
993e: 00           nop
993f: 00           nop
9940: 00           nop
9941: 04           inc  b
9942: 49           ld   c,c
9943: 03           inc  bc
9944: 00           nop
9945: 00           nop
9946: 00           nop
9947: 4c           ld   c,h
9948: 03           inc  bc
9949: 02           ld   (bc),a
994a: 00           nop
994b: 00           nop
994c: 4a           ld   c,d
994d: 02           ld   (bc),a
994e: ff           rst  $38
994f: ff           rst  $38
9950: 20 02        jr   nz,$9954
9952: 00           nop
9953: 00           nop
9954: 02           ld   (bc),a
9955: 70           ld   (hl),b
9956: 08           ex   af,af'
9957: 00           nop
9958: 00           nop
9959: 00           nop
995a: 00           nop
995b: 00           nop
995c: 00           nop
995d: 00           nop
995e: 00           nop
995f: 4c           ld   c,h
9960: 01 02 04     ld   bc,$0402
9963: 49           ld   c,c
9964: 03           inc  bc
9965: 00           nop
9966: 00           nop
9967: 00           nop
9968: 78           ld   a,b
9969: 08           ex   af,af'
996a: 00           nop
996b: 00           nop
996c: 00           nop
996d: 00           nop
996e: 00           nop
996f: 00           nop
9970: 00           nop
9971: 00           nop
9972: 4c           ld   c,h
9973: 07           rlca
9974: 00           nop
9975: 00           nop
9976: 00           nop
9977: 00           nop
9978: 00           nop
9979: 00           nop
997a: 00           nop
997b: 68           ld   l,b
997c: 00           nop
997d: 04           inc  b
997e: 49           ld   c,c
997f: 03           inc  bc
9980: 00           nop
9981: 00           nop
9982: 00           nop
9983: 78           ld   a,b
9984: 02           ld   (bc),a
9985: ff           rst  $38
9986: ff           rst  $38
9987: 4c           ld   c,h
9988: 09           add  hl,bc
9989: 00           nop
998a: 00           nop
998b: 00           nop
998c: 00           nop
998d: 00           nop
998e: 00           nop
998f: 00           nop
9990: 00           nop
9991: 00           nop
9992: 6c           ld   l,h
9993: 00           nop
9994: 04           inc  b
9995: 49           ld   c,c
9996: 03           inc  bc
9997: 00           nop
9998: 00           nop
9999: 00           nop
999a: 78           ld   a,b
999b: 02           ld   (bc),a
999c: ff           rst  $38
999d: ff           rst  $38
999e: 4c           ld   c,h
999f: 0b           dec  bc
99a0: 00           nop
99a1: 03           inc  bc
99a2: 40           ld   b,b
99a3: 00           nop
99a4: 00           nop
99a5: 00           nop
99a6: 00           nop
99a7: ff           rst  $38
99a8: ff           rst  $38
99a9: 00           nop
99aa: 00           nop
99ab: 6c           ld   l,h
99ac: 00           nop
99ad: 04           inc  b
99ae: 49           ld   c,c
99af: 03           inc  bc
99b0: 00           nop
99b1: 00           nop
99b2: 00           nop
99b3: 78           ld   a,b
99b4: 02           ld   (bc),a
99b5: ff           rst  $38
99b6: ff           rst  $38
99b7: 4c           ld   c,h
99b8: 0b           dec  bc
99b9: 00           nop
99ba: 00           nop
99bb: 00           nop
99bc: 00           nop
99bd: 00           nop
99be: 00           nop
99bf: 00           nop
99c0: ff           rst  $38
99c1: ff           rst  $38
99c2: 00           nop
99c3: 00           nop
99c4: 6c           ld   l,h
99c5: 00           nop
99c6: 04           inc  b
99c7: 49           ld   c,c
99c8: 03           inc  bc
99c9: 00           nop
99ca: 00           nop
99cb: 00           nop
99cc: 4c           ld   c,h
99cd: 09           add  hl,bc
99ce: 0a           ld   a,(bc)
99cf: 0f           rrca
99d0: 40           ld   b,b
99d1: f1           pop  af
99d2: ff           rst  $38
99d3: e2 ff 00     jp   po,$00FF
99d6: 00           nop
99d7: 78           ld   a,b
99d8: 02           ld   (bc),a
99d9: 00           nop
99da: 00           nop
99db: 6c           ld   l,h
99dc: 00           nop
99dd: 07           rlca
99de: 49           ld   c,c
99df: 03           inc  bc
99e0: 00           nop
99e1: 00           nop
99e2: 00           nop
99e3: 78           ld   a,b
99e4: 08           ex   af,af'
99e5: 00           nop
99e6: 00           nop
99e7: 00           nop
99e8: 00           nop
99e9: 00           nop
99ea: 00           nop
99eb: 00           nop
99ec: 00           nop
99ed: 4c           ld   c,h
99ee: 03           inc  bc
99ef: 12           ld   (de),a
99f0: 07           rlca
99f1: 40           ld   b,b
99f2: 68           ld   l,b
99f3: 00           nop
99f4: 78           ld   a,b
99f5: 08           ex   af,af'
99f6: 00           nop
99f7: 00           nop
99f8: 00           nop
99f9: 00           nop
99fa: 00           nop
99fb: 00           nop
99fc: 00           nop
99fd: 00           nop
99fe: 4c           ld   c,h
99ff: 03           inc  bc
9a00: 12           ld   (de),a
9a01: 07           rlca
9a02: 40           ld   b,b
9a03: 68           ld   l,b
9a04: 00           nop
9a05: 04           inc  b
9a06: 49           ld   c,c
9a07: 03           inc  bc
9a08: 00           nop
9a09: 00           nop
9a0a: 00           nop
9a0b: 78           ld   a,b
9a0c: 02           ld   (bc),a
9a0d: ff           rst  $38
9a0e: ff           rst  $38
9a0f: 4c           ld   c,h
9a10: 01 02 6c     ld   bc,$6C02
9a13: 00           nop
9a14: 04           inc  b
9a15: 49           ld   c,c
9a16: 03           inc  bc
9a17: 00           nop
9a18: 00           nop
9a19: 00           nop
9a1a: 4a           ld   c,d
9a1b: 02           ld   (bc),a
9a1c: ff           rst  $38
9a1d: ff           rst  $38
9a1e: 4c           ld   c,h
9a1f: 03           inc  bc
9a20: 02           ld   (bc),a
9a21: 00           nop
9a22: 40           ld   b,b
9a23: a0           and  b
9a24: 00           nop
9a25: 04           inc  b
9a26: 49           ld   c,c
9a27: 03           inc  bc
9a28: 00           nop
9a29: 00           nop
9a2a: 00           nop
9a2b: 4a           ld   c,d
9a2c: 02           ld   (bc),a
9a2d: 00           nop
9a2e: 00           nop
9a2f: 4c           ld   c,h
9a30: 03           inc  bc
9a31: 02           ld   (bc),a
9a32: 00           nop
9a33: 40           ld   b,b
9a34: 20 00        jr   nz,$9A36
9a36: 04           inc  b
9a37: 49           ld   c,c
9a38: 03           inc  bc
9a39: 00           nop
9a3a: 00           nop
9a3b: 00           nop
9a3c: 78           ld   a,b
9a3d: 02           ld   (bc),a
9a3e: 00           nop
9a3f: 00           nop
9a40: 4c           ld   c,h
9a41: 09           add  hl,bc
9a42: 0a           ld   a,(bc)
9a43: 00           nop
9a44: 00           nop
9a45: 00           nop
9a46: 00           nop
9a47: 00           nop
9a48: 00           nop
9a49: 00           nop
9a4a: 00           nop
9a4b: 6c           ld   l,h
9a4c: 00           nop
9a4d: 00           nop
9a4e: 00           nop
9a4f: 00           nop
9a50: 00           nop
9a51: 00           nop
9a52: 00           nop
9a53: 00           nop
9a54: 00           nop
9a55: ff           rst  $38
9a56: ff           rst  $38
9a57: ff           rst  $38
9a58: ff           rst  $38
9a59: ff           rst  $38
9a5a: ff           rst  $38
9a5b: ff           rst  $38
9a5c: ff           rst  $38
9a5d: 00           nop
9a5e: 00           nop
9a5f: 40           ld   b,b
9a60: 00           nop
9a61: 00           nop
9a62: 00           nop
9a63: 00           nop
9a64: 00           nop
9a65: 00           nop
9a66: 7f           ld   a,a
9a67: 02           ld   (bc),a
9a68: 8f           adc  a,a
9a69: 01 00 00     ld   bc,$0000
9a6c: 02           ld   (bc),a
9a6d: 00           nop
9a6e: 00           nop
9a6f: 00           nop
9a70: 00           nop
9a71: 20 11        jr   nz,$9A84
9a73: 55           ld   d,l
9a74: 00           nop
9a75: 00           nop
9a76: 00           nop
9a77: 00           nop
9a78: 00           nop
9a79: 00           nop
9a7a: 00           nop
9a7b: 00           nop
9a7c: 00           nop
9a7d: 00           nop
9a7e: 00           nop
9a7f: 00           nop
9a80: 00           nop
9a81: 00           nop
9a82: 00           nop
9a83: 00           nop
9a84: 00           nop
9a85: 00           nop
9a86: 00           nop
9a87: 00           nop
9a88: 00           nop
9a89: 00           nop
9a8a: 00           nop
9a8b: 00           nop
9a8c: 00           nop
9a8d: 00           nop
9a8e: 00           nop
9a8f: 00           nop
9a90: 00           nop
9a91: 00           nop
9a92: 00           nop
9a93: 00           nop
9a94: 00           nop
9a95: 00           nop
9a96: 00           nop
9a97: 00           nop
9a98: 00           nop
9a99: 00           nop
9a9a: 00           nop
9a9b: 00           nop
9a9c: 00           nop
9a9d: 00           nop
9a9e: 00           nop
9a9f: 00           nop
9aa0: 8f           adc  a,a
9aa1: 83           add  a,e
9aa2: ed 53 08 87  ld   ($8708),de
9aa6: 79           ld   a,c
9aa7: 32 2e 87     ld   ($872E),a
9aaa: 3d           dec  a
9aab: 32 2a 87     ld   ($872A),a
9aae: 32 2c 87     ld   ($872C),a
9ab1: 22 0a 87     ld   ($870A),hl
9ab4: 11 44 87     ld   de,$8744
9ab7: 01 04 00     ld   bc,$0004
9aba: ed b0        ldir
9abc: 2a 0a 87     ld   hl,($870A)
9abf: 11 1a 87     ld   de,$871A
9ac2: 01 04 00     ld   bc,$0004
9ac5: ed b0        ldir
9ac7: 2a 0a 87     ld   hl,($870A)
9aca: 11 1e 87     ld   de,$871E
9acd: 01 04 00     ld   bc,$0004
9ad0: ed b0        ldir
9ad2: 2a 0a 87     ld   hl,($870A)
9ad5: 11 04 00     ld   de,$0004
9ad8: 19           add  hl,de
9ad9: cd 94 85     call $8594
9adc: 11 04 00     ld   de,$0004
9adf: 19           add  hl,de
9ae0: 3a 2a 87     ld   a,($872A)
9ae3: 3d           dec  a
9ae4: 32 2a 87     ld   ($872A),a
9ae7: c2 d9 83     jp   nz,$83D9
9aea: eb           ex   de,hl
9aeb: 2a 0a 87     ld   hl,($870A)
9aee: 01 04 00     ld   bc,$0004
9af1: ed b0        ldir
9af3: 2a 1c 87     ld   hl,($871C)
9af6: 22 30 87     ld   ($8730),hl
9af9: eb           ex   de,hl
9afa: 2a 20 87     ld   hl,($8720)
9afd: 7d           ld   a,l
9afe: 93           sub  e
9aff: 6f           ld   l,a
9b00: 7c           ld   a,h
9b01: 9a           sbc  a,d
9b02: 67           ld   h,a
9b03: 23           inc  hl
9b04: 22 22 87     ld   ($8722),hl
9b07: af           xor  a
9b08: 32 24 87     ld   ($8724),a
9b0b: 3a 2e 87     ld   a,($872E)
9b0e: 32 28 87     ld   ($8728),a
9b11: 6f           ld   l,a
9b12: 2d           dec  l
9b13: 26 00        ld   h,$00
9b15: 29           add  hl,hl
9b16: 29           add  hl,hl
9b17: 22 36 87     ld   ($8736),hl
9b1a: eb           ex   de,hl
9b1b: 2a 0a 87     ld   hl,($870A)
9b1e: 19           add  hl,de
9b1f: 23           inc  hl
9b20: 23           inc  hl
9b21: e5           push hl
9b22: e5           push hl
9b23: cd 47 86     call $8647
9b26: 32 34 87     ld   ($8734),a
9b29: e1           pop  hl
9b2a: 11 04 00     ld   de,$0004
9b2d: 19           add  hl,de
9b2e: cd 47 86     call $8647
9b31: 22 38 87     ld   ($8738),hl
9b34: 47           ld   b,a
9b35: 3a 34 87     ld   a,($8734)
9b38: b8           cp   b
9b39: e1           pop  hl
9b3a: ca d1 84     jp   z,$84D1
9b3d: e5           push hl
9b3e: cd 83 85     call $8583
9b41: 22 32 87     ld   ($8732),hl
9b44: d1           pop  de
9b45: 7c           ld   a,h
9b46: b5           or   l
9b47: ca d1 84     jp   z,$84D1
9b4a: 1b           dec  de
9b4b: 1b           dec  de
9b4c: 21 04 00     ld   hl,$0004
9b4f: 19           add  hl,de
9b50: e5           push hl
9b51: eb           ex   de,hl
9b52: cd 83 85     call $8583
9b55: 7c           ld   a,h
9b56: e6 80        and  $80
9b58: 47           ld   b,a
9b59: ca 63 84     jp   z,$8463
9b5c: 7d           ld   a,l
9b5d: 2f           cpl
9b5e: 6f           ld   l,a
9b5f: 7c           ld   a,h
9b60: 2f           cpl
9b61: 67           ld   h,a
9b62: 23           inc  hl
9b63: e5           push hl
9b64: 2a 38 87     ld   hl,($8738)
9b67: 7c           ld   a,h
9b68: e6 80        and  $80
9b6a: ca 76 84     jp   z,$8476
9b6d: a8           xor  b
9b6e: 47           ld   b,a
9b6f: 7d           ld   a,l
9b70: 2f           cpl
9b71: 6f           ld   l,a
9b72: 7c           ld   a,h
9b73: 2f           cpl
9b74: 67           ld   h,a
9b75: 23           inc  hl
9b76: d1           pop  de
9b77: c5           push bc
9b78: d5           push de
9b79: 44           ld   b,h
9b7a: 4d           ld   c,l
9b7b: cd 5f 86     call $865F
9b7e: c1           pop  bc
9b7f: e5           push hl
9b80: 2a 32 87     ld   hl,($8732)
9b83: 7c           ld   a,h
9b84: e6 80        and  $80
9b86: ca 92 84     jp   z,$8492
9b89: a8           xor  b
9b8a: 47           ld   b,a
9b8b: 7d           ld   a,l
9b8c: 2f           cpl
9b8d: 6f           ld   l,a
9b8e: 7c           ld   a,h
9b8f: 2f           cpl
9b90: 67           ld   h,a
9b91: 23           inc  hl
9b92: c5           push bc
9b93: 44           ld   b,h
9b94: 4d           ld   c,l
9b95: eb           ex   de,hl
9b96: 29           add  hl,hl
9b97: eb           ex   de,hl
9b98: e1           pop  hl
9b99: e3           ex   (sp),hl
9b9a: 7d           ld   a,l
9b9b: 8f           adc  a,a
9b9c: 6f           ld   l,a
9b9d: 7c           ld   a,h
9b9e: 8f           adc  a,a
9b9f: 67           ld   h,a
9ba0: 13           inc  de
9ba1: cd a9 87     call $87A9
9ba4: af           xor  a
9ba5: 7a           ld   a,d
9ba6: 1f           rra
9ba7: 57           ld   d,a
9ba8: 7b           ld   a,e
9ba9: 1f           rra
9baa: 5f           ld   e,a
9bab: eb           ex   de,hl
9bac: c1           pop  bc
9bad: 78           ld   a,b
9bae: b7           or   a
9baf: ca b9 84     jp   z,$84B9
9bb2: 7d           ld   a,l
9bb3: 2f           cpl
9bb4: 6f           ld   l,a
9bb5: 7c           ld   a,h
9bb6: 2f           cpl
9bb7: 67           ld   h,a
9bb8: 23           inc  hl
9bb9: eb           ex   de,hl
9bba: e1           pop  hl
9bbb: 4e           ld   c,(hl)
9bbc: 23           inc  hl
9bbd: 46           ld   b,(hl)
9bbe: eb           ex   de,hl
9bbf: 09           add  hl,bc
9bc0: eb           ex   de,hl
9bc1: 2a 24 87     ld   hl,($8724)
9bc4: 23           inc  hl
9bc5: 22 24 87     ld   ($8724),hl
9bc8: 2b           dec  hl
9bc9: 29           add  hl,hl
9bca: 01 80 b5     ld   bc,$B580
9bcd: 09           add  hl,bc
9bce: 73           ld   (hl),e
9bcf: 23           inc  hl
9bd0: 72           ld   (hl),d
9bd1: 3a 28 87     ld   a,($8728)
9bd4: 3d           dec  a
9bd5: 32 28 87     ld   ($8728),a
9bd8: c2 11 84     jp   nz,$8411
9bdb: 3a 24 87     ld   a,($8724)
9bde: fe 02        cp   $02
9be0: da 6a 85     jp   c,$856A
9be3: cd f7 85     call $85F7
9be6: 21 8f 01     ld   hl,$018F
9be9: ed 5b 1c 87  ld   de,($871C)
9bed: ed 52        sbc  hl,de
9bef: eb           ex   de,hl
9bf0: 2a 22 87     ld   hl,($8722)
9bf3: ed 52        sbc  hl,de
9bf5: fa ff 84     jp   m,$84FF
9bf8: ca ff 84     jp   z,$84FF
9bfb: ed 53 22 87  ld   ($8722),de
9bff: 3a 24 87     ld   a,($8724)
9c02: 3c           inc  a
9c03: e6 fe        and  $FE
9c05: 0f           rrca
9c06: 32 26 87     ld   ($8726),a
9c09: 2a 30 87     ld   hl,($8730)
9c0c: 22 46 87     ld   ($8746),hl
9c0f: 22 4a 87     ld   ($874A),hl
9c12: 7d           ld   a,l
9c13: e6 07        and  $07
9c15: 6f           ld   l,a
9c16: 26 00        ld   h,$00
9c18: eb           ex   de,hl
9c19: 2a 08 87     ld   hl,($8708)
9c1c: 19           add  hl,de
9c1d: 7e           ld   a,(hl)
9c1e: 32 3a 87     ld   ($873A),a
9c21: 67           ld   h,a
9c22: 6f           ld   l,a
9c23: 22 94 87     ld   ($8794),hl
9c26: 21 80 b5     ld   hl,$B580
9c29: 5e           ld   e,(hl)
9c2a: 23           inc  hl
9c2b: 56           ld   d,(hl)
9c2c: eb           ex   de,hl
9c2d: 23           inc  hl
9c2e: 22 44 87     ld   ($8744),hl
9c31: 22 40 87     ld   ($8740),hl
9c34: eb           ex   de,hl
9c35: 23           inc  hl
9c36: 7b           ld   a,e
9c37: cd e1 85     call $85E1
9c3a: 5e           ld   e,(hl)
9c3b: 23           inc  hl
9c3c: 56           ld   d,(hl)
9c3d: 23           inc  hl
9c3e: e5           push hl
9c3f: 1b           dec  de
9c40: 2a 40 87     ld   hl,($8740)
9c43: cd db 85     call $85DB
9c46: d2 5f 85     jp   nc,$855F
9c49: eb           ex   de,hl
9c4a: 22 48 87     ld   ($8748),hl
9c4d: 11 7f 02     ld   de,$027F
9c50: ed 52        sbc  hl,de
9c52: ca 5c 85     jp   z,$855C
9c55: fa 5c 85     jp   m,$855C
9c58: ed 53 48 87  ld   ($8748),de
9c5c: cd 97 86     call $8697
9c5f: 3a 26 87     ld   a,($8726)
9c62: 3d           dec  a
9c63: 32 26 87     ld   ($8726),a
9c66: e1           pop  hl
9c67: c2 29 85     jp   nz,$8529
9c6a: 2a 30 87     ld   hl,($8730)
9c6d: 23           inc  hl
9c6e: 22 30 87     ld   ($8730),hl
9c71: 2a 22 87     ld   hl,($8722)
9c74: 2b           dec  hl
9c75: 22 22 87     ld   ($8722),hl
9c78: 7d           ld   a,l
9c79: b7           or   a
9c7a: c2 07 84     jp   nz,$8407
9c7d: 7c           ld   a,h
9c7e: b7           or   a
9c7f: c2 07 84     jp   nz,$8407
9c82: c9           ret
9c83: 4e           ld   c,(hl)
9c84: 23           inc  hl
9c85: 46           ld   b,(hl)
9c86: 11 03 00     ld   de,$0003
9c89: 19           add  hl,de
9c8a: 5e           ld   e,(hl)
9c8b: 23           inc  hl
9c8c: 56           ld   d,(hl)
9c8d: 79           ld   a,c
9c8e: 93           sub  e
9c8f: 6f           ld   l,a
9c90: 78           ld   a,b
9c91: 9a           sbc  a,d
9c92: 67           ld   h,a
9c93: c9           ret
9c94: e5           push hl
9c95: 5e           ld   e,(hl)
9c96: 23           inc  hl
9c97: 56           ld   d,(hl)
9c98: 2a 1a 87     ld   hl,($871A)
9c9b: cd db 85     call $85DB
9c9e: da a8 85     jp   c,$85A8
9ca1: eb           ex   de,hl
9ca2: 22 1a 87     ld   ($871A),hl
9ca5: c3 b5 85     jp   $85B5
9ca8: 2a 1e 87     ld   hl,($871E)
9cab: cd db 85     call $85DB
9cae: d2 b5 85     jp   nc,$85B5
9cb1: eb           ex   de,hl
9cb2: 22 1e 87     ld   ($871E),hl
9cb5: e1           pop  hl
9cb6: e5           push hl
9cb7: 23           inc  hl
9cb8: 23           inc  hl
9cb9: 5e           ld   e,(hl)
9cba: 23           inc  hl
9cbb: 56           ld   d,(hl)
9cbc: 2a 1c 87     ld   hl,($871C)
9cbf: cd db 85     call $85DB
9cc2: da cc 85     jp   c,$85CC
9cc5: eb           ex   de,hl
9cc6: 22 1c 87     ld   ($871C),hl
9cc9: c3 d9 85     jp   $85D9
9ccc: 2a 20 87     ld   hl,($8720)
9ccf: cd db 85     call $85DB
9cd2: d2 d9 85     jp   nc,$85D9
9cd5: eb           ex   de,hl
9cd6: 22 20 87     ld   ($8720),hl
9cd9: e1           pop  hl
9cda: c9           ret
9cdb: 7c           ld   a,h
9cdc: ba           cp   d
9cdd: c0           ret  nz
9cde: 7d           ld   a,l
9cdf: bb           cp   e
9ce0: c9           ret
9ce1: e6 07        and  $07
9ce3: b7           or   a
9ce4: 4f           ld   c,a
9ce5: 3a 3a 87     ld   a,($873A)
9ce8: ca f0 85     jp   z,$85F0
9ceb: 0f           rrca
9cec: 0d           dec  c
9ced: c2 eb 85     jp   nz,$85EB
9cf0: 32 94 87     ld   ($8794),a
9cf3: 32 95 87     ld   ($8795),a
9cf6: c9           ret
9cf7: 3d           dec  a
9cf8: 32 10 87     ld   ($8710),a
9cfb: 3e 01        ld   a,$01
9cfd: 32 12 87     ld   ($8712),a
9d00: 21 80 b5     ld   hl,$B580
9d03: 22 14 87     ld   ($8714),hl
9d06: 2a 14 87     ld   hl,($8714)
9d09: 5e           ld   e,(hl)
9d0a: 23           inc  hl
9d0b: 56           ld   d,(hl)
9d0c: 23           inc  hl
9d0d: 7e           ld   a,(hl)
9d0e: 23           inc  hl
9d0f: 66           ld   h,(hl)
9d10: 6f           ld   l,a
9d11: cd db 85     call $85DB
9d14: d2 28 86     jp   nc,$8628
9d17: eb           ex   de,hl
9d18: e5           push hl
9d19: 2a 14 87     ld   hl,($8714)
9d1c: 73           ld   (hl),e
9d1d: 23           inc  hl
9d1e: 72           ld   (hl),d
9d1f: 23           inc  hl
9d20: d1           pop  de
9d21: 73           ld   (hl),e
9d22: 23           inc  hl
9d23: 72           ld   (hl),d
9d24: 2b           dec  hl
9d25: c3 2d 86     jp   $862D
9d28: 2a 14 87     ld   hl,($8714)
9d2b: 23           inc  hl
9d2c: 23           inc  hl
9d2d: 22 14 87     ld   ($8714),hl
9d30: 3a 12 87     ld   a,($8712)
9d33: 3c           inc  a
9d34: 32 12 87     ld   ($8712),a
9d37: 47           ld   b,a
9d38: 3a 10 87     ld   a,($8710)
9d3b: b8           cp   b
9d3c: d2 06 86     jp   nc,$8606
9d3f: 3d           dec  a
9d40: 32 10 87     ld   ($8710),a
9d43: c2 fb 85     jp   nz,$85FB
9d46: c9           ret
9d47: e5           push hl
9d48: 2a 30 87     ld   hl,($8730)
9d4b: eb           ex   de,hl
9d4c: e1           pop  hl
9d4d: 4e           ld   c,(hl)
9d4e: 23           inc  hl
9d4f: 46           ld   b,(hl)
9d50: 7b           ld   a,e
9d51: 91           sub  c
9d52: 6f           ld   l,a
9d53: 7a           ld   a,d
9d54: 98           sbc  a,b
9d55: 67           ld   h,a
9d56: d2 5b 86     jp   nc,$865B
9d59: 26 ff        ld   h,$FF
9d5b: 1f           rra
9d5c: e6 80        and  $80
9d5e: c9           ret
9d5f: e1           pop  hl
9d60: e3           ex   (sp),hl
9d61: e5           push hl
9d62: 3e 10        ld   a,$10
9d64: 32 0e 87     ld   ($870E),a
9d67: af           xor  a
9d68: 21 00 00     ld   hl,$0000
9d6b: 11 00 00     ld   de,$0000
9d6e: 78           ld   a,b
9d6f: 1f           rra
9d70: 47           ld   b,a
9d71: 79           ld   a,c
9d72: 1f           rra
9d73: 4f           ld   c,a
9d74: d2 7e 86     jp   nc,$867E
9d77: eb           ex   de,hl
9d78: e3           ex   (sp),hl
9d79: eb           ex   de,hl
9d7a: 19           add  hl,de
9d7b: eb           ex   de,hl
9d7c: e3           ex   (sp),hl
9d7d: eb           ex   de,hl
9d7e: 7c           ld   a,h
9d7f: 1f           rra
9d80: 67           ld   h,a
9d81: 7d           ld   a,l
9d82: 1f           rra
9d83: 6f           ld   l,a
9d84: 7a           ld   a,d
9d85: 1f           rra
9d86: 57           ld   d,a
9d87: 7b           ld   a,e
9d88: 1f           rra
9d89: 5f           ld   e,a
9d8a: 3a 0e 87     ld   a,($870E)
9d8d: 3d           dec  a
9d8e: 32 0e 87     ld   ($870E),a
9d91: c2 6e 86     jp   nz,$866E
9d94: 33           inc  sp
9d95: 33           inc  sp
9d96: c9           ret
9d97: 2a 44 87     ld   hl,($8744)
9d9a: 23           inc  hl
9d9b: ed 5b 46 87  ld   de,($8746)
9d9f: cd bf 69     call $69BF
9da2: 22 8f 87     ld   ($878F),hl
9da5: 32 91 87     ld   ($8791),a
9da8: 2a 48 87     ld   hl,($8748)
9dab: ed 5b 44 87  ld   de,($8744)
9daf: 13           inc  de
9db0: cd 70 6d     call $6D70
9db3: 7c           ld   a,h
9db4: e6 80        and  $80
9db6: 3e 09        ld   a,$09
9db8: 28 09        jr   z,$9DC3
9dba: 2b           dec  hl
9dbb: 7d           ld   a,l
9dbc: 2f           cpl
9dbd: 6f           ld   l,a
9dbe: 7c           ld   a,h
9dbf: 2f           cpl
9dc0: 67           ld   h,a
9dc1: 3e 0e        ld   a,$0E
9dc3: 32 98 87     ld   ($8798),a
9dc6: e5           push hl
9dc7: 2b           dec  hl
9dc8: 7c           ld   a,h
9dc9: cb 7f        bit  7,a
9dcb: 20 1e        jr   nz,$9DEB
9dcd: 3a c5 4f     ld   a,($4FC5)
9dd0: b4           or   h
9dd1: 67           ld   h,a
9dd2: 22 99 87     ld   ($8799),hl
9dd5: e1           pop  hl
9dd6: 7d           ld   a,l
9dd7: 2f           cpl
9dd8: 6f           ld   l,a
9dd9: 7c           ld   a,h
9dda: 2f           cpl
9ddb: 67           ld   h,a
9ddc: 23           inc  hl
9ddd: 22 9b 87     ld   ($879B),hl
9de0: 29           add  hl,hl
9de1: 22 9d 87     ld   ($879D),hl
9de4: 21 8c 87     ld   hl,$878C
9de7: cd 82 81     call $8182
9dea: c9           ret
9deb: e1           pop  hl
9dec: c9           ret
9ded: 00           nop
9dee: 00           nop
9def: d5           push de
9df0: eb           ex   de,hl
9df1: 21 05 87     ld   hl,$8705
9df4: af           xor  a
9df5: 73           ld   (hl),e
9df6: 7a           ld   a,d
9df7: ed 67        rrd  (hl)
9df9: 5e           ld   e,(hl)
9dfa: cb 3a        srl  d
9dfc: cb 3a        srl  d
9dfe: cb 3a        srl  d
9e00: cb 3a        srl  d
9e02: eb           ex   de,hl
9e03: d1           pop  de
9e04: c9           ret
9e05: 00           nop
9e06: 00           nop
9e07: 00           nop
9e08: 00           nop
9e09: 00           nop
9e0a: 00           nop
9e0b: 00           nop
9e0c: 00           nop
9e0d: 00           nop
9e0e: 00           nop
9e0f: 00           nop
9e10: 00           nop
9e11: 00           nop
9e12: 00           nop
9e13: 00           nop
9e14: 00           nop
9e15: 00           nop
9e16: 00           nop
9e17: 00           nop
9e18: 00           nop
9e19: 00           nop
9e1a: 00           nop
9e1b: 00           nop
9e1c: 00           nop
9e1d: 00           nop
9e1e: 00           nop
9e1f: 00           nop
9e20: 00           nop
9e21: 00           nop
9e22: 00           nop
9e23: 00           nop
9e24: 00           nop
9e25: 00           nop
9e26: 00           nop
9e27: 00           nop
9e28: 00           nop
9e29: 00           nop
9e2a: 00           nop
9e2b: 00           nop
9e2c: 00           nop
9e2d: 00           nop
9e2e: 00           nop
9e2f: 00           nop
9e30: 00           nop
9e31: 00           nop
9e32: 00           nop
9e33: 00           nop
9e34: 00           nop
9e35: 00           nop
9e36: 00           nop
9e37: 00           nop
9e38: 00           nop
9e39: 00           nop
9e3a: 00           nop
9e3b: 00           nop
9e3c: 00           nop
9e3d: 00           nop
9e3e: 00           nop
9e3f: 00           nop
9e40: 00           nop
9e41: 00           nop
9e42: 00           nop
9e43: 00           nop
9e44: 00           nop
9e45: 00           nop
9e46: 00           nop
9e47: 00           nop
9e48: 00           nop
9e49: 00           nop
9e4a: 00           nop
9e4b: 00           nop
9e4c: ff           rst  $38
9e4d: ff           rst  $38
9e4e: 7f           ld   a,a
9e4f: ff           rst  $38
9e50: 3f           ccf
9e51: ff           rst  $38
9e52: 1f           rra
9e53: ff           rst  $38
9e54: 0f           rrca
9e55: ff           rst  $38
9e56: 07           rlca
9e57: ff           rst  $38
9e58: 03           inc  bc
9e59: ff           rst  $38
9e5a: 00           nop
9e5b: ff           rst  $38
9e5c: 00           nop
9e5d: 7f           ld   a,a
9e5e: 00           nop
9e5f: 3f           ccf
9e60: 00           nop
9e61: 1f           rra
9e62: 00           nop
9e63: 0f           rrca
9e64: 00           nop
9e65: 07           rlca
9e66: 00           nop
9e67: 03           inc  bc
9e68: 00           nop
9e69: 01 00 00     ld   bc,$0000
9e6c: ff           rst  $38
9e6d: ff           rst  $38
9e6e: ff           rst  $38
9e6f: ff           rst  $38
9e70: ff           rst  $38
9e71: ff           rst  $38
9e72: ff           rst  $38
9e73: ff           rst  $38
9e74: ff           rst  $38
9e75: ff           rst  $38
9e76: ff           rst  $38
9e77: ff           rst  $38
9e78: ff           rst  $38
9e79: ff           rst  $38
9e7a: ff           rst  $38
9e7b: ff           rst  $38
9e7c: ff           rst  $38
9e7d: ff           rst  $38
9e7e: ff           rst  $38
9e7f: ff           rst  $38
9e80: ff           rst  $38
9e81: ff           rst  $38
9e82: ff           rst  $38
9e83: ff           rst  $38
9e84: ff           rst  $38
9e85: ff           rst  $38
9e86: ff           rst  $38
9e87: ff           rst  $38
9e88: ff           rst  $38
9e89: ff           rst  $38
9e8a: ff           rst  $38
9e8b: ff           rst  $38
9e8c: 04           inc  b
9e8d: 49           ld   c,c
9e8e: 03           inc  bc
9e8f: 00           nop
9e90: 00           nop
9e91: 00           nop
9e92: 78           ld   a,b
9e93: 02           ld   (bc),a
9e94: 00           nop
9e95: 00           nop
9e96: 4c           ld   c,h
9e97: 09           add  hl,bc
9e98: 00           nop
9e99: 00           nop
9e9a: 00           nop
9e9b: 00           nop
9e9c: 00           nop
9e9d: 00           nop
9e9e: 00           nop
9e9f: 00           nop
9ea0: 00           nop
9ea1: 6c           ld   l,h
9ea2: 00           nop
9ea3: 00           nop
9ea4: 00           nop
9ea5: eb           ex   de,hl
9ea6: 21 00 00     ld   hl,$0000
9ea9: af           xor  a
9eaa: 32 a3 87     ld   ($87A3),a
9ead: 79           ld   a,c
9eae: b0           or   b
9eaf: c2 b5 87     jp   nz,$87B5
9eb2: c3 ee 87     jp   $87EE
9eb5: 78           ld   a,b
9eb6: 2f           cpl
9eb7: 47           ld   b,a
9eb8: 79           ld   a,c
9eb9: 2f           cpl
9eba: 4f           ld   c,a
9ebb: 03           inc  bc
9ebc: 3e 11        ld   a,$11
9ebe: 3d           dec  a
9ebf: c2 c6 87     jp   nz,$87C6
9ec2: eb           ex   de,hl
9ec3: c3 ec 87     jp   $87EC
9ec6: 29           add  hl,hl
9ec7: da e0 87     jp   c,$87E0
9eca: eb           ex   de,hl
9ecb: 29           add  hl,hl
9ecc: eb           ex   de,hl
9ecd: d2 d1 87     jp   nc,$87D1
9ed0: 2c           inc  l
9ed1: e5           push hl
9ed2: 09           add  hl,bc
9ed3: da da 87     jp   c,$87DA
9ed6: e1           pop  hl
9ed7: c3 be 87     jp   $87BE
9eda: 1c           inc  e
9edb: 33           inc  sp
9edc: 33           inc  sp
9edd: c3 be 87     jp   $87BE
9ee0: eb           ex   de,hl
9ee1: 29           add  hl,hl
9ee2: eb           ex   de,hl
9ee3: d2 e7 87     jp   nc,$87E7
9ee6: 2c           inc  l
9ee7: 09           add  hl,bc
9ee8: 1c           inc  e
9ee9: c3 be 87     jp   $87BE
9eec: eb           ex   de,hl
9eed: c9           ret
9eee: c9           ret
9eef: af           xor  a
9ef0: 32 a3 87     ld   ($87A3),a
9ef3: b1           or   c
9ef4: c2 00 88     jp   nz,$8800
9ef7: b0           or   b
9ef8: ca 65 88     jp   z,$8865
9efb: ee 80        xor  $80
9efd: ca 65 88     jp   z,$8865
9f00: 78           ld   a,b
9f01: a7           and  a
9f02: fa 2d 88     jp   m,$882D
9f05: b2           or   d
9f06: fa 0e 88     jp   m,$880E
9f09: eb           ex   de,hl
9f0a: cd a5 87     call $87A5
9f0d: c9           ret
9f0e: 7d           ld   a,l
9f0f: fe 01        cp   $01
9f11: ca 26 88     jp   z,$8826
9f14: 7b           ld   a,e
9f15: 2f           cpl
9f16: 6f           ld   l,a
9f17: 7a           ld   a,d
9f18: 2f           cpl
9f19: 67           ld   h,a
9f1a: 23           inc  hl
9f1b: cd a5 87     call $87A5
9f1e: 7b           ld   a,e
9f1f: 2f           cpl
9f20: 5f           ld   e,a
9f21: 7a           ld   a,d
9f22: 2f           cpl
9f23: 57           ld   d,a
9f24: 13           inc  de
9f25: c9           ret
9f26: 21 ff ff     ld   hl,$FFFF
9f29: cd a9 87     call $87A9
9f2c: c9           ret
9f2d: af           xor  a
9f2e: 91           sub  c
9f2f: 4f           ld   c,a
9f30: 3e 00        ld   a,$00
9f32: 98           sbc  a,b
9f33: 47           ld   b,a
9f34: 7a           ld   a,d
9f35: a7           and  a
9f36: fa 53 88     jp   m,$8853
9f39: c2 40 88     jp   nz,$8840
9f3c: b3           or   e
9f3d: ca 53 88     jp   z,$8853
9f40: eb           ex   de,hl
9f41: cd a5 87     call $87A5
9f44: 7b           ld   a,e
9f45: 2f           cpl
9f46: 5f           ld   e,a
9f47: 7a           ld   a,d
9f48: 2f           cpl
9f49: 57           ld   d,a
9f4a: 13           inc  de
9f4b: 7d           ld   a,l
9f4c: 91           sub  c
9f4d: 6f           ld   l,a
9f4e: 7c           ld   a,h
9f4f: 98           sbc  a,b
9f50: 67           ld   h,a
9f51: 23           inc  hl
9f52: c9           ret
9f53: af           xor  a
9f54: 93           sub  e
9f55: 6f           ld   l,a
9f56: 3e 00        ld   a,$00
9f58: 9a           sbc  a,d
9f59: 67           ld   h,a
9f5a: cd a5 87     call $87A5
9f5d: af           xor  a
9f5e: 95           sub  l
9f5f: 6f           ld   l,a
9f60: 3e 00        ld   a,$00
9f62: 9c           sbc  a,h
9f63: 67           ld   h,a
9f64: c9           ret
9f65: c3 ee 87     jp   $87EE
9f68: 3e 01        ld   a,$01
9f6a: 32 a3 87     ld   ($87A3),a
9f6d: 11 ff ff     ld   de,$FFFF
9f70: 21 00 00     ld   hl,$0000
9f73: c9           ret
9f74: e1           pop  hl
9f75: c1           pop  bc
9f76: d1           pop  de
9f77: e5           push hl
9f78: 2e 00        ld   l,$00
9f7a: cd ef 87     call $87EF
9f7d: e1           pop  hl
9f7e: d5           push de
9f7f: e9           jp   (hl)
9f80: e1           pop  hl
9f81: c1           pop  bc
9f82: d1           pop  de
9f83: e5           push hl
9f84: 2e 01        ld   l,$01
9f86: cd ef 87     call $87EF
9f89: e3           ex   (sp),hl
9f8a: e9           jp   (hl)
9f8b: d1           pop  de
9f8c: c1           pop  bc
9f8d: e1           pop  hl
9f8e: d5           push de
9f8f: cd a5 87     call $87A5
9f92: eb           ex   de,hl
9f93: e3           ex   (sp),hl
9f94: e9           jp   (hl)
9f95: d1           pop  de
9f96: c1           pop  bc
9f97: e1           pop  hl
9f98: d5           push de
9f99: cd a5 87     call $87A5
9f9c: e3           ex   (sp),hl
9f9d: e9           jp   (hl)
9f9e: c9           ret
9f9f: dd 21 b9 88  ld   ix,$88B9
9fa3: dd 6e 00     ld   l,(ix+$00)
9fa6: dd 66 01     ld   h,(ix+$01)
9fa9: dd 7e 02     ld   a,(ix+$02)
9fac: dd 4e 04     ld   c,(ix+$04)
9faf: dd 46 05     ld   b,(ix+$05)
9fb2: dd 5e 06     ld   e,(ix+$06)
9fb5: dd 56 07     ld   d,(ix+$07)
9fb8: c9           ret
9fb9: 00           nop
9fba: 00           nop
9fbb: 00           nop
9fbc: 00           nop
9fbd: 00           nop
9fbe: 00           nop
9fbf: 00           nop
9fc0: 00           nop
9fc1: 00           nop
9fc2: 00           nop
9fc3: 00           nop
9fc4: 00           nop
9fc5: 00           nop
9fc6: 00           nop
9fc7: 00           nop
9fc8: 00           nop
9fc9: 00           nop
9fca: 00           nop
9fcb: 00           nop
9fcc: 00           nop
9fcd: 00           nop
9fce: 00           nop
9fcf: 00           nop
9fd0: 00           nop
9fd1: 00           nop
9fd2: 00           nop
9fd3: 00           nop
9fd4: 00           nop
9fd5: 00           nop
9fd6: 00           nop
9fd7: 00           nop
9fd8: 00           nop
9fd9: cd 9f 88     call $889F
9fdc: 06 00        ld   b,$00
9fde: b7           or   a
9fdf: 28 09        jr   z,$9FEA
9fe1: f5           push af
9fe2: 7d           ld   a,l
9fe3: fe 01        cp   $01
9fe5: 38 0a        jr   c,$9FF1
9fe7: f1           pop  af
9fe8: 06 00        ld   b,$00
9fea: 65           ld   h,l
9feb: 2e 01        ld   l,$01
9fed: cd 00 52     call $5200
9ff0: c9           ret
9ff1: f1           pop  af
9ff2: 06 00        ld   b,$00
9ff4: 18 f4        jr   $9FEA
9ff6: cd 9f 88     call $889F
9ff9: ed 43 5c 89  ld   ($895C),bc
9ffd: ed 53 5a 89  ld   ($895A),de
a001: af           xor  a
a002: 62           ld   h,d
a003: 6b           ld   l,e
a004: 11 18 00     ld   de,$0018
a007: ed 52        sbc  hl,de
a009: 3e ff        ld   a,$FF
a00b: 30 01        jr   nc,$A00E
a00d: af           xor  a
a00e: 32 59 89     ld   ($8959),a
a011: 3a 38 27     ld   a,($2738)
a014: b7           or   a
a015: 21 18 00     ld   hl,$0018
a018: 22 64 89     ld   ($8964),hl
a01b: 2a d1 38     ld   hl,($38D1)
a01e: 28 09        jr   z,$A029
a020: 21 19 00     ld   hl,$0019
a023: 22 64 89     ld   ($8964),hl
a026: 2a b2 4f     ld   hl,($4FB2)
a029: ed 5b 5a 89  ld   de,($895A)
a02d: cd 3d 89     call $893D
a030: 2a 60 89     ld   hl,($8960)
a033: 65           ld   h,l
a034: ed 5b 5c 89  ld   de,($895C)
a038: 6b           ld   l,e
a039: cd e6 12     call $12E6
a03c: c9           ret
a03d: 22 5e 89     ld   ($895E),hl
a040: 21 00 00     ld   hl,$0000
a043: ed 4b 64 89  ld   bc,($8964)
a047: cd a9 87     call $87A9
a04a: 22 60 89     ld   ($8960),hl
a04d: 7b           ld   a,e
a04e: ed 5b 5e 89  ld   de,($895E)
a052: cd e2 8a     call $8AE2
a055: 22 62 89     ld   ($8962),hl
a058: c9           ret
a059: 00           nop
a05a: 00           nop
a05b: 00           nop
a05c: 00           nop
a05d: 00           nop
a05e: 00           nop
a05f: 00           nop
a060: 00           nop
a061: 00           nop
a062: 00           nop
a063: 00           nop
a064: 00           nop
a065: 00           nop
a066: cd 9f 88     call $889F
a069: 22 e3 89     ld   ($89E3),hl
a06c: 21 00 00     ld   hl,$0000
a06f: ed 43 df 89  ld   ($89DF),bc
a073: ed 53 e1 89  ld   ($89E1),de
a077: 3a 38 27     ld   a,($2738)
a07a: b7           or   a
a07b: 3a f5 54     ld   a,($54F5)
a07e: 28 02        jr   z,$A082
a080: cb 3f        srl  a
a082: cd e2 8a     call $8AE2
a085: 22 e1 89     ld   ($89E1),hl
a088: 3e 70        ld   a,$70
a08a: 32 0b 8b     ld   ($8B0B),a
a08d: 3e 02        ld   a,$02
a08f: 32 0c 8b     ld   ($8B0C),a
a092: 21 3f 8b     ld   hl,$8B3F
a095: 22 0d 8b     ld   ($8B0D),hl
a098: ed 4b df 89  ld   bc,($89DF)
a09c: 2a e1 89     ld   hl,($89E1)
a09f: 09           add  hl,bc
a0a0: e5           push hl
a0a1: 3a 38 27     ld   a,($2738)
a0a4: b7           or   a
a0a5: 28 08        jr   z,$A0AF
a0a7: ed 5b aa 4f  ld   de,($4FAA)
a0ab: 19           add  hl,de
a0ac: 22 aa 4f     ld   ($4FAA),hl
a0af: e1           pop  hl
a0b0: ed 5b e3 89  ld   de,($89E3)
a0b4: 7b           ld   a,e
a0b5: b7           or   a
a0b6: 20 05        jr   nz,$A0BD
a0b8: 22 3f 8b     ld   ($8B3F),hl
a0bb: 18 0e        jr   $A0CB
a0bd: 22 43 8b     ld   ($8B43),hl
a0c0: 21 43 8b     ld   hl,$8B43
a0c3: 22 0d 8b     ld   ($8B0D),hl
a0c6: 3e 74        ld   a,$74
a0c8: 32 0b 8b     ld   ($8B0B),a
a0cb: cd 0f 8b     call $8B0F
a0ce: 21 00 00     ld   hl,$0000
a0d1: cd e6 12     call $12E6
a0d4: 3a 38 27     ld   a,($2738)
a0d7: b7           or   a
a0d8: cc 9e 88     call z,$889E
a0db: c4 9e 88     call nz,$889E
a0de: c9           ret
a0df: 00           nop
a0e0: 00           nop
a0e1: 00           nop
a0e2: 00           nop
a0e3: 00           nop
a0e4: 00           nop
a0e5: cd 9f 88     call $889F
a0e8: 3e 10        ld   a,$10
a0ea: cd e2 8a     call $8AE2
a0ed: 22 7f 8a     ld   ($8A7F),hl
a0f0: eb           ex   de,hl
a0f1: 21 90 01     ld   hl,$0190
a0f4: ed 52        sbc  hl,de
a0f6: 22 81 8a     ld   ($8A81),hl
a0f9: 2a 7f 8a     ld   hl,($8A7F)
a0fc: cb 25        sla  l
a0fe: cb 25        sla  l
a100: cb 25        sla  l
a102: cb 25        sla  l
a104: 7d           ld   a,l
a105: 32 41 8b     ld   ($8B41),a
a108: 2a 7f 8a     ld   hl,($8A7F)
a10b: cb 3d        srl  l
a10d: cb 3d        srl  l
a10f: cb 3d        srl  l
a111: cb 3d        srl  l
a113: cb 24        sla  h
a115: cb 24        sla  h
a117: cb 24        sla  h
a119: cb 24        sla  h
a11b: 7d           ld   a,l
a11c: b4           or   h
a11d: 67           ld   h,a
a11e: 3a 38 27     ld   a,($2738)
a121: b7           or   a
a122: 28 02        jr   z,$A126
a124: cb f4        set  6,h
a126: 7c           ld   a,h
a127: 32 42 8b     ld   ($8B42),a
a12a: 2a 81 8a     ld   hl,($8A81)
a12d: cb 25        sla  l
a12f: cb 25        sla  l
a131: cb 25        sla  l
a133: cb 25        sla  l
a135: 7d           ld   a,l
a136: 32 45 8b     ld   ($8B45),a
a139: 2a 81 8a     ld   hl,($8A81)
a13c: cb 3d        srl  l
a13e: cb 3d        srl  l
a140: cb 3d        srl  l
a142: cb 3d        srl  l
a144: cb 24        sla  h
a146: cb 24        sla  h
a148: cb 24        sla  h
a14a: cb 24        sla  h
a14c: 7d           ld   a,l
a14d: b4           or   h
a14e: 67           ld   h,a
a14f: 3a 38 27     ld   a,($2738)
a152: b7           or   a
a153: 28 02        jr   z,$A157
a155: cb f4        set  6,h
a157: 7c           ld   a,h
a158: 32 46 8b     ld   ($8B46),a
a15b: 3e 70        ld   a,$70
a15d: 32 0b 8b     ld   ($8B0B),a
a160: 3e 08        ld   a,$08
a162: 32 0c 8b     ld   ($8B0C),a
a165: 21 3f 8b     ld   hl,$8B3F
a168: 22 0d 8b     ld   ($8B0D),hl
a16b: cd 0f 8b     call $8B0F
a16e: 21 00 00     ld   hl,$0000
a171: cd e6 12     call $12E6
a174: 3a 38 27     ld   a,($2738)
a177: b7           or   a
a178: cc 9e 88     call z,$889E
a17b: c4 9e 88     call nz,$889E
a17e: c9           ret
a17f: 00           nop
a180: 00           nop
a181: 00           nop
a182: 00           nop
a183: cd 9f 88     call $889F
a186: ed 43 b2 8a  ld   ($8AB2),bc
a18a: ed 53 b4 8a  ld   ($8AB4),de
a18e: 79           ld   a,c
a18f: d3 3a        out  ($3A),a
a191: cb 21        sla  c
a193: cb 21        sla  c
a195: cb 21        sla  c
a197: cb 21        sla  c
a199: 79           ld   a,c
a19a: b3           or   e
a19b: 32 e1 8a     ld   ($8AE1),a
a19e: cd d4 8a     call $8AD4
a1a1: 21 00 00     ld   hl,$0000
a1a4: cd e6 12     call $12E6
a1a7: 3a 38 27     ld   a,($2738)
a1aa: b7           or   a
a1ab: cc 9e 88     call z,$889E
a1ae: c4 9e 88     call nz,$889E
a1b1: c9           ret
a1b2: 00           nop
a1b3: 00           nop
a1b4: 00           nop
a1b5: 00           nop
a1b6: db 38        in   a,($38)
a1b8: e6 04        and  $04
a1ba: 28 fa        jr   z,$A1B6
a1bc: c9           ret
a1bd: db 38        in   a,($38)
a1bf: e6 01        and  $01
a1c1: 28 fa        jr   z,$A1BD
a1c3: c9           ret
a1c4: cd b6 8a     call $8AB6
a1c7: 3e 0d        ld   a,$0D
a1c9: d3 39        out  ($39),a
a1cb: c9           ret
a1cc: cd b6 8a     call $8AB6
a1cf: 3e 0c        ld   a,$0C
a1d1: d3 39        out  ($39),a
a1d3: c9           ret
a1d4: cd b6 8a     call $8AB6
a1d7: 3e 46        ld   a,$46
a1d9: d3 39        out  ($39),a
a1db: 3a e1 8a     ld   a,($8AE1)
a1de: d3 38        out  ($38),a
a1e0: c9           ret
a1e1: 00           nop
a1e2: 21 00 00     ld   hl,$0000
a1e5: 06 08        ld   b,$08
a1e7: 29           add  hl,hl
a1e8: 07           rlca
a1e9: 30 01        jr   nc,$A1EC
a1eb: 19           add  hl,de
a1ec: 05           dec  b
a1ed: 20 f8        jr   nz,$A1E7
a1ef: c9           ret
a1f0: 7c           ld   a,h
a1f1: 4d           ld   c,l
a1f2: 21 00 00     ld   hl,$0000
a1f5: 06 10        ld   b,$10
a1f7: cb 11        rl   c
a1f9: 17           rla
a1fa: ed 6a        adc  hl,hl
a1fc: ed 52        sbc  hl,de
a1fe: 30 01        jr   nc,$A201
a200: 19           add  hl,de
a201: 3f           ccf
a202: 10 f3        djnz $A1F7
a204: cb 11        rl   c
a206: 17           rla
a207: eb           ex   de,hl
a208: 67           ld   h,a
a209: 69           ld   l,c
a20a: c9           ret
a20b: 70           ld   (hl),b
a20c: 00           nop
a20d: 3f           ccf
a20e: 8b           adc  a,e
a20f: db 38        in   a,($38)
a211: e6 20        and  $20
a213: 28 fa        jr   z,$A20F
a215: 3a c4 4f     ld   a,($4FC4)
a218: b7           or   a
a219: 28 10        jr   z,$A22B
a21b: 3a 42 8b     ld   a,($8B42)
a21e: cb b7        res  6,a
a220: 32 42 8b     ld   ($8B42),a
a223: 3a 46 8b     ld   a,($8B46)
a226: cb b7        res  6,a
a228: 32 46 8b     ld   ($8B46),a
a22b: cd b6 8a     call $8AB6
a22e: 3a 0b 8b     ld   a,($8B0B)
a231: d3 39        out  ($39),a
a233: 2a 0d 8b     ld   hl,($8B0D)
a236: 0e 38        ld   c,$38
a238: 3a 0c 8b     ld   a,($8B0C)
a23b: 47           ld   b,a
a23c: ed b3        otir
a23e: c9           ret
a23f: 00           nop
a240: 00           nop
a241: 00           nop
a242: 00           nop
a243: 00           nop
a244: 00           nop
a245: 00           nop
a246: 00           nop
a247: 00           nop
a248: 00           nop
a249: 00           nop
a24a: 00           nop
a24b: 00           nop
a24c: 00           nop
a24d: 00           nop
a24e: 00           nop
a24f: 00           nop
a250: 3a c4 4f     ld   a,($4FC4)
a253: b7           or   a
a254: 28 08        jr   z,$A25E
a256: 3a 73 8b     ld   a,($8B73)
a259: cb b7        res  6,a
a25b: 32 73 8b     ld   ($8B73),a
a25e: cd b6 8a     call $8AB6
a261: 3e 4c        ld   a,$4C
a263: d3 39        out  ($39),a
a265: 21 71 8b     ld   hl,$8B71
a268: 3a 4f 8b     ld   a,($8B4F)
a26b: 47           ld   b,a
a26c: 0e 38        ld   c,$38
a26e: ed b3        otir
a270: c9           ret
a271: 00           nop
a272: 00           nop
a273: 00           nop
a274: 08           ex   af,af'
a275: 00           nop
a276: 08           ex   af,af'
a277: 00           nop
a278: 00           nop
a279: 00           nop
a27a: 00           nop
a27b: 00           nop
a27c: 2f           cpl
a27d: 00           nop
a27e: b4           or   h
a27f: 21 b5 21     ld   hl,$21B5
a282: bc           cp   h
a283: 2f           cpl
a284: c5           push bc
a285: 3f           ccf
a286: cc 2a cd     call z,$CD2A
a289: 4f           ld   c,a
a28a: ce 2a        adc  a,$2A
a28c: cf           rst  $08
a28d: 4f           ld   c,a
a28e: d0           ret  nc
a28f: 63           ld   h,e
a290: da 2c db     jp   c,$DB2C
a293: 21 dc 27     ld   hl,$27DC
a296: dd 2c        inc  ixl
a298: de 21        sbc  a,$21
a29a: df           rst  $18
a29b: 27           daa
a29c: e0           ret  po
a29d: 2a e1 2a     ld   hl,($2AE1)
a2a0: e2 2a e3     jp   po,$E32A
a2a3: 2a e4 2c     ld   hl,($2CE4)
a2a6: e5           push hl
a2a7: 27           daa
a2a8: e6 27        and  $27
a2aa: e7           rst  $20
a2ab: 27           daa
a2ac: e8           ret  pe
a2ad: 2d           dec  l
a2ae: e9           jp   (hl)
a2af: 21 ea 2d     ld   hl,$2DEA
a2b2: eb           ex   de,hl
a2b3: 2b           dec  hl
a2b4: ec 2d ed     call pe,$ED2D
a2b7: 2d           dec  l
a2b8: ee 2b        xor  $2B
a2ba: ef           rst  $28
a2bb: 2d           dec  l
a2bc: f0           ret  p
a2bd: 2a f1 2a     ld   hl,($2AF1)
a2c0: f2 2a f3     jp   p,$F32A
a2c3: 2a f4 2c     ld   hl,($2CF4)
a2c6: f5           push af
a2c7: 27           daa
a2c8: f6 2c        or   $2C
a2ca: f7           rst  $30
a2cb: 27           daa
a2cc: f8           ret  m
a2cd: 2d           dec  l
a2ce: f9           ld   sp,hl
a2cf: 21 fa 2c     ld   hl,$2CFA
a2d2: fb           ei
a2d3: 21 fc 27     ld   hl,$27FC
a2d6: fd 2c        inc  iyl
a2d8: fe 21        cp   $21
a2da: ff           rst  $38
a2db: 27           daa
a2dc: 00           nop
a2dd: 01 0c 01     ld   bc,$010C
a2e0: 0d           dec  c
a2e1: 02           ld   (bc),a
a2e2: 0d           dec  c
a2e3: 0a           ld   a,(bc)
a2e4: 03           inc  bc
a2e5: 1b           dec  de
a2e6: 33           inc  sp
a2e7: 18 02        jr   $A2EB
a2e9: 1b           dec  de
a2ea: 40           ld   b,b
a2eb: 00           nop
a2ec: 00           nop
a2ed: 50           ld   d,b
a2ee: 18 05        jr   $A2F5
a2f0: 1b           dec  de
a2f1: 2a 04 00     ld   hl,($0004)
a2f4: 00           nop
a2f5: 04           inc  b
a2f6: 1b           dec  de
a2f7: 4c           ld   c,h
a2f8: 00           nop
a2f9: 00           nop
a2fa: 00           nop
a2fb: 00           nop
a2fc: 00           nop
a2fd: 00           nop
a2fe: 00           nop
a2ff: 00           nop
a300: 00           nop
a301: 00           nop
a302: 00           nop
a303: 00           nop
a304: 00           nop
a305: 00           nop
a306: 00           nop
a307: 00           nop
a308: 00           nop
a309: 00           nop
a30a: 00           nop
a30b: 00           nop
a30c: 00           nop
a30d: 00           nop
a30e: 00           nop
a30f: 00           nop
a310: 00           nop
a311: 00           nop
a312: 00           nop
a313: 00           nop
a314: 5e           ld   e,(hl)
a315: a1           and  c
a316: 5e           ld   e,(hl)
a317: 9c           sbc  a,h
a318: de 9e        sbc  a,$9E
a31a: dd e5        push ix
a31c: fd e5        push iy
a31e: e5           push hl
a31f: d5           push de
a320: c5           push bc
a321: f5           push af
a322: 3a 67 f0     ld   a,($F067)
a325: a7           and  a
a326: c2 9e 8c     jp   nz,$8C9E
a329: 3d           dec  a
a32a: 32 67 f0     ld   ($F067),a
a32d: 3a 3e 27     ld   a,($273E)
a330: 47           ld   b,a
a331: 3a 3d 27     ld   a,($273D)
a334: a7           and  a
a335: c2 ac 8c     jp   nz,$8CAC
a338: 3a 36 27     ld   a,($2736)
a33b: a7           and  a
a33c: ca 9a 8c     jp   z,$8C9A
a33f: fe 03        cp   $03
a341: dc 27 8d     call c,$8D27
a344: dc 3f 8d     call c,$8D3F
a347: fe 09        cp   $09
a349: ca 70 8c     jp   z,$8C70
a34c: fe 07        cp   $07
a34e: 20 0a        jr   nz,$A35A
a350: cb 78        bit  7,b
a352: cc 27 8d     call z,$8D27
a355: cc 3f 8d     call z,$8D3F
a358: 18 16        jr   $A370
a35a: fe 08        cp   $08
a35c: 20 0a        jr   nz,$A368
a35e: cb 78        bit  7,b
a360: cc 27 8d     call z,$8D27
a363: cc 3f 8d     call z,$8D3F
a366: 18 08        jr   $A370
a368: fe 0a        cp   $0A
a36a: d4 27 8d     call nc,$8D27
a36d: d4 3f 8d     call nc,$8D3F
a370: 3a f6 54     ld   a,($54F6)
a373: a7           and  a
a374: c4 17 8d     call nz,$8D17
a377: 78           ld   a,b
a378: 32 dc 8b     ld   ($8BDC),a
a37b: cb 6f        bit  5,a
a37d: 3e 18        ld   a,$18
a37f: c2 83 8c     jp   nz,$8C83
a382: 3c           inc  a
a383: 32 ee 8b     ld   ($8BEE),a
a386: cd ab 8f     call $8FAB
a389: cd e3 12     call $12E3
a38c: e5           push hl
a38d: cd 45 8d     call $8D45
a390: e1           pop  hl
a391: cd e6 12     call $12E6
a394: cd c8 8f     call $8FC8
a397: cd b8 8f     call $8FB8
a39a: 97           sub  a
a39b: 32 67 f0     ld   ($F067),a
a39e: 21 66 f0     ld   hl,$F066
a3a1: cb 86        res  0,(hl)
a3a3: f1           pop  af
a3a4: c1           pop  bc
a3a5: d1           pop  de
a3a6: e1           pop  hl
a3a7: fd e1        pop  iy
a3a9: dd e1        pop  ix
a3ab: c9           ret
a3ac: 11 bd 8c     ld   de,$8CBD
a3af: 01 b5 f2     ld   bc,$F2B5
a3b2: 3e 03        ld   a,$03
a3b4: 21 00 01     ld   hl,$0100
a3b7: cd b5 f2     call $F2B5
a3ba: c3 9a 8c     jp   $8C9A
a3bd: c3 a7 12     jp   $12A7
a3c0: c3 c3 8c     jp   $8CC3
a3c3: d5           push de
a3c4: c5           push bc
a3c5: cd db 8c     call $8CDB
a3c8: c1           pop  bc
a3c9: e5           push hl
a3ca: 41           ld   b,c
a3cb: 0e 00        ld   c,$00
a3cd: cd 9b f3     call $F39B
a3d0: e1           pop  hl
a3d1: d1           pop  de
a3d2: 01 00 05     ld   bc,$0500
a3d5: cd a5 f3     call $F3A5
a3d8: c9           ret
a3d9: 00           nop
a3da: 00           nop
a3db: 21 5e 9c     ld   hl,$9C5E
a3de: 22 d9 8c     ld   ($8CD9),hl
a3e1: c5           push bc
a3e2: cd e3 12     call $12E3
a3e5: e3           ex   (sp),hl
a3e6: 2e 00        ld   l,$00
a3e8: 06 50        ld   b,$50
a3ea: e5           push hl
a3eb: c5           push bc
a3ec: cd e9 12     call $12E9
a3ef: cd ff 8c     call $8CFF
a3f2: c1           pop  bc
a3f3: e1           pop  hl
a3f4: 2c           inc  l
a3f5: 10 f3        djnz $A3EA
a3f7: e1           pop  hl
a3f8: cd e6 12     call $12E6
a3fb: 21 5e 9c     ld   hl,$9C5E
a3fe: c9           ret
a3ff: eb           ex   de,hl
a400: 2a d9 8c     ld   hl,($8CD9)
a403: 23           inc  hl
a404: 22 d9 8c     ld   ($8CD9),hl
a407: 2b           dec  hl
a408: 01 50 00     ld   bc,$0050
a40b: d9           exx
a40c: 06 10        ld   b,$10
a40e: d9           exx
a40f: 1a           ld   a,(de)
a410: 77           ld   (hl),a
a411: 13           inc  de
a412: 09           add  hl,bc
a413: d9           exx
a414: 10 f8        djnz $A40E
a416: c9           ret
a417: cd 3f 8d     call $8D3F
a41a: cd 3c 8d     call $8D3C
a41d: cd 42 8d     call $8D42
a420: cb 40        bit  0,b
a422: c8           ret  z
a423: e1           pop  hl
a424: c3 9a 8c     jp   $8C9A
a427: cb c0        set  0,b
a429: c9           ret
a42a: cb c8        set  1,b
a42c: c9           ret
a42d: cb d0        set  2,b
a42f: c9           ret
a430: cb d8        set  3,b
a432: c9           ret
a433: cb e0        set  4,b
a435: c9           ret
a436: cb 80        res  0,b
a438: c9           ret
a439: cb 88        res  1,b
a43b: c9           ret
a43c: cb 90        res  2,b
a43e: c9           ret
a43f: cb 98        res  3,b
a441: c9           ret
a442: cb a0        res  4,b
a444: c9           ret
a445: 97           sub  a
a446: 32 ec 8b     ld   ($8BEC),a
a449: cd 64 8f     call $8F64
a44c: 97           sub  a
a44d: 32 eb 8b     ld   ($8BEB),a
a450: 2a eb 8b     ld   hl,($8BEB)
a453: cd e9 12     call $12E9
a456: cd 79 8d     call $8D79
a459: 21 ed 8b     ld   hl,$8BED
a45c: 3a eb 8b     ld   a,($8BEB)
a45f: 3c           inc  a
a460: 32 eb 8b     ld   ($8BEB),a
a463: be           cp   (hl)
a464: c2 50 8d     jp   nz,$8D50
a467: cd f1 8d     call $8DF1
a46a: 21 ee 8b     ld   hl,$8BEE
a46d: 3a ec 8b     ld   a,($8BEC)
a470: 3c           inc  a
a471: 32 ec 8b     ld   ($8BEC),a
a474: be           cp   (hl)
a475: c2 49 8d     jp   nz,$8D49
a478: c9           ret
a479: e5           push hl
a47a: 16 20        ld   d,$20
a47c: 97           sub  a
a47d: b0           or   b
a47e: c2 82 8d     jp   nz,$8D82
a481: 42           ld   b,d
a482: 3a dc 8b     ld   a,($8BDC)
a485: 5f           ld   e,a
a486: cb 53        bit  2,e
a488: 28 06        jr   z,$A490
a48a: cb 51        bit  2,c
a48c: c2 90 8d     jp   nz,$8D90
a48f: 42           ld   b,d
a490: cb 63        bit  4,e
a492: 28 05        jr   z,$A499
a494: cb 71        bit  6,c
a496: 28 01        jr   z,$A499
a498: 42           ld   b,d
a499: cb 43        bit  0,e
a49b: 28 22        jr   z,$A4BF
a49d: cb 78        bit  7,b
a49f: c2 a8 8d     jp   nz,$8DA8
a4a2: 78           ld   a,b
a4a3: fe 7f        cp   $7F
a4a5: fa bf 8d     jp   m,$8DBF
a4a8: c5           push bc
a4a9: 78           ld   a,b
a4aa: ed 4b 7c 8b  ld   bc,($8B7C)
a4ae: 21 7e 8b     ld   hl,$8B7E
a4b1: ed a1        cpi
a4b3: 28 08        jr   z,$A4BD
a4b5: 23           inc  hl
a4b6: ea b1 8d     jp   pe,$8DB1
a4b9: c1           pop  bc
a4ba: 42           ld   b,d
a4bb: 18 02        jr   $A4BF
a4bd: c1           pop  bc
a4be: 46           ld   b,(hl)
a4bf: 2a 14 8c     ld   hl,($8C14)
a4c2: 70           ld   (hl),b
a4c3: 23           inc  hl
a4c4: 71           ld   (hl),c
a4c5: 23           inc  hl
a4c6: 22 14 8c     ld   ($8C14),hl
a4c9: e1           pop  hl
a4ca: cb 43        bit  0,e
a4cc: c2 f0 8d     jp   nz,$8DF0
a4cf: cb 59        bit  3,c
a4d1: c2 d4 8d     jp   nz,$8DD4
a4d4: ed 5b 16 8c  ld   de,($8C16)
a4d8: ed 4b 18 8c  ld   bc,($8C18)
a4dc: cd 81 8f     call $8F81
a4df: 11 08 00     ld   de,$0008
a4e2: 2a 16 8c     ld   hl,($8C16)
a4e5: 19           add  hl,de
a4e6: 22 16 8c     ld   ($8C16),hl
a4e9: 2a 18 8c     ld   hl,($8C18)
a4ec: 19           add  hl,de
a4ed: 22 18 8c     ld   ($8C18),hl
a4f0: c9           ret
a4f1: 3a dc 8b     ld   a,($8BDC)
a4f4: cb 47        bit  0,a
a4f6: c2 48 8f     jp   nz,$8F48
a4f9: cb 5f        bit  3,a
a4fb: c2 0b 8e     jp   nz,$8E0B
a4fe: cd 5c 8e     call $8E5C
a501: cd e9 8f     call $8FE9
a504: cd 6c 8e     call $8E6C
a507: cd e9 8f     call $8FE9
a50a: c9           ret
a50b: cd 5c 8e     call $8E5C
a50e: cd 2a 8e     call $8E2A
a511: cd 5c 8e     call $8E5C
a514: cd 5c 8e     call $8E5C
a517: cd e9 8f     call $8FE9
a51a: cd 6c 8e     call $8E6C
a51d: cd 31 8e     call $8E31
a520: cd 6c 8e     call $8E6C
a523: cd 6c 8e     call $8E6C
a526: cd e9 8f     call $8FE9
a529: c9           ret
a52a: dd 21 5e 9c  ld   ix,$9C5E
a52e: c3 35 8e     jp   $8E35
a531: dd 21 de 9e  ld   ix,$9EDE
a535: fd 21 5e a1  ld   iy,$A15E
a539: 0e 50        ld   c,$50
a53b: 06 08        ld   b,$08
a53d: fd 23        inc  iy
a53f: fd 7e 00     ld   a,(iy+$00)
a542: fd 23        inc  iy
a544: 5f           ld   e,a
a545: 97           sub  a
a546: cb 5b        bit  3,e
a548: c2 50 8e     jp   nz,$8E50
a54b: cb 53        bit  2,e
a54d: c2 53 8e     jp   nz,$8E53
a550: dd 77 00     ld   (ix+$00),a
a553: dd 23        inc  ix
a555: 10 ef        djnz $A546
a557: 0d           dec  c
a558: c2 3b 8e     jp   nz,$8E3B
a55b: c9           ret
a55c: 21 dd 9e     ld   hl,$9EDD
a55f: cd 59 8f     call $8F59
a562: 21 5e 9c     ld   hl,$9C5E
a565: c4 7c 8e     call nz,$8E7C
a568: cd e2 8f     call $8FE2
a56b: c9           ret
a56c: 21 5d a1     ld   hl,$A15D
a56f: cd 59 8f     call $8F59
a572: 21 de 9e     ld   hl,$9EDE
a575: c4 7c 8e     call nz,$8E7C
a578: cd e2 8f     call $8FE2
a57b: c9           ret
a57c: 03           inc  bc
a57d: 3a 36 27     ld   a,($2736)
a580: fe 07        cp   $07
a582: ca b3 8e     jp   z,$8EB3
a585: fe 08        cp   $08
a587: ca b3 8e     jp   z,$8EB3
a58a: ed 43 f3 8b  ld   ($8BF3),bc
a58e: e5           push hl
a58f: fe 09        cp   $09
a591: c2 9c 8e     jp   nz,$8E9C
a594: 3a dc 8b     ld   a,($8BDC)
a597: cb 77        bit  6,a
a599: c2 d4 8e     jp   nz,$8ED4
a59c: 21 ef 8b     ld   hl,$8BEF
a59f: cd d5 8f     call $8FD5
a5a2: e1           pop  hl
a5a3: ed 4b f3 8b  ld   bc,($8BF3)
a5a7: 7e           ld   a,(hl)
a5a8: 23           inc  hl
a5a9: cd f0 8f     call $8FF0
a5ac: 0b           dec  bc
a5ad: 78           ld   a,b
a5ae: b1           or   c
a5af: c2 a7 8e     jp   nz,$8EA7
a5b2: c9           ret
a5b3: e5           push hl
a5b4: c5           push bc
a5b5: 21 a0 00     ld   hl,$00A0
a5b8: 09           add  hl,bc
a5b9: 22 f8 8b     ld   ($8BF8),hl
a5bc: 21 f5 8b     ld   hl,$8BF5
a5bf: cd d5 8f     call $8FD5
a5c2: 01 a0 00     ld   bc,$00A0
a5c5: 97           sub  a
a5c6: cd f0 8f     call $8FF0
a5c9: 0b           dec  bc
a5ca: 78           ld   a,b
a5cb: b1           or   c
a5cc: 20 f7        jr   nz,$A5C5
a5ce: c1           pop  bc
a5cf: e1           pop  hl
a5d0: cd a7 8e     call $8EA7
a5d3: c9           ret
a5d4: 21 f2 8b     ld   hl,$8BF2
a5d7: 7e           ld   a,(hl)
a5d8: 32 07 8f     ld   ($8F07),a
a5db: 36 27        ld   (hl),$27
a5dd: ed 5b f3 8b  ld   de,($8BF3)
a5e1: 2a f3 8b     ld   hl,($8BF3)
a5e4: 19           add  hl,de
a5e5: 22 f3 8b     ld   ($8BF3),hl
a5e8: d5           push de
a5e9: 21 ef 8b     ld   hl,$8BEF
a5ec: cd d5 8f     call $8FD5
a5ef: d1           pop  de
a5f0: e1           pop  hl
a5f1: 7e           ld   a,(hl)
a5f2: 23           inc  hl
a5f3: e5           push hl
a5f4: d5           push de
a5f5: cd 08 8f     call $8F08
a5f8: d1           pop  de
a5f9: e1           pop  hl
a5fa: 1b           dec  de
a5fb: 7b           ld   a,e
a5fc: b2           or   d
a5fd: c2 f1 8e     jp   nz,$8EF1
a600: 3a 07 8f     ld   a,($8F07)
a603: 32 f2 8b     ld   ($8BF2),a
a606: c9           ret
a607: 00           nop
a608: 21 fc 8b     ld   hl,$8BFC
a60b: 57           ld   d,a
a60c: 0e 80        ld   c,$80
a60e: 7a           ld   a,d
a60f: a1           and  c
a610: ca 18 8f     jp   z,$8F18
a613: 3e 01        ld   a,$01
a615: c3 19 8f     jp   $8F19
a618: 97           sub  a
a619: 77           ld   (hl),a
a61a: 23           inc  hl
a61b: 77           ld   (hl),a
a61c: 23           inc  hl
a61d: 77           ld   (hl),a
a61e: 23           inc  hl
a61f: cb 09        rrc  c
a621: 30 eb        jr   nc,$A60E
a623: 1e 02        ld   e,$02
a625: 21 fc 8b     ld   hl,$8BFC
a628: 06 03        ld   b,$03
a62a: 0e 80        ld   c,$80
a62c: 16 00        ld   d,$00
a62e: 7e           ld   a,(hl)
a62f: 23           inc  hl
a630: fe 00        cp   $00
a632: ca 38 8f     jp   z,$8F38
a635: 7a           ld   a,d
a636: b1           or   c
a637: 57           ld   d,a
a638: cb 09        rrc  c
a63a: d2 2e 8f     jp   nc,$8F2E
a63d: 7a           ld   a,d
a63e: cd f0 8f     call $8FF0
a641: 10 e7        djnz $A62A
a643: 1d           dec  e
a644: c2 25 8f     jp   nz,$8F25
a647: c9           ret
a648: 21 5e a1     ld   hl,$A15E
a64b: 06 50        ld   b,$50
a64d: 7e           ld   a,(hl)
a64e: 23           inc  hl
a64f: 23           inc  hl
a650: cd f0 8f     call $8FF0
a653: 10 f8        djnz $A64D
a655: cd e9 8f     call $8FE9
a658: c9           ret
a659: 01 80 02     ld   bc,$0280
a65c: 97           sub  a
a65d: ed a9        cpd
a65f: c0           ret  nz
a660: ea 5d 8f     jp   pe,$8F5D
a663: c9           ret
a664: 21 5e a1     ld   hl,$A15E
a667: 22 14 8c     ld   ($8C14),hl
a66a: 21 de 9e     ld   hl,$9EDE
a66d: 22 18 8c     ld   ($8C18),hl
a670: 21 5e 9c     ld   hl,$9C5E
a673: 22 16 8c     ld   ($8C16),hl
a676: 11 5f 9c     ld   de,$9C5F
a679: 01 ff 04     ld   bc,$04FF
a67c: 36 00        ld   (hl),$00
a67e: ed b0        ldir
a680: c9           ret
a681: c5           push bc
a682: d5           push de
a683: 06 02        ld   b,$02
a685: dd e1        pop  ix
a687: 22 fa 8b     ld   ($8BFA),hl
a68a: 0e 01        ld   c,$01
a68c: 16 80        ld   d,$80
a68e: 2a fa 8b     ld   hl,($8BFA)
a691: 1e 00        ld   e,$00
a693: 7e           ld   a,(hl)
a694: 23           inc  hl
a695: a1           and  c
a696: 28 03        jr   z,$A69B
a698: 7b           ld   a,e
a699: b2           or   d
a69a: 5f           ld   e,a
a69b: cb 0a        rrc  d
a69d: 30 f4        jr   nc,$A693
a69f: dd 73 00     ld   (ix+$00),e
a6a2: dd 23        inc  ix
a6a4: cb 01        rlc  c
a6a6: 30 e4        jr   nc,$A68C
a6a8: 10 db        djnz $A685
a6aa: c9           ret
a6ab: 3a dc 8b     ld   a,($8BDC)
a6ae: cb 47        bit  0,a
a6b0: c0           ret  nz
a6b1: 21 e4 8b     ld   hl,$8BE4
a6b4: cd d5 8f     call $8FD5
a6b7: c9           ret
a6b8: 3a dc 8b     ld   a,($8BDC)
a6bb: cb 47        bit  0,a
a6bd: c0           ret  nz
a6be: cb 4f        bit  1,a
a6c0: c8           ret  z
a6c1: 21 e8 8b     ld   hl,$8BE8
a6c4: cd d5 8f     call $8FD5
a6c7: c9           ret
a6c8: 3a dc 8b     ld   a,($8BDC)
a6cb: cb 4f        bit  1,a
a6cd: c8           ret  z
a6ce: 21 dd 8b     ld   hl,$8BDD
a6d1: cd d5 8f     call $8FD5
a6d4: c9           ret
a6d5: 46           ld   b,(hl)
a6d6: 23           inc  hl
a6d7: 97           sub  a
a6d8: b0           or   b
a6d9: c8           ret  z
a6da: 7e           ld   a,(hl)
a6db: 23           inc  hl
a6dc: cd f0 8f     call $8FF0
a6df: 10 f9        djnz $A6DA
a6e1: c9           ret
a6e2: 21 df 8b     ld   hl,$8BDF
a6e5: cd d5 8f     call $8FD5
a6e8: c9           ret
a6e9: 21 e1 8b     ld   hl,$8BE1
a6ec: cd d5 8f     call $8FD5
a6ef: c9           ret
a6f0: e5           push hl
a6f1: d5           push de
a6f2: c5           push bc
a6f3: 4f           ld   c,a
a6f4: cd a7 12     call $12A7
a6f7: c1           pop  bc
a6f8: d1           pop  de
a6f9: e1           pop  hl
a6fa: c9           ret
a6fb: 79           ld   a,c
a6fc: 32 d4 91     ld   ($91D4),a
a6ff: fe 10        cp   $10
a701: d2 e6 90     jp   nc,$90E6
a704: 6f           ld   l,a
a705: 26 00        ld   h,$00
a707: 29           add  hl,hl
a708: 01 1f f6     ld   bc,$F61F
a70b: 09           add  hl,bc
a70c: 5e           ld   e,(hl)
a70d: 23           inc  hl
a70e: 56           ld   d,(hl)
a70f: 7a           ld   a,d
a710: b7           or   a
a711: ca c5 90     jp   z,$90C5
a714: 21 42 f7     ld   hl,$F742
a717: b7           or   a
a718: ed 52        sbc  hl,de
a71a: 20 07        jr   nz,$A723
a71c: 3a 35 27     ld   a,($2735)
a71f: b7           or   a
a720: ca c5 90     jp   z,$90C5
a723: eb           ex   de,hl
a724: e5           push hl
a725: e5           push hl
a726: dd e1        pop  ix
a728: dd 7e ff     ld   a,(ix-$01)
a72b: 32 d3 91     ld   ($91D3),a
a72e: dd 66 fb     ld   h,(ix-$05)
a731: dd 6e fa     ld   l,(ix-$06)
a734: cd d2 91     call $91D2
a737: e1           pop  hl
a738: c9           ret
a739: 2a d4 91     ld   hl,($91D4)
a73c: 26 00        ld   h,$00
a73e: 29           add  hl,hl
a73f: 11 1f f6     ld   de,$F61F
a742: 19           add  hl,de
a743: 7e           ld   a,(hl)
a744: 23           inc  hl
a745: 66           ld   h,(hl)
a746: 6f           ld   l,a
a747: e5           push hl
a748: dd e1        pop  ix
a74a: dd 66 f5     ld   h,(ix-$0b)
a74d: dd 6e f4     ld   l,(ix-$0c)
a750: e9           jp   (hl)
a751: ed 43 d5 91  ld   ($91D5),bc
a755: c9           ret
a756: ed 43 d7 91  ld   ($91D7),bc
a75a: c9           ret
a75b: 60           ld   h,b
a75c: 69           ld   l,c
a75d: c9           ret
a75e: ed 43 d9 91  ld   ($91D9),bc
a762: c9           ret
a763: 2a d4 91     ld   hl,($91D4)
a766: 26 00        ld   h,$00
a768: 29           add  hl,hl
a769: 11 1f f6     ld   de,$F61F
a76c: 19           add  hl,de
a76d: 7e           ld   a,(hl)
a76e: 23           inc  hl
a76f: 66           ld   h,(hl)
a770: 6f           ld   l,a
a771: e5           push hl
a772: dd e1        pop  ix
a774: dd 66 f9     ld   h,(ix-$07)
a777: dd 6e f8     ld   l,(ix-$08)
a77a: c3 94 90     jp   $9094
a77d: 2a d4 91     ld   hl,($91D4)
a780: 26 00        ld   h,$00
a782: 29           add  hl,hl
a783: 11 1f f6     ld   de,$F61F
a786: 19           add  hl,de
a787: 7e           ld   a,(hl)
a788: 23           inc  hl
a789: 66           ld   h,(hl)
a78a: 6f           ld   l,a
a78b: e5           push hl
a78c: dd e1        pop  ix
a78e: dd 66 f7     ld   h,(ix-$09)
a791: dd 6e f6     ld   l,(ix-$0a)
a794: dd 7e ff     ld   a,(ix-$01)
a797: 32 d3 91     ld   ($91D3),a
a79a: dd e5        push ix
a79c: d1           pop  de
a79d: e9           jp   (hl)
a79e: cd 01 91     call $9101
a7a1: 21 59 91     ld   hl,$9159
a7a4: fe 05        cp   $05
a7a6: 28 0a        jr   z,$A7B2
a7a8: 21 42 91     ld   hl,$9142
a7ab: fe 04        cp   $04
a7ad: 28 03        jr   z,$A7B2
a7af: 21 4d 91     ld   hl,$914D
a7b2: cd b1 14     call $14B1
a7b5: 21 8a 91     ld   hl,$918A
a7b8: cd 23 91     call $9123
a7bb: fe 41        cp   $41
a7bd: c0           ret  nz
a7be: af           xor  a
a7bf: cd 88 f3     call $F388
a7c2: c3 62 00     jp   $0062
a7c5: 3a 24 27     ld   a,($2724)
a7c8: b7           or   a
a7c9: 28 17        jr   z,$A7E2
a7cb: cd 01 91     call $9101
a7ce: 21 63 91     ld   hl,$9163
a7d1: cd b1 14     call $14B1
a7d4: 21 b1 91     ld   hl,$91B1
a7d7: cd 23 91     call $9123
a7da: fe 41        cp   $41
a7dc: 28 e0        jr   z,$A7BE
a7de: fe 43        cp   $43
a7e0: 20 e3        jr   nz,$A7C5
a7e2: 21 00 00     ld   hl,$0000
a7e5: c9           ret
a7e6: 3a 24 27     ld   a,($2724)
a7e9: b7           or   a
a7ea: 28 f6        jr   z,$A7E2
a7ec: cd 01 91     call $9101
a7ef: 21 70 91     ld   hl,$9170
a7f2: cd b1 14     call $14B1
a7f5: 21 c7 91     ld   hl,$91C7
a7f8: cd 23 91     call $9123
a7fb: fe 41        cp   $41
a7fd: 28 bf        jr   z,$A7BE
a7ff: 18 e5        jr   $A7E6
a801: f5           push af
a802: 3a d6 02     ld   a,($02D6)
a805: b7           or   a
a806: 28 07        jr   z,$A80F
a808: af           xor  a
a809: 32 d6 02     ld   ($02D6),a
a80c: 78           ld   a,b
a80d: 18 03        jr   $A812
a80f: 3a d4 91     ld   a,($91D4)
a812: c6 41        add  a,$41
a814: 32 3d 91     ld   ($913D),a
a817: 21 36 91     ld   hl,$9136
a81a: 3e 0b        ld   a,$0B
a81c: 0e 00        ld   c,$00
a81e: cd ec 12     call $12EC
a821: f1           pop  af
a822: c9           ret
a823: cd b1 14     call $14B1
a826: cd 6a 16     call $166A
a829: cd 69 12     call $1269
a82c: f5           push af
a82d: 3e 01        ld   a,$01
a82f: cd ef 12     call $12EF
a832: f1           pop  af
a833: e6 df        and  $DF
a835: c9           ret
a836: 20 44        jr   nz,$A87C
a838: 72           ld   (hl),d
a839: 69           ld   l,c
a83a: 76           halt
a83b: 65           ld   h,l
a83c: 20 41        jr   nz,$A87F
a83e: 20 2d        jr   nz,$A86D
a840: 20 00        jr   nz,$A842
a842: 53           ld   d,e
a843: 65           ld   h,l
a844: 65           ld   h,l
a845: 6b           ld   l,e
a846: 20 45        jr   nz,$A88D
a848: 72           ld   (hl),d
a849: 72           ld   (hl),d
a84a: 6f           ld   l,a
a84b: 72           ld   (hl),d
a84c: 00           nop
a84d: 52           ld   d,d
a84e: 64           ld   h,h
a84f: 2f           cpl
a850: 57           ld   d,a
a851: 72           ld   (hl),d
a852: 20 45        jr   nz,$A899
a854: 72           ld   (hl),d
a855: 72           ld   (hl),d
a856: 6f           ld   l,a
a857: 72           ld   (hl),d
a858: 00           nop
a859: 4e           ld   c,(hl)
a85a: 6f           ld   l,a
a85b: 74           ld   (hl),h
a85c: 20 52        jr   nz,$A8B0
a85e: 65           ld   h,l
a85f: 61           ld   h,c
a860: 64           ld   h,h
a861: 79           ld   a,c
a862: 00           nop
a863: 53           ld   d,e
a864: 65           ld   h,l
a865: 6c           ld   l,h
a866: 65           ld   h,l
a867: 63           ld   h,e
a868: 74           ld   (hl),h
a869: 20 45        jr   nz,$A8B0
a86b: 72           ld   (hl),d
a86c: 72           ld   (hl),d
a86d: 6f           ld   l,a
a86e: 72           ld   (hl),d
a86f: 00           nop
a870: 49           ld   c,c
a871: 6c           ld   l,h
a872: 6c           ld   l,h
a873: 65           ld   h,l
a874: 67           ld   h,a
a875: 61           ld   h,c
a876: 6c           ld   l,h
a877: 20 44        jr   nz,$A8BD
a879: 72           ld   (hl),d
a87a: 69           ld   l,c
a87b: 76           halt
a87c: 65           ld   h,l
a87d: 20 44        jr   nz,$A8C3
a87f: 65           ld   h,l
a880: 73           ld   (hl),e
a881: 69           ld   l,c
a882: 67           ld   h,a
a883: 6e           ld   l,(hl)
a884: 61           ld   h,c
a885: 74           ld   (hl),h
a886: 69           ld   l,c
a887: 6f           ld   l,a
a888: 6e           ld   l,(hl)
a889: 00           nop
a88a: 3a 20 28     ld   a,($2820)
a88d: 52           ld   d,d
a88e: 29           add  hl,hl
a88f: 65           ld   h,l
a890: 74           ld   (hl),h
a891: 72           ld   (hl),d
a892: 79           ld   a,c
a893: 2f           cpl
a894: 28 41        jr   z,$A8D7
a896: 29           add  hl,hl
a897: 62           ld   h,d
a898: 6f           ld   l,a
a899: 72           ld   (hl),d
a89a: 74           ld   (hl),h
a89b: 2f           cpl
a89c: 28 43        jr   z,$A8E1
a89e: 29           add  hl,hl
a89f: 6f           ld   l,a
a8a0: 6e           ld   l,(hl)
a8a1: 74           ld   (hl),h
a8a2: 69           ld   l,c
a8a3: 6e           ld   l,(hl)
a8a4: 75           ld   (hl),l
a8a5: 65           ld   h,l
a8a6: 2f           cpl
a8a7: 28 49        jr   z,$A8F2
a8a9: 29           add  hl,hl
a8aa: 67           ld   h,a
a8ab: 6e           ld   l,(hl)
a8ac: 6f           ld   l,a
a8ad: 72           ld   (hl),d
a8ae: 65           ld   h,l
a8af: 20 00        jr   nz,$A8B1
a8b1: 3a 20 28     ld   a,($2820)
a8b4: 41           ld   b,c
a8b5: 29           add  hl,hl
a8b6: 62           ld   h,d
a8b7: 6f           ld   l,a
a8b8: 72           ld   (hl),d
a8b9: 74           ld   (hl),h
a8ba: 2f           cpl
a8bb: 28 43        jr   z,$A900
a8bd: 29           add  hl,hl
a8be: 6f           ld   l,a
a8bf: 6e           ld   l,(hl)
a8c0: 74           ld   (hl),h
a8c1: 69           ld   l,c
a8c2: 6e           ld   l,(hl)
a8c3: 75           ld   (hl),l
a8c4: 65           ld   h,l
a8c5: 20 00        jr   nz,$A8C7
a8c7: 3a 20 28     ld   a,($2820)
a8ca: 41           ld   b,c
a8cb: 29           add  hl,hl
a8cc: 62           ld   h,d
a8cd: 6f           ld   l,a
a8ce: 72           ld   (hl),d
a8cf: 74           ld   (hl),h
a8d0: 20 00        jr   nz,$A8D2
a8d2: e9           jp   (hl)
a8d3: 00           nop
a8d4: 00           nop
a8d5: 00           nop
a8d6: 00           nop
a8d7: 00           nop
a8d8: 00           nop
a8d9: 00           nop
a8da: 00           nop
a8db: 00           nop
a8dc: 00           nop
a8dd: 3a d3 91     ld   a,($91D3)
a8e0: fe 02        cp   $02
a8e2: 38 0b        jr   c,$A8EF
a8e4: 3e 05        ld   a,$05
a8e6: cd 9e 90     call $909E
a8e9: fe 43        cp   $43
a8eb: 28 43        jr   z,$A930
a8ed: 18 f5        jr   $A8E4
a8ef: 32 20 98     ld   ($9820),a
a8f2: 5f           ld   e,a
a8f3: cd a2 92     call $92A2
a8f6: 21 4b f6     ld   hl,$F64B
a8f9: b7           or   a
a8fa: 28 05        jr   z,$A901
a8fc: 21 67 f6     ld   hl,$F667
a8ff: 18 12        jr   $A913
a901: 01 f0 97     ld   bc,$97F0
a904: ed 43 1c 98  ld   ($981C),bc
a908: 3a 30 98     ld   a,($9830)
a90b: b7           or   a
a90c: c8           ret  z
a90d: af           xor  a
a90e: 32 30 98     ld   ($9830),a
a911: 18 10        jr   $A923
a913: 01 a4 f6     ld   bc,$F6A4
a916: ed 43 1c 98  ld   ($981C),bc
a91a: 3a 31 98     ld   a,($9831)
a91d: b7           or   a
a91e: c8           ret  z
a91f: af           xor  a
a920: 32 31 98     ld   ($9831),a
a923: 06 00        ld   b,$00
a925: 3a 20 98     ld   a,($9820)
a928: 4f           ld   c,a
a929: e5           push hl
a92a: af           xor  a
a92b: cd f9 94     call $94F9
a92e: e1           pop  hl
a92f: c8           ret  z
a930: 21 00 00     ld   hl,$0000
a933: c9           ret
a934: 3a 27 98     ld   a,($9827)
a937: b7           or   a
a938: c2 3e 92     jp   nz,$923E
a93b: 32 26 98     ld   ($9826),a
a93e: 01 00 00     ld   bc,$0000
a941: ed 43 d5 91  ld   ($91D5),bc
a945: c9           ret
a946: 7b           ld   a,e
a947: b7           or   a
a948: 20 05        jr   nz,$A94F
a94a: 3a 3e 98     ld   a,($983E)
a94d: 5f           ld   e,a
a94e: c9           ret
a94f: 3a 3f 98     ld   a,($983F)
a952: 5f           ld   e,a
a953: c9           ret
a954: 7b           ld   a,e
a955: b7           or   a
a956: 3e 00        ld   a,$00
a958: 20 04        jr   nz,$A95E
a95a: 32 3e 98     ld   ($983E),a
a95d: c9           ret
a95e: 32 3f 98     ld   ($983F),a
a961: c9           ret
a962: 32 3b 98     ld   ($983B),a
a965: 3a 14 98     ld   a,($9814)
a968: b7           or   a
a969: 3a 3b 98     ld   a,($983B)
a96c: 20 04        jr   nz,$A972
a96e: 1e 01        ld   e,$01
a970: 97           sub  a
a971: c9           ret
a972: 4b           ld   c,e
a973: cd b5 92     call $92B5
a976: 57           ld   d,a
a977: 79           ld   a,c
a978: b7           or   a
a979: 7b           ld   a,e
a97a: 20 13        jr   nz,$A98F
a97c: 32 3e 98     ld   ($983E),a
a97f: 3c           inc  a
a980: 28 05        jr   z,$A987
a982: 21 77 f6     ld   hl,$F677
a985: 18 03        jr   $A98A
a987: 21 86 f6     ld   hl,$F686
a98a: 22 55 f6     ld   ($F655),hl
a98d: 7a           ld   a,d
a98e: c9           ret
a98f: 32 3f 98     ld   ($983F),a
a992: 3c           inc  a
a993: 28 05        jr   z,$A99A
a995: 21 95 f6     ld   hl,$F695
a998: 18 03        jr   $A99D
a99a: 21 b0 f6     ld   hl,$F6B0
a99d: 22 71 f6     ld   ($F671),hl
a9a0: 7a           ld   a,d
a9a1: c9           ret
a9a2: f5           push af
a9a3: d5           push de
a9a4: cd 46 92     call $9246
a9a7: 7b           ld   a,e
a9a8: b7           or   a
a9a9: 20 06        jr   nz,$A9B1
a9ab: d1           pop  de
a9ac: d5           push de
a9ad: 97           sub  a
a9ae: cd 62 92     call $9262
a9b1: d1           pop  de
a9b2: f1           pop  af
a9b3: c9           ret
a9b4: 00           nop
a9b5: c5           push bc
a9b6: 06 00        ld   b,$00
a9b8: cd f9 94     call $94F9
a9bb: b7           or   a
a9bc: 20 68        jr   nz,$AA26
a9be: 3e 04        ld   a,$04
a9c0: cd a5 96     call $96A5
a9c3: b7           or   a
a9c4: 20 60        jr   nz,$AA26
a9c6: 3e 4a        ld   a,$4A
a9c8: cd 68 97     call $9768
a9cb: 79           ld   a,c
a9cc: cd 68 97     call $9768
a9cf: cd 4e 97     call $974E
a9d2: 3a 33 98     ld   a,($9833)
a9d5: cb 57        bit  2,a
a9d7: 28 04        jr   z,$A9DD
a9d9: 3e 03        ld   a,$03
a9db: 18 1a        jr   $A9F7
a9dd: 3a 32 98     ld   a,($9832)
a9e0: cb 5f        bit  3,a
a9e2: 28 04        jr   z,$A9E8
a9e4: 3e 05        ld   a,$05
a9e6: 18 0f        jr   $A9F7
a9e8: 3a 35 98     ld   a,($9835)
a9eb: fe 04        cp   $04
a9ed: 20 04        jr   nz,$A9F3
a9ef: 1e ff        ld   e,$FF
a9f1: 18 32        jr   $AA25
a9f3: 1e 01        ld   e,$01
a9f5: 18 2e        jr   $AA25
a9f7: 32 b4 92     ld   ($92B4),a
a9fa: 3a 3b 98     ld   a,($983B)
a9fd: b7           or   a
a9fe: 3a b4 92     ld   a,($92B4)
aa01: 20 23        jr   nz,$AA26
aa03: 3e 01        ld   a,$01
aa05: 32 d6 02     ld   ($02D6),a
aa08: 3a 3c 98     ld   a,($983C)
aa0b: 47           ld   b,a
aa0c: 3a b4 92     ld   a,($92B4)
aa0f: cd 9e 90     call $909E
aa12: fe 49        cp   $49
aa14: 28 0f        jr   z,$AA25
aa16: fe 43        cp   $43
aa18: 28 e4        jr   z,$A9FE
aa1a: fe 52        cp   $52
aa1c: 20 e5        jr   nz,$AA03
aa1e: 3a 3b 98     ld   a,($983B)
aa21: c1           pop  bc
aa22: c3 b5 92     jp   $92B5
aa25: 97           sub  a
aa26: c1           pop  bc
aa27: c9           ret
aa28: 3a d5 91     ld   a,($91D5)
aa2b: fe 02        cp   $02
aa2d: 30 12        jr   nc,$AA41
aa2f: 3a 20 98     ld   a,($9820)
aa32: b7           or   a
aa33: 28 06        jr   z,$AA3B
aa35: 3a 37 27     ld   a,($2737)
aa38: b7           or   a
aa39: 20 06        jr   nz,$AA41
aa3b: dd 21 08 98  ld   ix,$9808
aa3f: 18 04        jr   $AA45
aa41: dd 2a 1c 98  ld   ix,($981C)
aa45: af           xor  a
aa46: 32 28 98     ld   ($9828),a
aa49: 3c           inc  a
aa4a: 32 2e 98     ld   ($982E),a
aa4d: 32 2d 98     ld   ($982D),a
aa50: 3e 02        ld   a,$02
aa52: 32 2f 98     ld   ($982F),a
aa55: c3 dd 93     jp   $93DD
aa58: 3a d5 91     ld   a,($91D5)
aa5b: fe 02        cp   $02
aa5d: 30 12        jr   nc,$AA71
aa5f: 3a 20 98     ld   a,($9820)
aa62: b7           or   a
aa63: 28 06        jr   z,$AA6B
aa65: 3a 37 27     ld   a,($2737)
aa68: b7           or   a
aa69: 20 06        jr   nz,$AA71
aa6b: dd 21 08 98  ld   ix,$9808
aa6f: 18 04        jr   $AA75
aa71: dd 2a 1c 98  ld   ix,($981C)
aa75: af           xor  a
aa76: 32 2e 98     ld   ($982E),a
aa79: 79           ld   a,c
aa7a: 32 2f 98     ld   ($982F),a
aa7d: e6 02        and  $02
aa7f: 28 1a        jr   z,$AA9B
aa81: dd 7e 00     ld   a,(ix+$00)
aa84: 32 28 98     ld   ($9828),a
aa87: 3a 20 98     ld   a,($9820)
aa8a: 32 29 98     ld   ($9829),a
aa8d: ed 4b d5 91  ld   bc,($91D5)
aa91: ed 43 2a 98  ld   ($982A),bc
aa95: 3a d7 91     ld   a,($91D7)
aa98: 32 2c 98     ld   ($982C),a
aa9b: 3a 28 98     ld   a,($9828)
aa9e: b7           or   a
aa9f: 28 34        jr   z,$AAD5
aaa1: 3d           dec  a
aaa2: 32 28 98     ld   ($9828),a
aaa5: 3a 20 98     ld   a,($9820)
aaa8: 21 29 98     ld   hl,$9829
aaab: be           cp   (hl)
aaac: 20 27        jr   nz,$AAD5
aaae: 21 2a 98     ld   hl,$982A
aab1: cd 94 94     call $9494
aab4: 20 1f        jr   nz,$AAD5
aab6: 3a d7 91     ld   a,($91D7)
aab9: 21 2c 98     ld   hl,$982C
aabc: be           cp   (hl)
aabd: 20 16        jr   nz,$AAD5
aabf: 34           inc  (hl)
aac0: 7e           ld   a,(hl)
aac1: dd be 01     cp   (ix+$01)
aac4: 38 09        jr   c,$AACF
aac6: 36 00        ld   (hl),$00
aac8: 2a 2a 98     ld   hl,($982A)
aacb: 23           inc  hl
aacc: 22 2a 98     ld   ($982A),hl
aacf: af           xor  a
aad0: 32 2d 98     ld   ($982D),a
aad3: 18 08        jr   $AADD
aad5: af           xor  a
aad6: 32 28 98     ld   ($9828),a
aad9: 3c           inc  a
aada: 32 2d 98     ld   ($982D),a
aadd: af           xor  a
aade: 32 16 98     ld   ($9816),a
aae1: dd 7e 02     ld   a,(ix+$02)
aae4: 47           ld   b,a
aae5: b7           or   a
aae6: 3a d7 91     ld   a,($91D7)
aae9: 28 05        jr   z,$AAF0
aaeb: b7           or   a
aaec: 1f           rra
aaed: 05           dec  b
aaee: 20 fb        jr   nz,$AAEB
aaf0: 32 25 98     ld   ($9825),a
aaf3: 21 26 98     ld   hl,$9826
aaf6: 7e           ld   a,(hl)
aaf7: 36 01        ld   (hl),$01
aaf9: b7           or   a
aafa: 28 26        jr   z,$AB22
aafc: 3a 20 98     ld   a,($9820)
aaff: 21 21 98     ld   hl,$9821
ab02: be           cp   (hl)
ab03: 20 11        jr   nz,$AB16
ab05: 21 22 98     ld   hl,$9822
ab08: cd 94 94     call $9494
ab0b: 20 09        jr   nz,$AB16
ab0d: 3a 25 98     ld   a,($9825)
ab10: 21 24 98     ld   hl,$9824
ab13: be           cp   (hl)
ab14: 28 28        jr   z,$AB3E
ab16: 3a 27 98     ld   a,($9827)
ab19: b7           or   a
ab1a: c4 b0 94     call nz,$94B0
ab1d: c0           ret  nz
ab1e: af           xor  a
ab1f: 32 27 98     ld   ($9827),a
ab22: 3a 20 98     ld   a,($9820)
ab25: 32 21 98     ld   ($9821),a
ab28: ed 4b d5 91  ld   bc,($91D5)
ab2c: ed 43 22 98  ld   ($9822),bc
ab30: 3a 25 98     ld   a,($9825)
ab33: 32 24 98     ld   ($9824),a
ab36: 3a 2d 98     ld   a,($982D)
ab39: b7           or   a
ab3a: c4 d1 94     call nz,$94D1
ab3d: c0           ret  nz
ab3e: 3a d7 91     ld   a,($91D7)
ab41: dd a6 03     and  (ix+$03)
ab44: 6f           ld   l,a
ab45: 26 00        ld   h,$00
ab47: 29           add  hl,hl
ab48: 29           add  hl,hl
ab49: 29           add  hl,hl
ab4a: 29           add  hl,hl
ab4b: 29           add  hl,hl
ab4c: 29           add  hl,hl
ab4d: 29           add  hl,hl
ab4e: 11 70 fd     ld   de,$FD70
ab51: 19           add  hl,de
ab52: ed 5b d9 91  ld   de,($91D9)
ab56: 3a 2e 98     ld   a,($982E)
ab59: b7           or   a
ab5a: 20 06        jr   nz,$AB62
ab5c: 3e 01        ld   a,$01
ab5e: 32 27 98     ld   ($9827),a
ab61: eb           ex   de,hl
ab62: 3a 65 f0     ld   a,($F065)
ab65: 47           ld   b,a
ab66: 3a 2e 98     ld   a,($982E)
ab69: b7           or   a
ab6a: 20 05        jr   nz,$AB71
ab6c: 48           ld   c,b
ab6d: 06 00        ld   b,$00
ab6f: 18 02        jr   $AB73
ab71: 0e 00        ld   c,$00
ab73: cd 9b f3     call $F39B
ab76: 01 80 00     ld   bc,$0080
ab79: cd a5 f3     call $F3A5
ab7c: 3a 2f 98     ld   a,($982F)
ab7f: e6 01        and  $01
ab81: 3a 16 98     ld   a,($9816)
ab84: c8           ret  z
ab85: b7           or   a
ab86: c0           ret  nz
ab87: af           xor  a
ab88: 32 27 98     ld   ($9827),a
ab8b: cd b0 94     call $94B0
ab8e: c0           ret  nz
ab8f: af           xor  a
ab90: 32 27 98     ld   ($9827),a
ab93: c9           ret
ab94: eb           ex   de,hl
ab95: 21 d5 91     ld   hl,$91D5
ab98: 1a           ld   a,(de)
ab99: be           cp   (hl)
ab9a: c0           ret  nz
ab9b: 13           inc  de
ab9c: 23           inc  hl
ab9d: 1a           ld   a,(de)
ab9e: be           cp   (hl)
ab9f: c9           ret
aba0: 3a 21 98     ld   a,($9821)
aba3: 4f           ld   c,a
aba4: 3a 22 98     ld   a,($9822)
aba7: 57           ld   d,a
aba8: 3a 24 98     ld   a,($9824)
abab: 5f           ld   e,a
abac: 21 70 fd     ld   hl,$FD70
abaf: c9           ret
abb0: cd a0 94     call $94A0
abb3: 3a d5 91     ld   a,($91D5)
abb6: fe 02        cp   $02
abb8: 30 10        jr   nc,$ABCA
abba: 3a 20 98     ld   a,($9820)
abbd: b7           or   a
abbe: 28 06        jr   z,$ABC6
abc0: 3a 37 27     ld   a,($2737)
abc3: b7           or   a
abc4: 20 04        jr   nz,$ABCA
abc6: 06 04        ld   b,$04
abc8: 18 02        jr   $ABCC
abca: 06 02        ld   b,$02
abcc: af           xor  a
abcd: cd f9 94     call $94F9
abd0: c9           ret
abd1: cd a0 94     call $94A0
abd4: 3a d5 91     ld   a,($91D5)
abd7: fe 02        cp   $02
abd9: 30 10        jr   nc,$ABEB
abdb: 3a 20 98     ld   a,($9820)
abde: b7           or   a
abdf: 28 06        jr   z,$ABE7
abe1: 3a 37 27     ld   a,($2737)
abe4: b7           or   a
abe5: 20 04        jr   nz,$ABEB
abe7: 06 03        ld   b,$03
abe9: 18 02        jr   $ABED
abeb: 06 01        ld   b,$01
abed: af           xor  a
abee: cd f9 94     call $94F9
abf1: c9           ret
abf2: 3a 27 98     ld   a,($9827)
abf5: b7           or   a
abf6: c8           ret  z
abf7: 18 8e        jr   $AB87
abf9: 32 3b 98     ld   ($983B),a
abfc: 3a 1e 98     ld   a,($981E)
abff: 32 19 98     ld   ($9819),a
ac02: af           xor  a
ac03: 32 16 98     ld   ($9816),a
ac06: e5           push hl
ac07: d5           push de
ac08: c5           push bc
ac09: cd a0 95     call $95A0
ac0c: c1           pop  bc
ac0d: d1           pop  de
ac0e: e1           pop  hl
ac0f: b7           or   a
ac10: c8           ret  z
ac11: 32 16 98     ld   ($9816),a
ac14: 3a 19 98     ld   a,($9819)
ac17: 3d           dec  a
ac18: 32 19 98     ld   ($9819),a
ac1b: 20 e5        jr   nz,$AC02
ac1d: 3a 3b 98     ld   a,($983B)
ac20: b7           or   a
ac21: 28 08        jr   z,$AC2B
ac23: 3a 3c 98     ld   a,($983C)
ac26: 47           ld   b,a
ac27: 3a 16 98     ld   a,($9816)
ac2a: c9           ret
ac2b: 3a 24 27     ld   a,($2724)
ac2e: b7           or   a
ac2f: 28 37        jr   z,$AC68
ac31: e5           push hl
ac32: d5           push de
ac33: c5           push bc
ac34: 3e 01        ld   a,$01
ac36: 32 d6 02     ld   ($02D6),a
ac39: 3a 3c 98     ld   a,($983C)
ac3c: 47           ld   b,a
ac3d: 3a 16 98     ld   a,($9816)
ac40: fe 05        cp   $05
ac42: 28 17        jr   z,$AC5B
ac44: cd 9e 90     call $909E
ac47: fe 49        cp   $49
ac49: 28 17        jr   z,$AC62
ac4b: fe 43        cp   $43
ac4d: 28 0c        jr   z,$AC5B
ac4f: fe 52        cp   $52
ac51: 20 e1        jr   nz,$AC34
ac53: c1           pop  bc
ac54: d1           pop  de
ac55: e1           pop  hl
ac56: 3a 3b 98     ld   a,($983B)
ac59: 18 9e        jr   $ABF9
ac5b: 3e 01        ld   a,$01
ac5d: b7           or   a
ac5e: c1           pop  bc
ac5f: d1           pop  de
ac60: e1           pop  hl
ac61: c9           ret
ac62: af           xor  a
ac63: 32 16 98     ld   ($9816),a
ac66: 18 f6        jr   $AC5E
ac68: 3e 01        ld   a,$01
ac6a: b7           or   a
ac6b: c9           ret
ac6c: 3a 3b 98     ld   a,($983B)
ac6f: b7           or   a
ac70: 20 20        jr   nz,$AC92
ac72: 3a 24 27     ld   a,($2724)
ac75: b7           or   a
ac76: 20 05        jr   nz,$AC7D
ac78: e1           pop  hl
ac79: e1           pop  hl
ac7a: c3 68 95     jp   $9568
ac7d: 3e 01        ld   a,$01
ac7f: 32 d6 02     ld   ($02D6),a
ac82: 3a 3c 98     ld   a,($983C)
ac85: 47           ld   b,a
ac86: 3e 05        ld   a,$05
ac88: cd 9e 90     call $909E
ac8b: fe 52        cp   $52
ac8d: c8           ret  z
ac8e: fe 43        cp   $43
ac90: 20 eb        jr   nz,$AC7D
ac92: e1           pop  hl
ac93: e1           pop  hl
ac94: 3e 01        ld   a,$01
ac96: 32 19 98     ld   ($9819),a
ac99: 3a 3c 98     ld   a,($983C)
ac9c: 47           ld   b,a
ac9d: 3e 05        ld   a,$05
ac9f: c9           ret
aca0: ed 43 db 91  ld   ($91DB),bc
aca4: 79           ld   a,c
aca5: b7           or   a
aca6: 20 08        jr   nz,$ACB0
aca8: 3a c9 9e     ld   a,($9EC9)
acab: 32 3c 98     ld   ($983C),a
acae: 18 06        jr   $ACB6
acb0: 3a ca 9e     ld   a,($9ECA)
acb3: 32 3c 98     ld   ($983C),a
acb6: 78           ld   a,b
acb7: b7           or   a
acb8: ca b9 97     jp   z,$97B9
acbb: fe 03        cp   $03
acbd: 20 06        jr   nz,$ACC5
acbf: dd 21 08 98  ld   ix,$9808
acc3: 18 1b        jr   $ACE0
acc5: fe 04        cp   $04
acc7: 20 0b        jr   nz,$ACD4
acc9: dd 21 08 98  ld   ix,$9808
accd: 3e 02        ld   a,$02
accf: 32 dc 91     ld   ($91DC),a
acd2: 18 0c        jr   $ACE0
acd4: af           xor  a
acd5: b1           or   c
acd6: dd 21 f0 97  ld   ix,$97F0
acda: 28 04        jr   z,$ACE0
acdc: dd 21 a4 f6  ld   ix,$F6A4
ace0: af           xor  a
ace1: 32 15 98     ld   ($9815),a
ace4: dd be 0a     cp   (ix+$0a)
ace7: 28 12        jr   z,$ACFB
ace9: 7a           ld   a,d
acea: dd 96 0b     sub  (ix+$0b)
aced: 38 18        jr   c,$AD07
acef: 57           ld   d,a
acf0: 3e 27        ld   a,$27
acf2: 92           sub  d
acf3: 57           ld   d,a
acf4: 3e 01        ld   a,$01
acf6: 32 15 98     ld   ($9815),a
acf9: 18 0c        jr   $AD07
acfb: 7b           ld   a,e
acfc: dd 96 04     sub  (ix+$04)
acff: 38 06        jr   c,$AD07
ad01: 5f           ld   e,a
ad02: 3e 01        ld   a,$01
ad04: 32 15 98     ld   ($9815),a
ad07: 1c           inc  e
ad08: 22 1a 98     ld   ($981A),hl
ad0b: ed 53 17 98  ld   ($9817),de
ad0f: cd c8 96     call $96C8
ad12: c0           ret  nz
ad13: cd 78 96     call $9678
ad16: c0           ret  nz
ad17: 3a dc 91     ld   a,($91DC)
ad1a: fe 02        cp   $02
ad1c: 28 07        jr   z,$AD25
ad1e: cd 23 97     call $9723
ad21: 3e 46        ld   a,$46
ad23: 18 05        jr   $AD2A
ad25: cd 49 97     call $9749
ad28: 3e 45        ld   a,$45
ad2a: cd 68 97     call $9768
ad2d: 3a db 91     ld   a,($91DB)
ad30: 4f           ld   c,a
ad31: 3a 15 98     ld   a,($9815)
ad34: b7           or   a
ad35: 28 02        jr   z,$AD39
ad37: cb d1        set  2,c
ad39: 79           ld   a,c
ad3a: cd 68 97     call $9768
ad3d: 3a 18 98     ld   a,($9818)
ad40: cd 68 97     call $9768
ad43: 3a 15 98     ld   a,($9815)
ad46: cd 68 97     call $9768
ad49: 3a 17 98     ld   a,($9817)
ad4c: cd 68 97     call $9768
ad4f: dd 7e 06     ld   a,(ix+$06)
ad52: cd 68 97     call $9768
ad55: dd 7e 04     ld   a,(ix+$04)
ad58: cd 68 97     call $9768
ad5b: dd 7e 05     ld   a,(ix+$05)
ad5e: cd 68 97     call $9768
ad61: 3e ff        ld   a,$FF
ad63: cd 68 97     call $9768
ad66: cd 89 97     call $9789
ad69: af           xor  a
ad6a: d3 4d        out  ($4D),a
ad6c: cd 4e 97     call $974E
ad6f: 3a 32 98     ld   a,($9832)
ad72: e6 c0        and  $C0
ad74: c8           ret  z
ad75: 3e 03        ld   a,$03
ad77: c9           ret
ad78: d5           push de
ad79: e5           push hl
ad7a: 3a 3d 98     ld   a,($983D)
ad7d: b7           or   a
ad7e: c4 b9 97     call nz,$97B9
ad81: 3a db 91     ld   a,($91DB)
ad84: 5f           ld   e,a
ad85: cd a2 92     call $92A2
ad88: 3a 14 98     ld   a,($9814)
ad8b: b7           or   a
ad8c: 3a 18 98     ld   a,($9818)
ad8f: 28 0e        jr   z,$AD9F
ad91: 3a db 91     ld   a,($91DB)
ad94: 5f           ld   e,a
ad95: cd 46 92     call $9246
ad98: 1c           inc  e
ad99: 3a 18 98     ld   a,($9818)
ad9c: 28 01        jr   z,$AD9F
ad9e: 87           add  a,a
ad9f: cd a5 96     call $96A5
ada2: e1           pop  hl
ada3: d1           pop  de
ada4: c9           ret
ada5: c5           push bc
ada6: 4f           ld   c,a
ada7: e6 01        and  $01
ada9: 47           ld   b,a
adaa: 3a db 91     ld   a,($91DB)
adad: b7           or   a
adae: 20 04        jr   nz,$ADB4
adb0: 78           ld   a,b
adb1: 32 40 98     ld   ($9840),a
adb4: 3e 0f        ld   a,$0F
adb6: cd 68 97     call $9768
adb9: 3a db 91     ld   a,($91DB)
adbc: cd 68 97     call $9768
adbf: 79           ld   a,c
adc0: cd 68 97     call $9768
adc3: cd 0d 97     call $970D
adc6: c1           pop  bc
adc7: c9           ret
adc8: db 30        in   a,($30)
adca: d3 30        out  ($30),a
adcc: e6 02        and  $02
adce: 28 03        jr   z,$ADD3
add0: cd f8 96     call $96F8
add3: 3e 04        ld   a,$04
add5: cd 68 97     call $9768
add8: 3a db 91     ld   a,($91DB)
addb: cd 68 97     call $9768
adde: cd 4e 97     call $974E
ade1: 3a 32 98     ld   a,($9832)
ade4: e6 20        and  $20
ade6: ee 20        xor  $20
ade8: c8           ret  z
ade9: cd 6c 95     call $956C
adec: db 30        in   a,($30)
adee: d3 30        out  ($30),a
adf0: cd f8 96     call $96F8
adf3: cd c9 97     call $97C9
adf6: 18 db        jr   $ADD3
adf8: 11 a0 00     ld   de,$00A0
adfb: 3a 14 98     ld   a,($9814)
adfe: b7           or   a
adff: 28 03        jr   z,$AE04
ae01: 11 a0 00     ld   de,$00A0
ae04: cd 73 97     call $9773
ae07: 1b           dec  de
ae08: 7a           ld   a,d
ae09: b3           or   e
ae0a: 20 f8        jr   nz,$AE04
ae0c: c9           ret
ae0d: 3e 08        ld   a,$08
ae0f: cd 68 97     call $9768
ae12: cd 4e 97     call $974E
ae15: 3a 32 98     ld   a,($9832)
ae18: cb 6f        bit  5,a
ae1a: 28 f1        jr   z,$AE0D
ae1c: e6 10        and  $10
ae1e: c8           ret  z
ae1f: 3e 04        ld   a,$04
ae21: b7           or   a
ae22: c9           ret
ae23: 01 44 60     ld   bc,$6044
ae26: af           xor  a
ae27: d3 4d        out  ($4D),a
ae29: 79           ld   a,c
ae2a: d3 4b        out  ($4B),a
ae2c: 3a 1a 98     ld   a,($981A)
ae2f: d3 40        out  ($40),a
ae31: 3a 1b 98     ld   a,($981B)
ae34: d3 40        out  ($40),a
ae36: dd 7e 07     ld   a,(ix+$07)
ae39: d3 41        out  ($41),a
ae3b: dd 7e 08     ld   a,(ix+$08)
ae3e: d3 41        out  ($41),a
ae40: 78           ld   a,b
ae41: d3 48        out  ($48),a
ae43: 3e 0e        ld   a,$0E
ae45: d3 4f        out  ($4F),a
ae47: af           xor  a
ae48: c9           ret
ae49: 01 48 40     ld   bc,$4048
ae4c: 18 d8        jr   $AE26
ae4e: f5           push af
ae4f: c5           push bc
ae50: e5           push hl
ae51: 21 32 98     ld   hl,$9832
ae54: 0e 35        ld   c,$35
ae56: db 34        in   a,($34)
ae58: cb 7f        bit  7,a
ae5a: 28 fa        jr   z,$AE56
ae5c: cb 77        bit  6,a
ae5e: 20 04        jr   nz,$AE64
ae60: e1           pop  hl
ae61: c1           pop  bc
ae62: f1           pop  af
ae63: c9           ret
ae64: ed a2        ini
ae66: 18 ee        jr   $AE56
ae68: c5           push bc
ae69: 4f           ld   c,a
ae6a: cd 7e 97     call $977E
ae6d: 79           ld   a,c
ae6e: d3 35        out  ($35),a
ae70: af           xor  a
ae71: c1           pop  bc
ae72: c9           ret
ae73: d5           push de
ae74: 11 9a 02     ld   de,$029A
ae77: 1b           dec  de
ae78: 7a           ld   a,d
ae79: b3           or   e
ae7a: 20 fb        jr   nz,$AE77
ae7c: d1           pop  de
ae7d: c9           ret
ae7e: db 34        in   a,($34)
ae80: cb 7f        bit  7,a
ae82: 28 fa        jr   z,$AE7E
ae84: cb 77        bit  6,a
ae86: 20 f6        jr   nz,$AE7E
ae88: c9           ret
ae89: db 34        in   a,($34)
ae8b: cb 7f        bit  7,a
ae8d: 28 fa        jr   z,$AE89
ae8f: cb 77        bit  6,a
ae91: 28 f6        jr   z,$AE89
ae93: c9           ret
ae94: 3e 03        ld   a,$03
ae96: d3 17        out  ($17),a
ae98: db 34        in   a,($34)
ae9a: e6 10        and  $10
ae9c: 20 f6        jr   nz,$AE94
ae9e: db 34        in   a,($34)
aea0: e6 0f        and  $0F
aea2: 20 f0        jr   nz,$AE94
aea4: 3e 03        ld   a,$03
aea6: d3 35        out  ($35),a
aea8: cd 7e 97     call $977E
aeab: 3e ef        ld   a,$EF
aead: d3 35        out  ($35),a
aeaf: cd 7e 97     call $977E
aeb2: 3e 12        ld   a,$12
aeb4: d3 35        out  ($35),a
aeb6: c3 7e 97     jp   $977E
aeb9: af           xor  a
aeba: 32 3d 98     ld   ($983D),a
aebd: 3a 14 98     ld   a,($9814)
aec0: b7           or   a
aec1: c4 94 97     call nz,$9794
aec4: cd c8 96     call $96C8
aec7: b7           or   a
aec8: c0           ret  nz
aec9: 3e 07        ld   a,$07
aecb: cd 68 97     call $9768
aece: 3a db 91     ld   a,($91DB)
aed1: cd 68 97     call $9768
aed4: cd 0d 97     call $970D
aed7: c8           ret  z
aed8: f5           push af
aed9: 3a 14 98     ld   a,($9814)
aedc: b7           or   a
aedd: 28 0f        jr   z,$AEEE
aedf: f1           pop  af
aee0: 3e 07        ld   a,$07
aee2: cd 68 97     call $9768
aee5: 3a db 91     ld   a,($91DB)
aee8: cd 68 97     call $9768
aeeb: c3 0d 97     jp   $970D
aeee: f1           pop  af
aeef: c9           ret
aef0: 10 50        djnz $AF42
aef2: 02           ld   (bc),a
aef3: 03           inc  bc
aef4: 0a           ld   a,(bc)
aef5: 0f           rrca
aef6: 02           ld   (bc),a
aef7: ff           rst  $38
aef8: 01 04 00     ld   bc,$0004
aefb: 28 10        jr   z,$AF0D
aefd: 50           ld   d,b
aefe: 02           ld   (bc),a
aeff: 03           inc  bc
af00: 0a           ld   a,(bc)
af01: 0f           rrca
af02: 02           ld   (bc),a
af03: ff           rst  $38
af04: 01 04 00     ld   bc,$0004
af07: 50           ld   d,b
af08: 10 40        djnz $AF4A
af0a: 01 01 10     ld   bc,$1001
af0d: 23           inc  hl
af0e: 01 ff 00     ld   bc,$00FF
af11: 04           inc  b
af12: 00           nop
af13: 28 00        jr   z,$AF15
af15: 00           nop
af16: 00           nop
af17: 00           nop
af18: 00           nop
af19: 00           nop
af1a: 00           nop
af1b: 00           nop
af1c: 00           nop
af1d: 00           nop
af1e: 05           dec  b
af1f: 00           nop
af20: 00           nop
af21: 00           nop
af22: 00           nop
af23: 00           nop
af24: 00           nop
af25: 00           nop
af26: 00           nop
af27: 00           nop
af28: 00           nop
af29: 00           nop
af2a: 00           nop
af2b: 00           nop
af2c: 00           nop
af2d: 00           nop
af2e: 00           nop
af2f: 00           nop
af30: ff           rst  $38
af31: ff           rst  $38
af32: 00           nop
af33: 00           nop
af34: 00           nop
af35: 00           nop
af36: 00           nop
af37: 00           nop
af38: 00           nop
af39: 00           nop
af3a: 00           nop
af3b: 00           nop
af3c: 00           nop
af3d: ff           rst  $38
af3e: 00           nop
af3f: 00           nop
af40: 00           nop
af41: 3a d3 91     ld   a,($91D3)
af44: 32 ce 9a     ld   ($9ACE),a
af47: c9           ret
af48: 22 d0 9a     ld   ($9AD0),hl
af4b: 32 d2 9a     ld   ($9AD2),a
af4e: af           xor  a
af4f: 32 cf 9a     ld   ($9ACF),a
af52: cd b1 99     call $99B1
af55: 21 00 de     ld   hl,$DE00
af58: c9           ret
af59: 22 d0 9a     ld   ($9AD0),hl
af5c: 32 d2 9a     ld   ($9AD2),a
af5f: af           xor  a
af60: 32 cf 9a     ld   ($9ACF),a
af63: cd ff 99     call $99FF
af66: 21 00 de     ld   hl,$DE00
af69: c9           ret
af6a: 3a d5 9a     ld   a,($9AD5)
af6d: b7           or   a
af6e: 20 03        jr   nz,$AF73
af70: 32 d4 9a     ld   ($9AD4),a
af73: 01 00 00     ld   bc,$0000
af76: ed 43 d5 91  ld   ($91D5),bc
af7a: c9           ret
af7b: af           xor  a
af7c: 32 d6 9a     ld   ($9AD6),a
af7f: 3c           inc  a
af80: 32 dd 9a     ld   ($9ADD),a
af83: 32 dc 9a     ld   ($9ADC),a
af86: 3c           inc  a
af87: 32 de 9a     ld   ($9ADE),a
af8a: c3 f8 98     jp   $98F8
af8d: af           xor  a
af8e: 32 dd 9a     ld   ($9ADD),a
af91: 79           ld   a,c
af92: 32 de 9a     ld   ($9ADE),a
af95: fe 02        cp   $02
af97: c2 b1 98     jp   nz,$98B1
af9a: 3e 10        ld   a,$10
af9c: 32 d6 9a     ld   ($9AD6),a
af9f: 3a ce 9a     ld   a,($9ACE)
afa2: 32 d7 9a     ld   ($9AD7),a
afa5: 2a d5 91     ld   hl,($91D5)
afa8: 22 d8 9a     ld   ($9AD8),hl
afab: 3a d7 91     ld   a,($91D7)
afae: 32 da 9a     ld   ($9ADA),a
afb1: 3a d6 9a     ld   a,($9AD6)
afb4: b7           or   a
afb5: ca f0 98     jp   z,$98F0
afb8: 3d           dec  a
afb9: 32 d6 9a     ld   ($9AD6),a
afbc: 3a ce 9a     ld   a,($9ACE)
afbf: 21 d7 9a     ld   hl,$9AD7
afc2: be           cp   (hl)
afc3: c2 f0 98     jp   nz,$98F0
afc6: 21 d8 9a     ld   hl,$9AD8
afc9: cd a5 99     call $99A5
afcc: c2 f0 98     jp   nz,$98F0
afcf: 3a d7 91     ld   a,($91D7)
afd2: 21 da 9a     ld   hl,$9ADA
afd5: be           cp   (hl)
afd6: c2 f0 98     jp   nz,$98F0
afd9: 34           inc  (hl)
afda: 7e           ld   a,(hl)
afdb: fe 40        cp   $40
afdd: da e9 98     jp   c,$98E9
afe0: 36 00        ld   (hl),$00
afe2: 2a d8 9a     ld   hl,($9AD8)
afe5: 23           inc  hl
afe6: 22 d8 9a     ld   ($9AD8),hl
afe9: af           xor  a
afea: 32 dc 9a     ld   ($9ADC),a
afed: c3 f8 98     jp   $98F8
aff0: af           xor  a
aff1: 32 d6 9a     ld   ($9AD6),a
aff4: 3c           inc  a
aff5: 32 dc 9a     ld   ($9ADC),a
aff8: af           xor  a
aff9: 32 db 9a     ld   ($9ADB),a
affc: 3a d7 91     ld   a,($91D7)
afff: b7           or   a
b000: 1f           rra
b001: b7           or   a
b002: 1f           rra
b003: 32 d3 9a     ld   ($9AD3),a
b006: 21 d4 9a     ld   hl,$9AD4
b009: 7e           ld   a,(hl)
b00a: 36 01        ld   (hl),$01
b00c: b7           or   a
b00d: ca 34 99     jp   z,$9934
b010: 3a ce 9a     ld   a,($9ACE)
b013: 21 cf 9a     ld   hl,$9ACF
b016: be           cp   (hl)
b017: c2 2d 99     jp   nz,$992D
b01a: 21 d0 9a     ld   hl,$9AD0
b01d: cd a5 99     call $99A5
b020: c2 2d 99     jp   nz,$992D
b023: 3a d3 9a     ld   a,($9AD3)
b026: 21 d2 9a     ld   hl,$9AD2
b029: be           cp   (hl)
b02a: ca 51 99     jp   z,$9951
b02d: 3a d5 9a     ld   a,($9AD5)
b030: b7           or   a
b031: c4 ff 99     call nz,$99FF
b034: 3a ce 9a     ld   a,($9ACE)
b037: 32 cf 9a     ld   ($9ACF),a
b03a: 2a d5 91     ld   hl,($91D5)
b03d: 22 d0 9a     ld   ($9AD0),hl
b040: 3a d3 9a     ld   a,($9AD3)
b043: 32 d2 9a     ld   ($9AD2),a
b046: 3a dc 9a     ld   a,($9ADC)
b049: b7           or   a
b04a: c4 b1 99     call nz,$99B1
b04d: af           xor  a
b04e: 32 d5 9a     ld   ($9AD5),a
b051: 3a d7 91     ld   a,($91D7)
b054: e6 03        and  $03
b056: 6f           ld   l,a
b057: 26 00        ld   h,$00
b059: 29           add  hl,hl
b05a: 29           add  hl,hl
b05b: 29           add  hl,hl
b05c: 29           add  hl,hl
b05d: 29           add  hl,hl
b05e: 29           add  hl,hl
b05f: 29           add  hl,hl
b060: 11 00 de     ld   de,$DE00
b063: 19           add  hl,de
b064: ed 5b d9 91  ld   de,($91D9)
b068: 3a dd 9a     ld   a,($9ADD)
b06b: b7           or   a
b06c: c2 74 99     jp   nz,$9974
b06f: 3c           inc  a
b070: 32 d5 9a     ld   ($9AD5),a
b073: eb           ex   de,hl
b074: 3a 65 f0     ld   a,($F065)
b077: 47           ld   b,a
b078: 3a dd 9a     ld   a,($9ADD)
b07b: b7           or   a
b07c: c2 84 99     jp   nz,$9984
b07f: 48           ld   c,b
b080: 06 00        ld   b,$00
b082: 18 02        jr   $B086
b084: 0e 00        ld   c,$00
b086: cd 9b f3     call $F39B
b089: 01 80 00     ld   bc,$0080
b08c: cd a5 f3     call $F3A5
b08f: 3a de 9a     ld   a,($9ADE)
b092: fe 01        cp   $01
b094: 3a db 9a     ld   a,($9ADB)
b097: c0           ret  nz
b098: b7           or   a
b099: c0           ret  nz
b09a: af           xor  a
b09b: 32 d5 9a     ld   ($9AD5),a
b09e: cd ff 99     call $99FF
b0a1: 3a db 9a     ld   a,($9ADB)
b0a4: c9           ret
b0a5: 3a d5 91     ld   a,($91D5)
b0a8: be           cp   (hl)
b0a9: c0           ret  nz
b0aa: 23           inc  hl
b0ab: 3a d6 91     ld   a,($91D6)
b0ae: be           cp   (hl)
b0af: 23           inc  hl
b0b0: c9           ret
b0b1: af           xor  a
b0b2: 32 db 9a     ld   ($9ADB),a
b0b5: ed 5b d0 9a  ld   de,($9AD0)
b0b9: 2a e1 9a     ld   hl,($9AE1)
b0bc: b7           or   a
b0bd: ed 52        sbc  hl,de
b0bf: d2 c6 99     jp   nc,$99C6
b0c2: 3e 01        ld   a,$01
b0c4: 18 31        jr   $B0F7
b0c6: cd 5f 9a     call $9A5F
b0c9: 3e 20        ld   a,$20
b0cb: d3 87        out  ($87),a
b0cd: 21 00 de     ld   hl,$DE00
b0d0: 01 80 00     ld   bc,$0080
b0d3: db 87        in   a,($87)
b0d5: b7           or   a
b0d6: fa d3 99     jp   m,$99D3
b0d9: ed b2        inir
b0db: ed b2        inir
b0dd: 47           ld   b,a
b0de: 3e 30        ld   a,$30
b0e0: d3 86        out  ($86),a
b0e2: 78           ld   a,b
b0e3: e6 01        and  $01
b0e5: c8           ret  z
b0e6: 3a cc 9a     ld   a,($9ACC)
b0e9: b7           or   a
b0ea: 78           ld   a,b
b0eb: 28 0a        jr   z,$B0F7
b0ed: af           xor  a
b0ee: 32 cc 9a     ld   ($9ACC),a
b0f1: db 81        in   a,($81)
b0f3: e6 10        and  $10
b0f5: 78           ld   a,b
b0f6: c0           ret  nz
b0f7: e6 01        and  $01
b0f9: cd 3a 9a     call $9A3A
b0fc: c3 b1 99     jp   $99B1
b0ff: af           xor  a
b100: 32 db 9a     ld   ($9ADB),a
b103: ed 5b d0 9a  ld   de,($9AD0)
b107: 2a e1 9a     ld   hl,($9AE1)
b10a: b7           or   a
b10b: ed 52        sbc  hl,de
b10d: d2 14 9a     jp   nc,$9A14
b110: 3e 01        ld   a,$01
b112: 18 20        jr   $B134
b114: cd 5f 9a     call $9A5F
b117: 3e 30        ld   a,$30
b119: d3 87        out  ($87),a
b11b: 21 00 de     ld   hl,$DE00
b11e: 01 80 00     ld   bc,$0080
b121: ed b3        otir
b123: ed b3        otir
b125: db 87        in   a,($87)
b127: b7           or   a
b128: fa 25 9a     jp   m,$9A25
b12b: 47           ld   b,a
b12c: 3e 30        ld   a,$30
b12e: d3 86        out  ($86),a
b130: 78           ld   a,b
b131: e6 01        and  $01
b133: c8           ret  z
b134: cd 3a 9a     call $9A3A
b137: c3 ff 99     jp   $99FF
b13a: 47           ld   b,a
b13b: 32 db 9a     ld   ($9ADB),a
b13e: 3a 24 27     ld   a,($2724)
b141: b7           or   a
b142: 78           ld   a,b
b143: 28 12        jr   z,$B157
b145: cd 9e 90     call $909E
b148: fe 52        cp   $52
b14a: c8           ret  z
b14b: fe 49        cp   $49
b14d: ca 59 9a     jp   z,$9A59
b150: fe 43        cp   $43
b152: c2 45 9a     jp   nz,$9A45
b155: 3e 01        ld   a,$01
b157: e1           pop  hl
b158: c9           ret
b159: e1           pop  hl
b15a: af           xor  a
b15b: 32 db 9a     ld   ($9ADB),a
b15e: c9           ret
b15f: 3e a0        ld   a,$A0
b161: d3 86        out  ($86),a
b163: 47           ld   b,a
b164: 2f           cpl
b165: d3 84        out  ($84),a
b167: db 86        in   a,($86)
b169: b8           cp   b
b16a: c2 c2 9a     jp   nz,$9AC2
b16d: db 87        in   a,($87)
b16f: e6 c0        and  $C0
b171: fe 40        cp   $40
b173: c2 c2 9a     jp   nz,$9AC2
b176: 2a d0 9a     ld   hl,($9AD0)
b179: ed 5b df 9a  ld   de,($9ADF)
b17d: 19           add  hl,de
b17e: 3a cf 9a     ld   a,($9ACF)
b181: 1f           rra
b182: d2 8a 9a     jp   nc,$9A8A
b185: ed 5b e1 9a  ld   de,($9AE1)
b189: 19           add  hl,de
b18a: 7d           ld   a,l
b18b: e6 03        and  $03
b18d: 47           ld   b,a
b18e: 3a cf 9a     ld   a,($9ACF)
b191: 0f           rrca
b192: 87           add  a,a
b193: 87           add  a,a
b194: 87           add  a,a
b195: f6 a0        or   $A0
b197: b0           or   b
b198: d3 86        out  ($86),a
b19a: 3a d2 9a     ld   a,($9AD2)
b19d: d3 83        out  ($83),a
b19f: 7d           ld   a,l
b1a0: 1f           rra
b1a1: 1f           rra
b1a2: e6 3f        and  $3F
b1a4: 47           ld   b,a
b1a5: 7c           ld   a,h
b1a6: 0f           rrca
b1a7: 0f           rrca
b1a8: 4f           ld   c,a
b1a9: e6 c0        and  $C0
b1ab: b0           or   b
b1ac: d3 84        out  ($84),a
b1ae: 79           ld   a,c
b1af: e6 03        and  $03
b1b1: d3 85        out  ($85),a
b1b3: 3a cd 9a     ld   a,($9ACD)
b1b6: b7           or   a
b1b7: 3e 70        ld   a,$70
b1b9: d3 87        out  ($87),a
b1bb: db 87        in   a,($87)
b1bd: a7           and  a
b1be: fa bb 9a     jp   m,$9ABB
b1c1: c9           ret
b1c2: 3e 05        ld   a,$05
b1c4: 32 cd 9a     ld   ($9ACD),a
b1c7: cd 9e 90     call $909E
b1ca: 18 93        jr   $B15F
b1cc: 00           nop
b1cd: 00           nop
b1ce: 00           nop
b1cf: 00           nop
b1d0: 00           nop
b1d1: 00           nop
b1d2: 00           nop
b1d3: 00           nop
b1d4: 00           nop
b1d5: 00           nop
b1d6: 00           nop
b1d7: 00           nop
b1d8: 00           nop
b1d9: 00           nop
b1da: 00           nop
b1db: 00           nop
b1dc: 00           nop
b1dd: 00           nop
b1de: 00           nop
b1df: 00           nop
b1e0: 00           nop
b1e1: 64           ld   h,h
b1e2: 02           ld   (bc),a
b1e3: c9           ret
b1e4: 01 00 00     ld   bc,$0000
b1e7: ed 43 d5 91  ld   ($91D5),bc
b1eb: c9           ret
b1ec: 3e 00        ld   a,$00
b1ee: cd f8 9a     call $9AF8
b1f1: c9           ret
b1f2: 3e ff        ld   a,$FF
b1f4: cd f8 9a     call $9AF8
b1f7: c9           ret
b1f8: 32 64 9b     ld   ($9B64),a
b1fb: cd 33 9b     call $9B33
b1fe: c2 32 9b     jp   nz,$9B32
b201: ed 5b d9 91  ld   de,($91D9)
b205: 3a 64 9b     ld   a,($9B64)
b208: b7           or   a
b209: ca 12 9b     jp   z,$9B12
b20c: 3e 01        ld   a,$01
b20e: 32 65 9b     ld   ($9B65),a
b211: eb           ex   de,hl
b212: 3a 65 f0     ld   a,($F065)
b215: 47           ld   b,a
b216: 3a 64 9b     ld   a,($9B64)
b219: b7           or   a
b21a: ca 24 9b     jp   z,$9B24
b21d: 48           ld   c,b
b21e: 3a 67 9b     ld   a,($9B67)
b221: 47           ld   b,a
b222: 18 04        jr   $B228
b224: 3a 67 9b     ld   a,($9B67)
b227: 4f           ld   c,a
b228: cd 9b f3     call $F39B
b22b: 01 80 00     ld   bc,$0080
b22e: cd a5 f3     call $F3A5
b231: af           xor  a
b232: c9           ret
b233: 3a 66 9b     ld   a,($9B66)
b236: 47           ld   b,a
b237: 3a d5 91     ld   a,($91D5)
b23a: b8           cp   b
b23b: d2 60 9b     jp   nc,$9B60
b23e: 2a d5 91     ld   hl,($91D5)
b241: 29           add  hl,hl
b242: 29           add  hl,hl
b243: 11 68 9b     ld   de,$9B68
b246: 19           add  hl,de
b247: 7e           ld   a,(hl)
b248: 32 67 9b     ld   ($9B67),a
b24b: 23           inc  hl
b24c: 23           inc  hl
b24d: 5e           ld   e,(hl)
b24e: 23           inc  hl
b24f: 56           ld   d,(hl)
b250: 3a d7 91     ld   a,($91D7)
b253: 6f           ld   l,a
b254: 26 00        ld   h,$00
b256: 29           add  hl,hl
b257: 29           add  hl,hl
b258: 29           add  hl,hl
b259: 29           add  hl,hl
b25a: 29           add  hl,hl
b25b: 29           add  hl,hl
b25c: 29           add  hl,hl
b25d: 19           add  hl,de
b25e: af           xor  a
b25f: c9           ret
b260: 3e 01        ld   a,$01
b262: b7           or   a
b263: c9           ret
b264: 00           nop
b265: 00           nop
b266: 0d           dec  c
b267: 00           nop
b268: 02           ld   (bc),a
b269: 00           nop
b26a: 00           nop
b26b: 00           nop
b26c: 02           ld   (bc),a
b26d: 00           nop
b26e: 00           nop
b26f: 20 02        jr   nz,$B273
b271: 00           nop
b272: 00           nop
b273: 40           ld   b,b
b274: 02           ld   (bc),a
b275: 00           nop
b276: 00           nop
b277: 60           ld   h,b
b278: 02           ld   (bc),a
b279: 00           nop
b27a: 00           nop
b27b: 80           add  a,b
b27c: 02           ld   (bc),a
b27d: 00           nop
b27e: 00           nop
b27f: a0           and  b
b280: 02           ld   (bc),a
b281: 00           nop
b282: 00           nop
b283: c0           ret  nz
b284: 03           inc  bc
b285: 00           nop
b286: 00           nop
b287: 00           nop
b288: 03           inc  bc
b289: 00           nop
b28a: 00           nop
b28b: 20 03        jr   nz,$B290
b28d: 00           nop
b28e: 00           nop
b28f: 40           ld   b,b
b290: 03           inc  bc
b291: 00           nop
b292: 00           nop
b293: 60           ld   h,b
b294: 03           inc  bc
b295: 00           nop
b296: 00           nop
b297: 80           add  a,b
b298: 03           inc  bc
b299: 00           nop
b29a: 00           nop
b29b: a0           and  b
b29c: 04           inc  b
b29d: 00           nop
b29e: 00           nop
b29f: 00           nop
b2a0: 04           inc  b
b2a1: 00           nop
b2a2: 00           nop
b2a3: 20 04        jr   nz,$B2A9
b2a5: 00           nop
b2a6: 00           nop
b2a7: 40           ld   b,b
b2a8: 04           inc  b
b2a9: 00           nop
b2aa: 00           nop
b2ab: 60           ld   h,b
b2ac: 04           inc  b
b2ad: 00           nop
b2ae: 00           nop
b2af: 80           add  a,b
b2b0: 04           inc  b
b2b1: 00           nop
b2b2: 00           nop
b2b3: a0           and  b
b2b4: 04           inc  b
b2b5: 00           nop
b2b6: 00           nop
b2b7: c0           ret  nz
b2b8: 05           dec  b
b2b9: 00           nop
b2ba: 00           nop
b2bb: 00           nop
b2bc: 05           dec  b
b2bd: 00           nop
b2be: 00           nop
b2bf: 20 05        jr   nz,$B2C6
b2c1: 00           nop
b2c2: 00           nop
b2c3: 40           ld   b,b
b2c4: 05           dec  b
b2c5: 00           nop
b2c6: 00           nop
b2c7: 60           ld   h,b
b2c8: 05           dec  b
b2c9: 00           nop
b2ca: 00           nop
b2cb: 80           add  a,b
b2cc: 05           dec  b
b2cd: 00           nop
b2ce: 00           nop
b2cf: a0           and  b
b2d0: 05           dec  b
b2d1: 00           nop
b2d2: 00           nop
b2d3: c0           ret  nz
b2d4: 06 00        ld   b,$00
b2d6: 00           nop
b2d7: 00           nop
b2d8: 06 00        ld   b,$00
b2da: 00           nop
b2db: 20 06        jr   nz,$B2E3
b2dd: 00           nop
b2de: 00           nop
b2df: 40           ld   b,b
b2e0: 06 00        ld   b,$00
b2e2: 00           nop
b2e3: 60           ld   h,b
b2e4: 06 00        ld   b,$00
b2e6: 00           nop
b2e7: 80           add  a,b
b2e8: 06 00        ld   b,$00
b2ea: 00           nop
b2eb: a0           and  b
b2ec: 06 00        ld   b,$00
b2ee: 00           nop
b2ef: c0           ret  nz
b2f0: 07           rlca
b2f1: 00           nop
b2f2: 00           nop
b2f3: 00           nop
b2f4: 07           rlca
b2f5: 00           nop
b2f6: 00           nop
b2f7: 20 07        jr   nz,$B300
b2f9: 00           nop
b2fa: 00           nop
b2fb: 40           ld   b,b
b2fc: 07           rlca
b2fd: 00           nop
b2fe: 00           nop
b2ff: 60           ld   h,b
b300: 07           rlca
b301: 00           nop
b302: 00           nop
b303: 80           add  a,b
b304: 07           rlca
b305: 00           nop
b306: 00           nop
b307: a0           and  b
b308: 07           rlca
b309: 00           nop
b30a: 00           nop
b30b: c0           ret  nz
b30c: f3           di
b30d: 31 00 00     ld   sp,$0000
b310: 32 3c 27     ld   ($273C),a
b313: 32 e8 9d     ld   ($9DE8),a
b316: cd b3 a1     call $A1B3
b319: cd d6 00     call $00D6
b31c: cd 3c 9d     call $9D3C
b31f: 3a ef fd     ld   a,($FDEF)
b322: fe 5a        cp   $5A
b324: 20 13        jr   nz,$B339
b326: 21 86 fd     ld   hl,$FD86
b329: 7e           ld   a,(hl)
b32a: fe 32        cp   $32
b32c: 20 0b        jr   nz,$B339
b32e: 21 89 fd     ld   hl,$FD89
b331: 11 23 27     ld   de,$2723
b334: 01 67 00     ld   bc,$0067
b337: ed b0        ldir
b339: 3a e8 9d     ld   a,($9DE8)
b33c: 32 3c 27     ld   ($273C),a
b33f: 3e 01        ld   a,$01
b341: 32 35 27     ld   ($2735),a
b344: cd ee 9f     call $9FEE
b347: cd 54 a0     call $A054
b34a: af           xor  a
b34b: 32 37 27     ld   ($2737),a
b34e: 1e 00        ld   e,$00
b350: cd 54 92     call $9254
b353: 1e 01        ld   e,$01
b355: cd 54 92     call $9254
b358: ed 4b e4 38  ld   bc,($38E4)
b35c: 11 e6 38     ld   de,$38E6
b35f: 21 a8 38     ld   hl,$38A8
b362: ed b0        ldir
b364: ed 4b e4 38  ld   bc,($38E4)
b368: 11 1a 39     ld   de,$391A
b36b: 21 a8 38     ld   hl,$38A8
b36e: ed b0        ldir
b370: ed 4b e4 38  ld   bc,($38E4)
b374: 11 4e 39     ld   de,$394E
b377: 21 a8 38     ld   hl,$38A8
b37a: ed b0        ldir
b37c: ed 4b e4 38  ld   bc,($38E4)
b380: 11 82 39     ld   de,$3982
b383: 21 a8 38     ld   hl,$38A8
b386: ed b0        ldir
b388: ed 4b e4 38  ld   bc,($38E4)
b38c: 11 b6 39     ld   de,$39B6
b38f: 21 a8 38     ld   hl,$38A8
b392: ed b0        ldir
b394: af           xor  a
b395: 06 00        ld   b,$00
b397: 21 01 00     ld   hl,$0001
b39a: cd 00 52     call $5200
b39d: af           xor  a
b39e: cd ef 12     call $12EF
b3a1: 21 7d a0     ld   hl,$A07D
b3a4: cd b1 14     call $14B1
b3a7: 3a 30 27     ld   a,($2730)
b3aa: b7           or   a
b3ab: 28 22        jr   z,$B3CF
b3ad: 01 00 01     ld   bc,$0100
b3b0: cd 9b f3     call $F39B
b3b3: 21 6a 27     ld   hl,$276A
b3b6: 3a 6a 27     ld   a,($276A)
b3b9: b7           or   a
b3ba: 28 05        jr   z,$B3C1
b3bc: 4f           ld   c,a
b3bd: 06 00        ld   b,$00
b3bf: 03           inc  bc
b3c0: 09           add  hl,bc
b3c1: af           xor  a
b3c2: 77           ld   (hl),a
b3c3: 21 6a 27     ld   hl,$276A
b3c6: 11 07 da     ld   de,$DA07
b3c9: 01 1a 00     ld   bc,$001A
b3cc: cd a5 f3     call $F3A5
b3cf: 3a 14 98     ld   a,($9814)
b3d2: 32 41 27     ld   ($2741),a
b3d5: 3a e7 9d     ld   a,($9DE7)
b3d8: 32 28 27     ld   ($2728),a
b3db: fe 02        cp   $02
b3dd: 38 21        jr   c,$B400
b3df: 28 0e        jr   z,$B3EF
b3e1: 21 c6 9d     ld   hl,$9DC6
b3e4: 06 0b        ld   b,$0B
b3e6: 5e           ld   e,(hl)
b3e7: 23           inc  hl
b3e8: 56           ld   d,(hl)
b3e9: 23           inc  hl
b3ea: 7e           ld   a,(hl)
b3eb: 23           inc  hl
b3ec: 12           ld   (de),a
b3ed: 10 f7        djnz $B3E6
b3ef: 3e 4a        ld   a,$4A
b3f1: 32 34 1f     ld   ($1F34),a
b3f4: af           xor  a
b3f5: 32 4b 1f     ld   ($1F4B),a
b3f8: 32 f4 20     ld   ($20F4),a
b3fb: 3e 6a        ld   a,$6A
b3fd: 32 dd 20     ld   ($20DD),a
b400: 3a 2a 27     ld   a,($272A)
b403: cd 62 f3     call $F362
b406: 06 05        ld   b,$05
b408: 21 1e 98     ld   hl,$981E
b40b: 3a 23 27     ld   a,($2723)
b40e: b7           or   a
b40f: 20 02        jr   nz,$B413
b411: 06 01        ld   b,$01
b413: 70           ld   (hl),b
b414: cd bd 14     call $14BD
b417: cd d6 13     call $13D6
b41a: 3a 2c 27     ld   a,($272C)
b41d: b7           or   a
b41e: 28 0e        jr   z,$B42E
b420: fe 03        cp   $03
b422: 20 0a        jr   nz,$B42E
b424: 3e 11        ld   a,$11
b426: 32 6f 14     ld   ($146F),a
b429: 3e 13        ld   a,$13
b42b: 32 70 14     ld   ($1470),a
b42e: 3a 34 27     ld   a,($2734)
b431: cd 32 06     call $0632
b434: cd e9 9d     call $9DE9
b437: fb           ei
b438: 00           nop
b439: c3 ca 00     jp   $00CA
b43c: 3a e8 9d     ld   a,($9DE8)
b43f: b7           or   a
b440: 20 32        jr   nz,$B474
b442: af           xor  a
b443: 06 03        ld   b,$03
b445: 21 00 bc     ld   hl,$BC00
b448: 11 11 00     ld   de,$0011
b44b: cd fe 09     call $09FE
b44e: af           xor  a
b44f: 06 0c        ld   b,$0C
b451: 21 93 19     ld   hl,$1993
b454: 11 14 00     ld   de,$0014
b457: cd fe 09     call $09FE
b45a: af           xor  a
b45b: 06 1f        ld   b,$1F
b45d: 21 00 bf     ld   hl,$BF00
b460: 11 01 01     ld   de,$0101
b463: cd fe 09     call $09FE
b466: 11 00 01     ld   de,$0100
b469: 01 00 03     ld   bc,$0300
b46c: 21 70 fd     ld   hl,$FD70
b46f: af           xor  a
b470: cd f9 94     call $94F9
b473: c9           ret
b474: 3e 08        ld   a,$08
b476: 21 00 00     ld   hl,$0000
b479: cd 48 98     call $9848
b47c: 24           inc  h
b47d: 11 00 bc     ld   de,$BC00
b480: 01 00 01     ld   bc,$0100
b483: ed b0        ldir
b485: 06 01        ld   b,$01
b487: 3e 09        ld   a,$09
b489: 21 00 00     ld   hl,$0000
b48c: cd 22 0a     call $0A22
b48f: 06 06        ld   b,$06
b491: 3e 0a        ld   a,$0A
b493: 21 00 00     ld   hl,$0000
b496: 11 93 19     ld   de,$1993
b499: cd 22 0a     call $0A22
b49c: af           xor  a
b49d: 21 01 00     ld   hl,$0001
b4a0: cd 48 98     call $9848
b4a3: 24           inc  h
b4a4: 11 00 bf     ld   de,$BF00
b4a7: 01 00 01     ld   bc,$0100
b4aa: ed b0        ldir
b4ac: 06 0f        ld   b,$0F
b4ae: 3e 01        ld   a,$01
b4b0: 21 01 00     ld   hl,$0001
b4b3: cd 22 0a     call $0A22
b4b6: 21 01 00     ld   hl,$0001
b4b9: af           xor  a
b4ba: cd 48 98     call $9848
b4bd: 11 70 fd     ld   de,$FD70
b4c0: 01 00 01     ld   bc,$0100
b4c3: ed b0        ldir
b4c5: c9           ret
b4c6: 75           ld   (hl),l
b4c7: bc           cp   h
b4c8: 60           ld   h,b
b4c9: 5b           ld   e,e
b4ca: bc           cp   h
b4cb: 7b           ld   a,e
b4cc: f5           push af
b4cd: bc           cp   h
b4ce: 7e           ld   a,(hl)
b4cf: e5           push hl
b4d0: bc           cp   h
b4d1: 5e           ld   e,(hl)
b4d2: db bc        in   a,($BC)
b4d4: 7d           ld   a,l
b4d5: ec bc 7c     call pe,$7CBC
b4d8: 6a           ld   l,d
b4d9: be           cp   (hl)
b4da: c4 6b be     call nz,$BE6B
b4dd: bb           cp   e
b4de: 6c           ld   l,h
b4df: be           cp   (hl)
b4e0: bd           cp   l
b4e1: 5c           ld   e,h
b4e2: be           cp   (hl)
b4e3: be           cp   (hl)
b4e4: 5d           ld   e,l
b4e5: be           cp   (hl)
b4e6: bf           cp   a
b4e7: 00           nop
b4e8: 00           nop
b4e9: 21 ad 9e     ld   hl,$9EAD
b4ec: cd b1 14     call $14B1
b4ef: 3a 4d 9e     ld   a,($9E4D)
b4f2: b7           or   a
b4f3: 28 1e        jr   z,$B513
b4f5: 21 66 9e     ld   hl,$9E66
b4f8: 11 1f f6     ld   de,$F61F
b4fb: 01 20 00     ld   bc,$0020
b4fe: ed b0        ldir
b500: af           xor  a
b501: 32 c9 9e     ld   ($9EC9),a
b504: 3c           inc  a
b505: 32 ca 9e     ld   ($9ECA),a
b508: 21 86 9e     ld   hl,$9E86
b50b: 11 5a 27     ld   de,$275A
b50e: 01 10 00     ld   bc,$0010
b511: ed b0        ldir
b513: 21 5a 27     ld   hl,$275A
b516: 06 10        ld   b,$10
b518: 0e 00        ld   c,$00
b51a: 7e           ld   a,(hl)
b51b: b7           or   a
b51c: c4 2a 9e     call nz,$9E2A
b51f: 23           inc  hl
b520: 0c           inc  c
b521: 10 f7        djnz $B51A
b523: 21 bf 9e     ld   hl,$9EBF
b526: cd b1 14     call $14B1
b529: c9           ret
b52a: e5           push hl
b52b: c5           push bc
b52c: f5           push af
b52d: 79           ld   a,c
b52e: c6 41        add  a,$41
b530: 32 c5 9e     ld   ($9EC5),a
b533: 21 c3 9e     ld   hl,$9EC3
b536: cd b1 14     call $14B1
b539: f1           pop  af
b53a: cb 27        sla  a
b53c: 5f           ld   e,a
b53d: 16 00        ld   d,$00
b53f: 21 4e 9e     ld   hl,$9E4E
b542: 19           add  hl,de
b543: 7e           ld   a,(hl)
b544: 23           inc  hl
b545: 66           ld   h,(hl)
b546: 6f           ld   l,a
b547: cd b1 14     call $14B1
b54a: c1           pop  bc
b54b: e1           pop  hl
b54c: c9           ret
b54d: 00           nop
b54e: 96           sub  (hl)
b54f: 9e           sbc  a,(hl)
b550: f3           di
b551: 9e           sbc  a,(hl)
b552: 09           add  hl,bc
b553: 9f           sbc  a,a
b554: 20 9f        jr   nz,$B4F5
b556: cb 9e        res  3,(hl)
b558: df           rst  $18
b559: 9e           sbc  a,(hl)
b55a: 00           nop
b55b: 00           nop
b55c: 4b           ld   c,e
b55d: f6 67        or   $67
b55f: f6 42        or   $42
b561: f7           rst  $30
b562: d7           rst  $10
b563: f6 f3        or   $F3
b565: f6 4b        or   $4B
b567: f6 67        or   $67
b569: f6 00        or   $00
b56b: 00           nop
b56c: 00           nop
b56d: 00           nop
b56e: 00           nop
b56f: 00           nop
b570: 00           nop
b571: 00           nop
b572: 00           nop
b573: 00           nop
b574: 00           nop
b575: 00           nop
b576: 00           nop
b577: 00           nop
b578: 00           nop
b579: 00           nop
b57a: 00           nop
b57b: 00           nop
b57c: 00           nop
b57d: 00           nop
b57e: 42           ld   b,d
b57f: f7           rst  $30
b580: 00           nop
b581: 00           nop
b582: 00           nop
b583: 00           nop
b584: 00           nop
b585: 00           nop
b586: 01 02 00     ld   bc,$0002
b589: 00           nop
b58a: 00           nop
b58b: 00           nop
b58c: 00           nop
b58d: 00           nop
b58e: 00           nop
b58f: 00           nop
b590: 00           nop
b591: 00           nop
b592: 03           inc  bc
b593: 00           nop
b594: 00           nop
b595: 00           nop
b596: 2a 2a 20     ld   hl,($202A)
b599: 49           ld   c,c
b59a: 4e           ld   c,(hl)
b59b: 56           ld   d,(hl)
b59c: 41           ld   b,c
b59d: 4c           ld   c,h
b59e: 49           ld   c,c
b59f: 44           ld   b,h
b5a0: 20 44        jr   nz,$B5E6
b5a2: 45           ld   b,l
b5a3: 56           ld   d,(hl)
b5a4: 49           ld   c,c
b5a5: 43           ld   b,e
b5a6: 45           ld   b,l
b5a7: 20 2a        jr   nz,$B5D3
b5a9: 2a 0d 0a     ld   hl,($0A0D)
b5ac: 00           nop
b5ad: 44           ld   b,h
b5ae: 72           ld   (hl),d
b5af: 69           ld   l,c
b5b0: 76           halt
b5b1: 65           ld   h,l
b5b2: 20 41        jr   nz,$B5F5
b5b4: 73           ld   (hl),e
b5b5: 73           ld   (hl),e
b5b6: 69           ld   l,c
b5b7: 67           ld   h,a
b5b8: 6e           ld   l,(hl)
b5b9: 6d           ld   l,l
b5ba: 65           ld   h,l
b5bb: 6e           ld   l,(hl)
b5bc: 74           ld   (hl),h
b5bd: 73           ld   (hl),e
b5be: 3a 0d 0a     ld   a,($0A0D)
b5c1: 0a           ld   a,(bc)
b5c2: 00           nop
b5c3: 20 20        jr   nz,$B5E5
b5c5: 00           nop
b5c6: 3e 20        ld   a,$20
b5c8: 00           nop
b5c9: 00           nop
b5ca: 00           nop
b5cb: 48           ld   c,b
b5cc: 61           ld   h,c
b5cd: 72           ld   (hl),d
b5ce: 64           ld   h,h
b5cf: 20 44        jr   nz,$B615
b5d1: 69           ld   l,c
b5d2: 73           ld   (hl),e
b5d3: 6b           ld   l,e
b5d4: 20 44        jr   nz,$B61A
b5d6: 72           ld   (hl),d
b5d7: 69           ld   l,c
b5d8: 76           halt
b5d9: 65           ld   h,l
b5da: 20 31        jr   nz,$B60D
b5dc: 0d           dec  c
b5dd: 0a           ld   a,(bc)
b5de: 00           nop
b5df: 48           ld   c,b
b5e0: 61           ld   h,c
b5e1: 72           ld   (hl),d
b5e2: 64           ld   h,h
b5e3: 20 44        jr   nz,$B629
b5e5: 69           ld   l,c
b5e6: 73           ld   (hl),e
b5e7: 6b           ld   l,e
b5e8: 20 44        jr   nz,$B62E
b5ea: 72           ld   (hl),d
b5eb: 69           ld   l,c
b5ec: 76           halt
b5ed: 65           ld   h,l
b5ee: 20 32        jr   nz,$B622
b5f0: 0d           dec  c
b5f1: 0a           ld   a,(bc)
b5f2: 00           nop
b5f3: 4c           ld   c,h
b5f4: 65           ld   h,l
b5f5: 66           ld   h,(hl)
b5f6: 74           ld   (hl),h
b5f7: 20 44        jr   nz,$B63D
b5f9: 69           ld   l,c
b5fa: 73           ld   (hl),e
b5fb: 6b           ld   l,e
b5fc: 65           ld   h,l
b5fd: 74           ld   (hl),h
b5fe: 74           ld   (hl),h
b5ff: 65           ld   h,l
b600: 20 44        jr   nz,$B646
b602: 72           ld   (hl),d
b603: 69           ld   l,c
b604: 76           halt
b605: 65           ld   h,l
b606: 0d           dec  c
b607: 0a           ld   a,(bc)
b608: 00           nop
b609: 52           ld   d,d
b60a: 69           ld   l,c
b60b: 67           ld   h,a
b60c: 68           ld   l,b
b60d: 74           ld   (hl),h
b60e: 20 44        jr   nz,$B654
b610: 69           ld   l,c
b611: 73           ld   (hl),e
b612: 6b           ld   l,e
b613: 65           ld   h,l
b614: 74           ld   (hl),h
b615: 74           ld   (hl),h
b616: 65           ld   h,l
b617: 20 44        jr   nz,$B65D
b619: 72           ld   (hl),d
b61a: 69           ld   l,c
b61b: 76           halt
b61c: 65           ld   h,l
b61d: 0d           dec  c
b61e: 0a           ld   a,(bc)
b61f: 00           nop
b620: 52           ld   d,d
b621: 41           ld   b,c
b622: 4d           ld   c,l
b623: 20 44        jr   nz,$B669
b625: 69           ld   l,c
b626: 73           ld   (hl),e
b627: 6b           ld   l,e
b628: 0d           dec  c
b629: 0a           ld   a,(bc)
b62a: 00           nop
b62b: 3a ed 9f     ld   a,($9FED)
b62e: 3d           dec  a
b62f: 32 ed 9f     ld   ($9FED),a
b632: c0           ret  nz
b633: 3e a0        ld   a,$A0
b635: d3 86        out  ($86),a
b637: 47           ld   b,a
b638: 2f           cpl
b639: d3 84        out  ($84),a
b63b: db 86        in   a,($86)
b63d: b8           cp   b
b63e: c2 e3 9f     jp   nz,$9FE3
b641: af           xor  a
b642: 32 4d 9e     ld   ($9E4D),a
b645: 3e 30        ld   a,$30
b647: d3 86        out  ($86),a
b649: 3a 3c 27     ld   a,($273C)
b64c: b7           or   a
b64d: 20 1d        jr   nz,$B66C
b64f: 3e ff        ld   a,$FF
b651: 32 cc 9a     ld   ($9ACC),a
b654: 21 00 00     ld   hl,$0000
b657: 22 d0 9a     ld   ($9AD0),hl
b65a: af           xor  a
b65b: 32 cf 9a     ld   ($9ACF),a
b65e: 3e 00        ld   a,$00
b660: 32 d2 9a     ld   ($9AD2),a
b663: cd b1 99     call $99B1
b666: b7           or   a
b667: 28 18        jr   z,$B681
b669: c3 e8 9f     jp   $9FE8
b66c: 21 00 00     ld   hl,$0000
b66f: 22 d0 9a     ld   ($9AD0),hl
b672: af           xor  a
b673: 32 cf 9a     ld   ($9ACF),a
b676: 3e 00        ld   a,$00
b678: 32 d2 9a     ld   ($9AD2),a
b67b: cd b1 99     call $99B1
b67e: b7           or   a
b67f: 20 62        jr   nz,$B6E3
b681: 2a fe df     ld   hl,($DFFE)
b684: 11 55 aa     ld   de,$AA55
b687: b7           or   a
b688: ed 52        sbc  hl,de
b68a: c2 e8 9f     jp   nz,$9FE8
b68d: 21 c2 df     ld   hl,$DFC2
b690: 11 10 00     ld   de,$0010
b693: 06 04        ld   b,$04
b695: 7e           ld   a,(hl)
b696: fe f0        cp   $F0
b698: 28 05        jr   z,$B69F
b69a: 19           add  hl,de
b69b: 10 f8        djnz $B695
b69d: 18 44        jr   $B6E3
b69f: e5           push hl
b6a0: 2b           dec  hl
b6a1: 5e           ld   e,(hl)
b6a2: 2b           dec  hl
b6a3: 7e           ld   a,(hl)
b6a4: e6 c0        and  $C0
b6a6: 07           rlca
b6a7: 07           rlca
b6a8: 57           ld   d,a
b6a9: 2b           dec  hl
b6aa: 4e           ld   c,(hl)
b6ab: 06 00        ld   b,$00
b6ad: eb           ex   de,hl
b6ae: 29           add  hl,hl
b6af: 29           add  hl,hl
b6b0: 09           add  hl,bc
b6b1: 22 df 9a     ld   ($9ADF),hl
b6b4: e1           pop  hl
b6b5: 23           inc  hl
b6b6: 4e           ld   c,(hl)
b6b7: 23           inc  hl
b6b8: 7e           ld   a,(hl)
b6b9: e6 c0        and  $C0
b6bb: 07           rlca
b6bc: 07           rlca
b6bd: 23           inc  hl
b6be: 6e           ld   l,(hl)
b6bf: 67           ld   h,a
b6c0: 29           add  hl,hl
b6c1: 29           add  hl,hl
b6c2: 09           add  hl,bc
b6c3: ed 5b df 9a  ld   de,($9ADF)
b6c7: b7           or   a
b6c8: ed 52        sbc  hl,de
b6ca: 23           inc  hl
b6cb: cb 3c        srl  h
b6cd: cb 1d        rr   l
b6cf: 22 e1 9a     ld   ($9AE1),hl
b6d2: 2b           dec  hl
b6d3: 2b           dec  hl
b6d4: cb 25        sla  l
b6d6: cb 14        rl   h
b6d8: cb 25        sla  l
b6da: cb 14        rl   h
b6dc: 2b           dec  hl
b6dd: 22 08 f7     ld   ($F708),hl
b6e0: c3 e8 9f     jp   $9FE8
b6e3: 3e ff        ld   a,$FF
b6e5: 32 4d 9e     ld   ($9E4D),a
b6e8: 3e 30        ld   a,$30
b6ea: d3 86        out  ($86),a
b6ec: c9           ret
b6ed: 01 3a 14     ld   bc,$143A
b6f0: 98           sbc  a,b
b6f1: fe 02        cp   $02
b6f3: 20 11        jr   nz,$B706
b6f5: 21 4a 27     ld   hl,$274A
b6f8: 06 10        ld   b,$10
b6fa: 7e           ld   a,(hl)
b6fb: fe 02        cp   $02
b6fd: 28 05        jr   z,$B704
b6ff: 23           inc  hl
b700: 10 f8        djnz $B6FA
b702: 18 02        jr   $B706
b704: af           xor  a
b705: 77           ld   (hl),a
b706: 21 4a 27     ld   hl,$274A
b709: 11 5a 27     ld   de,$275A
b70c: 01 10 00     ld   bc,$0010
b70f: ed b0        ldir
b711: 21 5a 27     ld   hl,$275A
b714: 11 1f f6     ld   de,$F61F
b717: 06 00        ld   b,$00
b719: 7e           ld   a,(hl)
b71a: b7           or   a
b71b: c4 28 a0     call nz,$A028
b71e: 23           inc  hl
b71f: 13           inc  de
b720: 13           inc  de
b721: 04           inc  b
b722: 78           ld   a,b
b723: fe 10        cp   $10
b725: 20 f2        jr   nz,$B719
b727: c9           ret
b728: f5           push af
b729: fe 01        cp   $01
b72b: 20 06        jr   nz,$B733
b72d: 78           ld   a,b
b72e: 32 c9 9e     ld   ($9EC9),a
b731: 18 08        jr   $B73B
b733: fe 02        cp   $02
b735: 20 04        jr   nz,$B73B
b737: 78           ld   a,b
b738: 32 ca 9e     ld   ($9ECA),a
b73b: f1           pop  af
b73c: c5           push bc
b73d: e5           push hl
b73e: d5           push de
b73f: 21 5a 9e     ld   hl,$9E5A
b742: cb 27        sla  a
b744: 5f           ld   e,a
b745: 16 00        ld   d,$00
b747: 19           add  hl,de
b748: d1           pop  de
b749: d5           push de
b74a: 7e           ld   a,(hl)
b74b: 12           ld   (de),a
b74c: 23           inc  hl
b74d: 13           inc  de
b74e: 7e           ld   a,(hl)
b74f: 12           ld   (de),a
b750: d1           pop  de
b751: e1           pop  hl
b752: c1           pop  bc
b753: c9           ret
b754: 21 1f f6     ld   hl,$F61F
b757: 06 10        ld   b,$10
b759: 5e           ld   e,(hl)
b75a: 23           inc  hl
b75b: 7e           ld   a,(hl)
b75c: 23           inc  hl
b75d: 57           ld   d,a
b75e: b3           or   e
b75f: 20 04        jr   nz,$B765
b761: 10 f6        djnz $B759
b763: 18 17        jr   $B77C
b765: c5           push bc
b766: e5           push hl
b767: eb           ex   de,hl
b768: 11 fc ff     ld   de,$FFFC
b76b: 19           add  hl,de
b76c: 7e           ld   a,(hl)
b76d: 23           inc  hl
b76e: 66           ld   h,(hl)
b76f: 6f           ld   l,a
b770: b4           or   h
b771: 28 05        jr   z,$B778
b773: 11 78 a0     ld   de,$A078
b776: d5           push de
b777: e9           jp   (hl)
b778: e1           pop  hl
b779: c1           pop  bc
b77a: 10 dd        djnz $B759
b77c: c9           ret
b77d: 1a           ld   a,(de)
b77e: 09           add  hl,bc
b77f: 09           add  hl,bc
b780: e4 f8 f8     call po,$F8F8
b783: f8           ret  m
b784: f8           ret  m
b785: f8           ret  m
b786: f8           ret  m
b787: f8           ret  m
b788: f8           ret  m
b789: f8           ret  m
b78a: f8           ret  m
b78b: f8           ret  m
b78c: f8           ret  m
b78d: f8           ret  m
b78e: f8           ret  m
b78f: f8           ret  m
b790: f8           ret  m
b791: f8           ret  m
b792: f8           ret  m
b793: f8           ret  m
b794: f8           ret  m
b795: f8           ret  m
b796: f8           ret  m
b797: f8           ret  m
b798: f8           ret  m
b799: f8           ret  m
b79a: f8           ret  m
b79b: f8           ret  m
b79c: f8           ret  m
b79d: f8           ret  m
b79e: f8           ret  m
b79f: f8           ret  m
b7a0: f8           ret  m
b7a1: f8           ret  m
b7a2: f8           ret  m
b7a3: f8           ret  m
b7a4: f8           ret  m
b7a5: f8           ret  m
b7a6: f8           ret  m
b7a7: f8           ret  m
b7a8: f8           ret  m
b7a9: f8           ret  m
b7aa: f8           ret  m
b7ab: f8           ret  m
b7ac: f8           ret  m
b7ad: f8           ret  m
b7ae: f4 0d 0a     call p,$0A0D
b7b1: 09           add  hl,bc
b7b2: 09           add  hl,bc
b7b3: f9           ld   sp,hl
b7b4: 20 20        jr   nz,$B7D6
b7b6: 43           ld   b,e
b7b7: 50           ld   d,b
b7b8: 2f           cpl
b7b9: 4d           ld   c,l
b7ba: 2d           dec  l
b7bb: 38 30        jr   c,$B7ED
b7bd: 20 20        jr   nz,$B7DF
b7bf: 52           ld   d,d
b7c0: 32 2e 32     ld   ($322E),a
b7c3: 20 46        jr   nz,$B80B
b7c5: 4f           ld   c,a
b7c6: 52           ld   d,d
b7c7: 20 54        jr   nz,$B81D
b7c9: 48           ld   c,b
b7ca: 45           ld   b,l
b7cb: 20 45        jr   nz,$B812
b7cd: 50           ld   d,b
b7ce: 53           ld   d,e
b7cf: 4f           ld   c,a
b7d0: 4e           ld   c,(hl)
b7d1: 20 51        jr   nz,$B824
b7d3: 58           ld   e,b
b7d4: 2d           dec  l
b7d5: 31 30 20     ld   sp,$2030
b7d8: 26 20        ld   h,$20
b7da: 51           ld   d,c
b7db: 58           ld   e,b
b7dc: 2d           dec  l
b7dd: 31 36 20     ld   sp,$2036
b7e0: 20 f9        jr   nz,$B7DB
b7e2: 0d           dec  c
b7e3: 0a           ld   a,(bc)
b7e4: 09           add  hl,bc
b7e5: 09           add  hl,bc
b7e6: f9           ld   sp,hl
b7e7: 20 20        jr   nz,$B809
b7e9: 20 20        jr   nz,$B80B
b7eb: 43           ld   b,e
b7ec: 4f           ld   c,a
b7ed: 50           ld   d,b
b7ee: 59           ld   e,c
b7ef: 52           ld   d,d
b7f0: 49           ld   c,c
b7f1: 47           ld   b,a
b7f2: 48           ld   c,b
b7f3: 54           ld   d,h
b7f4: 20 d0        jr   nz,$B7C6
b7f6: 20 31        jr   nz,$B829
b7f8: 39           add  hl,sp
b7f9: 38 34        jr   c,$B82F
b7fb: 2c           inc  l
b7fc: 20 45        jr   nz,$B843
b7fe: 50           ld   d,b
b7ff: 53           ld   d,e
b800: 4f           ld   c,a
b801: 4e           ld   c,(hl)
b802: 20 41        jr   nz,$B845
b804: 4d           ld   c,l
b805: 45           ld   b,l
b806: 52           ld   d,d
b807: 49           ld   c,c
b808: 43           ld   b,e
b809: 41           ld   b,c
b80a: 2c           inc  l
b80b: 20 49        jr   nz,$B856
b80d: 4e           ld   c,(hl)
b80e: 43           ld   b,e
b80f: 2e 20        ld   l,$20
b811: 20 20        jr   nz,$B833
b813: 20 f9        jr   nz,$B80E
b815: 0d           dec  c
b816: 0a           ld   a,(bc)
b817: 09           add  hl,bc
b818: 09           add  hl,bc
b819: f9           ld   sp,hl
b81a: 20 20        jr   nz,$B83C
b81c: 20 20        jr   nz,$B83E
b81e: 20 20        jr   nz,$B840
b820: 20 20        jr   nz,$B842
b822: 20 20        jr   nz,$B844
b824: 20 20        jr   nz,$B846
b826: 20 41        jr   nz,$B869
b828: 4c           ld   c,h
b829: 4c           ld   c,h
b82a: 20 52        jr   nz,$B87E
b82c: 49           ld   c,c
b82d: 47           ld   b,a
b82e: 48           ld   c,b
b82f: 54           ld   d,h
b830: 53           ld   d,e
b831: 20 52        jr   nz,$B885
b833: 45           ld   b,l
b834: 53           ld   d,e
b835: 45           ld   b,l
b836: 52           ld   d,d
b837: 56           ld   d,(hl)
b838: 45           ld   b,l
b839: 44           ld   b,h
b83a: 20 20        jr   nz,$B85C
b83c: 20 20        jr   nz,$B85E
b83e: 20 20        jr   nz,$B860
b840: 20 20        jr   nz,$B862
b842: 20 20        jr   nz,$B864
b844: 20 20        jr   nz,$B866
b846: 20 f9        jr   nz,$B841
b848: 0d           dec  c
b849: 0a           ld   a,(bc)
b84a: 09           add  hl,bc
b84b: 09           add  hl,bc
b84c: f9           ld   sp,hl
b84d: 20 20        jr   nz,$B86F
b84f: 20 20        jr   nz,$B871
b851: 20 20        jr   nz,$B873
b853: 20 20        jr   nz,$B875
b855: 20 20        jr   nz,$B877
b857: 20 4d        jr   nz,$B8A6
b859: 55           ld   d,l
b85a: 4c           ld   c,h
b85b: 54           ld   d,h
b85c: 49           ld   c,c
b85d: 42           ld   b,d
b85e: 41           ld   b,c
b85f: 4e           ld   c,(hl)
b860: 4b           ld   c,e
b861: 20 56        jr   nz,$B8B9
b863: 45           ld   b,l
b864: 52           ld   d,d
b865: 53           ld   d,e
b866: 49           ld   c,c
b867: 4f           ld   c,a
b868: 4e           ld   c,(hl)
b869: 20 42        jr   nz,$B8AD
b86b: 32 2e 32     ld   ($322E),a
b86e: 37           scf
b86f: 20 20        jr   nz,$B891
b871: 20 20        jr   nz,$B893
b873: 20 20        jr   nz,$B895
b875: 20 20        jr   nz,$B897
b877: 20 20        jr   nz,$B899
b879: 20 f9        jr   nz,$B874
b87b: 0d           dec  c
b87c: 0a           ld   a,(bc)
b87d: 09           add  hl,bc
b87e: 09           add  hl,bc
b87f: e5           push hl
b880: f8           ret  m
b881: f8           ret  m
b882: f8           ret  m
b883: f8           ret  m
b884: f8           ret  m
b885: f8           ret  m
b886: f8           ret  m
b887: f8           ret  m
b888: f8           ret  m
b889: f8           ret  m
b88a: f8           ret  m
b88b: f8           ret  m
b88c: f8           ret  m
b88d: f8           ret  m
b88e: f8           ret  m
b88f: f8           ret  m
b890: f8           ret  m
b891: f8           ret  m
b892: f8           ret  m
b893: f8           ret  m
b894: f8           ret  m
b895: f8           ret  m
b896: f8           ret  m
b897: f8           ret  m
b898: f8           ret  m
b899: f8           ret  m
b89a: f8           ret  m
b89b: f8           ret  m
b89c: f8           ret  m
b89d: f8           ret  m
b89e: f8           ret  m
b89f: f8           ret  m
b8a0: f8           ret  m
b8a1: f8           ret  m
b8a2: f8           ret  m
b8a3: f8           ret  m
b8a4: f8           ret  m
b8a5: f8           ret  m
b8a6: f8           ret  m
b8a7: f8           ret  m
b8a8: f8           ret  m
b8a9: f8           ret  m
b8aa: f8           ret  m
b8ab: f8           ret  m
b8ac: f8           ret  m
b8ad: f5           push af
b8ae: 0d           dec  c
b8af: 0a           ld   a,(bc)
b8b0: 0a           ld   a,(bc)
b8b1: 0a           ld   a,(bc)
b8b2: 00           nop
b8b3: cd 43 a5     call $A543
b8b6: 21 ff ff     ld   hl,$FFFF
b8b9: 22 7e b1     ld   ($B17E),hl
b8bc: 01 00 03     ld   bc,$0300
b8bf: cd 9b f3     call $F39B
b8c2: 21 00 da     ld   hl,$DA00
b8c5: 11 00 d8     ld   de,$D800
b8c8: 01 00 08     ld   bc,$0800
b8cb: cd a5 f3     call $F3A5
b8ce: cd 41 a2     call $A241
b8d1: 3a e8 9d     ld   a,($9DE8)
b8d4: b7           or   a
b8d5: c4 2b 9f     call nz,$9F2B
b8d8: 3e 81        ld   a,$81
b8da: cd 62 f3     call $F362
b8dd: af           xor  a
b8de: cd 88 f3     call $F388
b8e1: 3e 0a        ld   a,$0A
b8e3: d3 3d        out  ($3D),a
b8e5: 3e 2b        ld   a,$2B
b8e7: d3 3c        out  ($3C),a
b8e9: 3e 0b        ld   a,$0B
b8eb: d3 3d        out  ($3D),a
b8ed: 3e 1a        ld   a,$1A
b8ef: d3 3c        out  ($3C),a
b8f1: 3e 0c        ld   a,$0C
b8f3: d3 3d        out  ($3D),a
b8f5: db 3c        in   a,($3C)
b8f7: 21 00 0d     ld   hl,$0D00
b8fa: 3e b6        ld   a,$B6
b8fc: d3 07        out  ($07),a
b8fe: 7c           ld   a,h
b8ff: d3 06        out  ($06),a
b901: 7d           ld   a,l
b902: d3 06        out  ($06),a
b904: 3e 18        ld   a,$18
b906: d3 13        out  ($13),a
b908: 00           nop
b909: 00           nop
b90a: 21 64 14     ld   hl,$1464
b90d: 06 0b        ld   b,$0B
b90f: 0e 13        ld   c,$13
b911: ed b3        otir
b913: 3e 18        ld   a,$18
b915: d3 12        out  ($12),a
b917: 00           nop
b918: 00           nop
b919: 21 2e a3     ld   hl,$A32E
b91c: 06 0a        ld   b,$0A
b91e: 0e 12        ld   c,$12
b920: ed b3        otir
b922: cd 8b 26     call $268B
b925: cd b2 f5     call $F5B2
b928: cd aa 26     call $26AA
b92b: cd b0 26     call $26B0
b92e: 21 d7 e4     ld   hl,$E4D7
b931: 11 85 f7     ld   de,$F785
b934: 73           ld   (hl),e
b935: 23           inc  hl
b936: 72           ld   (hl),d
b937: 21 db e4     ld   hl,$E4DB
b93a: 11 95 f7     ld   de,$F795
b93d: 73           ld   (hl),e
b93e: 23           inc  hl
b93f: 72           ld   (hl),d
b940: c9           ret
b941: 21 c7 a2     ld   hl,$A2C7
b944: 11 00 e0     ld   de,$E000
b947: 01 4c 00     ld   bc,$004C
b94a: ed b0        ldir
b94c: cd 00 e0     call $E000
b94f: 21 13 a3     ld   hl,$A313
b952: 11 02 e0     ld   de,$E002
b955: 06 05        ld   b,$05
b957: 1a           ld   a,(de)
b958: be           cp   (hl)
b959: 20 09        jr   nz,$B964
b95b: 23           inc  hl
b95c: 13           inc  de
b95d: 10 f8        djnz $B957
b95f: 3e 01        ld   a,$01
b961: c3 76 a2     jp   $A276
b964: 21 18 a3     ld   hl,$A318
b967: 11 00 e0     ld   de,$E000
b96a: 06 07        ld   b,$07
b96c: 1a           ld   a,(de)
b96d: be           cp   (hl)
b96e: 20 12        jr   nz,$B982
b970: 23           inc  hl
b971: 13           inc  de
b972: 10 f8        djnz $B96C
b974: 3e 02        ld   a,$02
b976: 32 14 98     ld   ($9814),a
b979: 3e 03        ld   a,$03
b97b: 32 e7 9d     ld   ($9DE7),a
b97e: cd 12 e0     call $E012
b981: c9           ret
b982: 3e e0        ld   a,$E0
b984: cd bc a2     call $A2BC
b987: af           xor  a
b988: cd bc a2     call $A2BC
b98b: cd bc a2     call $A2BC
b98e: cd a7 a2     call $A2A7
b991: 3e 03        ld   a,$03
b993: b8           cp   b
b994: 38 04        jr   c,$B99A
b996: 3e 01        ld   a,$01
b998: 18 02        jr   $B99C
b99a: 3e 02        ld   a,$02
b99c: 32 e7 9d     ld   ($9DE7),a
b99f: af           xor  a
b9a0: 32 14 98     ld   ($9814),a
b9a3: cd 38 a3     call $A338
b9a6: c9           ret
b9a7: 11 00 00     ld   de,$0000
b9aa: 06 08        ld   b,$08
b9ac: db 12        in   a,($12)
b9ae: e6 01        and  $01
b9b0: 20 07        jr   nz,$B9B9
b9b2: 1b           dec  de
b9b3: 7a           ld   a,d
b9b4: b3           or   e
b9b5: 20 f5        jr   nz,$B9AC
b9b7: 10 f3        djnz $B9AC
b9b9: db 10        in   a,($10)
b9bb: c9           ret
b9bc: f5           push af
b9bd: db 12        in   a,($12)
b9bf: e6 04        and  $04
b9c1: 28 fa        jr   z,$B9BD
b9c3: f1           pop  af
b9c4: d3 10        out  ($10),a
b9c6: c9           ret
b9c7: af           xor  a
b9c8: d3 1c        out  ($1C),a
b9ca: 21 f9 1f     ld   hl,$1FF9
b9cd: 11 00 e0     ld   de,$E000
b9d0: 01 07 00     ld   bc,$0007
b9d3: ed b0        ldir
b9d5: 3c           inc  a
b9d6: d3 1c        out  ($1C),a
b9d8: c9           ret
b9d9: 3e 07        ld   a,$07
b9db: cd 27 f3     call $F327
b9de: 21 00 f0     ld   hl,$F000
b9e1: 11 00 00     ld   de,$0000
b9e4: 01 80 00     ld   bc,$0080
b9e7: ed b0        ldir
b9e9: 21 00 f0     ld   hl,$F000
b9ec: 11 00 00     ld   de,$0000
b9ef: 06 80        ld   b,$80
b9f1: 1a           ld   a,(de)
b9f2: be           cp   (hl)
b9f3: 20 19        jr   nz,$BA0E
b9f5: 23           inc  hl
b9f6: 13           inc  de
b9f7: 10 f8        djnz $B9F1
b9f9: af           xor  a
b9fa: cd 27 f3     call $F327
b9fd: 21 1f a3     ld   hl,$A31F
ba00: 11 52 f7     ld   de,$F752
ba03: 01 0f 00     ld   bc,$000F
ba06: ed b0        ldir
ba08: 3e 2a        ld   a,$2A
ba0a: 32 66 9b     ld   ($9B66),a
ba0d: c9           ret
ba0e: af           xor  a
ba0f: cd 27 f3     call $F327
ba12: c9           ret
ba13: 51           ld   d,c
ba14: 58           ld   e,b
ba15: 2d           dec  l
ba16: 31 36 51     ld   sp,$5136
ba19: 58           ld   e,b
ba1a: 2d           dec  l
ba1b: 31 36 48     ld   sp,$4836
ba1e: 44           ld   b,h
ba1f: 40           ld   b,b
ba20: 00           nop
ba21: 04           inc  b
ba22: 0f           rrca
ba23: 00           nop
ba24: a3           and  e
ba25: 00           nop
ba26: 3f           ccf
ba27: 00           nop
ba28: 80           add  a,b
ba29: 00           nop
ba2a: 00           nop
ba2b: 00           nop
ba2c: 00           nop
ba2d: 00           nop
ba2e: 14           inc  d
ba2f: 37           scf
ba30: 03           inc  bc
ba31: e1           pop  hl
ba32: 05           dec  b
ba33: ea 02 00     jp   pe,$0002
ba36: 01 10 3e     ld   bc,$3E10
ba39: 00           nop
ba3a: d3 39        out  ($39),a
ba3c: 3e 6f        ld   a,$6F
ba3e: d3 39        out  ($39),a
ba40: db 2c        in   a,($2C)
ba42: e6 01        and  $01
ba44: c2 dd a3     jp   nz,$A3DD
ba47: 3e 0e        ld   a,$0E
ba49: d3 39        out  ($39),a
ba4b: 0e 38        ld   c,$38
ba4d: 06 08        ld   b,$08
ba4f: 21 13 a5     ld   hl,$A513
ba52: ed b3        otir
ba54: db 38        in   a,($38)
ba56: e6 06        and  $06
ba58: ee 04        xor  $04
ba5a: 20 f8        jr   nz,$BA54
ba5c: 3e 4b        ld   a,$4B
ba5e: d3 39        out  ($39),a
ba60: 3e 0f        ld   a,$0F
ba62: d3 38        out  ($38),a
ba64: 3e 6d        ld   a,$6D
ba66: d3 38        out  ($38),a
ba68: 3e 70        ld   a,$70
ba6a: d3 38        out  ($38),a
ba6c: 3e 46        ld   a,$46
ba6e: d3 39        out  ($39),a
ba70: af           xor  a
ba71: d3 38        out  ($38),a
ba73: d3 3a        out  ($3A),a
ba75: db 38        in   a,($38)
ba77: e6 06        and  $06
ba79: ee 04        xor  $04
ba7b: 20 f8        jr   nz,$BA75
ba7d: 3e 47        ld   a,$47
ba7f: d3 39        out  ($39),a
ba81: 3e 50        ld   a,$50
ba83: d3 38        out  ($38),a
ba85: 3e 70        ld   a,$70
ba87: d3 39        out  ($39),a
ba89: 3e 00        ld   a,$00
ba8b: d3 38        out  ($38),a
ba8d: d3 38        out  ($38),a
ba8f: d3 38        out  ($38),a
ba91: 3e 19        ld   a,$19
ba93: d3 38        out  ($38),a
ba95: cd 9b a3     call $A39B
ba98: c3 71 a4     jp   $A471
ba9b: db 38        in   a,($38)
ba9d: e6 06        and  $06
ba9f: ee 04        xor  $04
baa1: 20 f8        jr   nz,$BA9B
baa3: 3e 49        ld   a,$49
baa5: d3 39        out  ($39),a
baa7: af           xor  a
baa8: d3 38        out  ($38),a
baaa: d3 38        out  ($38),a
baac: 06 04        ld   b,$04
baae: 21 ff 3f     ld   hl,$3FFF
bab1: 3e 4c        ld   a,$4C
bab3: d3 39        out  ($39),a
bab5: 3e 02        ld   a,$02
bab7: d3 38        out  ($38),a
bab9: 7d           ld   a,l
baba: d3 38        out  ($38),a
babc: 7c           ld   a,h
babd: d3 38        out  ($38),a
babf: 3e 4a        ld   a,$4A
bac1: d3 39        out  ($39),a
bac3: 3e ff        ld   a,$FF
bac5: d3 38        out  ($38),a
bac7: d3 38        out  ($38),a
bac9: 3e 20        ld   a,$20
bacb: d3 39        out  ($39),a
bacd: af           xor  a
bace: d3 38        out  ($38),a
bad0: d3 38        out  ($38),a
bad2: db 38        in   a,($38)
bad4: e6 06        and  $06
bad6: ee 04        xor  $04
bad8: 20 f8        jr   nz,$BAD2
bada: 10 d2        djnz $BAAE
badc: c9           ret
badd: 3e 0e        ld   a,$0E
badf: d3 39        out  ($39),a
bae1: 0e 38        ld   c,$38
bae3: 06 08        ld   b,$08
bae5: 21 1b a5     ld   hl,$A51B
bae8: ed b3        otir
baea: db 38        in   a,($38)
baec: e6 06        and  $06
baee: ee 04        xor  $04
baf0: 20 f8        jr   nz,$BAEA
baf2: 3e 4b        ld   a,$4B
baf4: d3 39        out  ($39),a
baf6: af           xor  a
baf7: d3 38        out  ($38),a
baf9: d3 38        out  ($38),a
bafb: d3 38        out  ($38),a
bafd: 3e 46        ld   a,$46
baff: d3 39        out  ($39),a
bb01: af           xor  a
bb02: d3 38        out  ($38),a
bb04: d3 3a        out  ($3A),a
bb06: db 38        in   a,($38)
bb08: e6 06        and  $06
bb0a: ee 04        xor  $04
bb0c: 20 f8        jr   nz,$BB06
bb0e: 3e 47        ld   a,$47
bb10: d3 39        out  ($39),a
bb12: 3e 28        ld   a,$28
bb14: d3 38        out  ($38),a
bb16: 3e 70        ld   a,$70
bb18: d3 39        out  ($39),a
bb1a: af           xor  a
bb1b: d3 38        out  ($38),a
bb1d: d3 38        out  ($38),a
bb1f: d3 38        out  ($38),a
bb21: 3e 19        ld   a,$19
bb23: d3 38        out  ($38),a
bb25: 3e 01        ld   a,$01
bb27: cd 79 a4     call $A479
bb2a: 3e 04        ld   a,$04
bb2c: cd 79 a4     call $A479
bb2f: 3e 02        ld   a,$02
bb31: cd 79 a4     call $A479
bb34: 11 33 a5     ld   de,$A533
bb37: 21 1b a5     ld   hl,$A51B
bb3a: 01 08 00     ld   bc,$0008
bb3d: ed b0        ldir
bb3f: 21 33 a5     ld   hl,$A533
bb42: cb e6        set  4,(hl)
bb44: 06 08        ld   b,$08
bb46: 0e 38        ld   c,$38
bb48: 3e 0e        ld   a,$0E
bb4a: d3 39        out  ($39),a
bb4c: ed b3        otir
bb4e: db 38        in   a,($38)
bb50: e6 06        and  $06
bb52: ee 04        xor  $04
bb54: 20 f8        jr   nz,$BB4E
bb56: 3e 47        ld   a,$47
bb58: d3 39        out  ($39),a
bb5a: 3e 28        ld   a,$28
bb5c: d3 38        out  ($38),a
bb5e: 3e 70        ld   a,$70
bb60: d3 39        out  ($39),a
bb62: af           xor  a
bb63: d3 38        out  ($38),a
bb65: d3 38        out  ($38),a
bb67: d3 38        out  ($38),a
bb69: 3e 19        ld   a,$19
bb6b: d3 38        out  ($38),a
bb6d: 3e 20        ld   a,$20
bb6f: d3 39        out  ($39),a
bb71: 3e 6b        ld   a,$6B
bb73: d3 39        out  ($39),a
bb75: af           xor  a
bb76: d3 4d        out  ($4D),a
bb78: c9           ret
bb79: d3 2d        out  ($2D),a
bb7b: db 38        in   a,($38)
bb7d: e6 06        and  $06
bb7f: ee 04        xor  $04
bb81: 20 f8        jr   nz,$BB7B
bb83: 3e 49        ld   a,$49
bb85: d3 39        out  ($39),a
bb87: af           xor  a
bb88: d3 38        out  ($38),a
bb8a: d3 38        out  ($38),a
bb8c: d3 38        out  ($38),a
bb8e: 3e 4a        ld   a,$4A
bb90: d3 39        out  ($39),a
bb92: 3e ff        ld   a,$FF
bb94: d3 38        out  ($38),a
bb96: d3 38        out  ($38),a
bb98: db 38        in   a,($38)
bb9a: e6 06        and  $06
bb9c: ee 04        xor  $04
bb9e: 20 f8        jr   nz,$BB98
bba0: 3e 78        ld   a,$78
bba2: d3 39        out  ($39),a
bba4: 06 08        ld   b,$08
bba6: 3e ff        ld   a,$FF
bba8: d3 38        out  ($38),a
bbaa: 10 fc        djnz $BBA8
bbac: db 38        in   a,($38)
bbae: e6 06        and  $06
bbb0: ee 04        xor  $04
bbb2: 20 f8        jr   nz,$BBAC
bbb4: 3e 4c        ld   a,$4C
bbb6: d3 39        out  ($39),a
bbb8: 3e 10        ld   a,$10
bbba: d3 38        out  ($38),a
bbbc: 01 27 00     ld   bc,$0027
bbbf: 79           ld   a,c
bbc0: d3 38        out  ($38),a
bbc2: 78           ld   a,b
bbc3: d3 38        out  ($38),a
bbc5: 01 68 06     ld   bc,$0668
bbc8: 79           ld   a,c
bbc9: d3 38        out  ($38),a
bbcb: 78           ld   a,b
bbcc: d3 38        out  ($38),a
bbce: 3e 22        ld   a,$22
bbd0: d3 39        out  ($39),a
bbd2: 3e 68        ld   a,$68
bbd4: d3 39        out  ($39),a
bbd6: 3e 49        ld   a,$49
bbd8: d3 39        out  ($39),a
bbda: af           xor  a
bbdb: d3 38        out  ($38),a
bbdd: d3 38        out  ($38),a
bbdf: d3 38        out  ($38),a
bbe1: db 38        in   a,($38)
bbe3: e6 06        and  $06
bbe5: ee 04        xor  $04
bbe7: 20 f8        jr   nz,$BBE1
bbe9: c9           ret
bbea: 01 49 03     ld   bc,$0349
bbed: 00           nop
bbee: 00           nop
bbef: 00           nop
bbf0: 06 78        ld   b,$78
bbf2: 08           ex   af,af'
bbf3: 00           nop
bbf4: 00           nop
bbf5: 00           nop
bbf6: 00           nop
bbf7: 00           nop
bbf8: 00           nop
bbf9: 00           nop
bbfa: 00           nop
bbfb: 4c           ld   c,h
bbfc: 03           inc  bc
bbfd: 12           ld   (de),a
bbfe: 07           rlca
bbff: 00           nop
bc00: 68           ld   l,b
bc01: 00           nop
bc02: 78           ld   a,b
bc03: 08           ex   af,af'
bc04: 00           nop
bc05: 00           nop
bc06: 00           nop
bc07: 00           nop
bc08: 00           nop
bc09: 00           nop
bc0a: 00           nop
bc0b: 00           nop
bc0c: 4c           ld   c,h
bc0d: 03           inc  bc
bc0e: 12           ld   (de),a
bc0f: 07           rlca
bc10: 00           nop
bc11: 68           ld   l,b
bc12: 00           nop
bc13: 14           inc  d
bc14: 4e           ld   c,(hl)
bc15: 02           ld   (bc),a
bc16: 1a           ld   a,(de)
bc17: 12           ld   (de),a
bc18: 01 90 11     ld   bc,$1190
bc1b: 06 26        ld   b,$26
bc1d: 23           inc  hl
bc1e: 11 04 07     ld   de,$0704
bc21: 90           sub  b
bc22: 65           ld   h,l
bc23: e8           ret  pe
bc24: e4 c9 c3     call po,$C3C9
bc27: c8           ret  z
bc28: c9           ret
bc29: 40           ld   b,b
bc2a: e4 e2 c8     call po,$C8E2
bc2d: c9           ret
bc2e: e8           ret  pe
bc2f: c1           pop  bc
bc30: d4 c1 40     call nc,$40C1
bc33: 00           nop
bc34: 00           nop
bc35: 00           nop
bc36: 00           nop
bc37: 00           nop
bc38: 00           nop
bc39: 00           nop
bc3a: 00           nop
bc3b: 00           nop
bc3c: 00           nop
bc3d: 00           nop
bc3e: 00           nop
bc3f: 00           nop
bc40: 00           nop
bc41: 00           nop
bc42: 00           nop
bc43: 2a 07 e2     ld   hl,($E207)
bc46: 22 c7 f7     ld   ($F7C7),hl
bc49: 21 a4 f7     ld   hl,$F7A4
bc4c: 22 07 e2     ld   ($E207),hl
bc4f: c9           ret
bc50: c3 01 f1     jp   $F101
bc53: c3 08 f1     jp   $F108
bc56: c3 0f f1     jp   $F10F
bc59: c3 1b f1     jp   $F11B
bc5c: c3 22 f1     jp   $F122
bc5f: c3 29 f1     jp   $F129
bc62: c3 30 f1     jp   $F130
bc65: c3 37 f1     jp   $F137
bc68: c3 3e f1     jp   $F13E
bc6b: c3 45 f1     jp   $F145
bc6e: c3 4c f1     jp   $F14C
bc71: c3 53 f1     jp   $F153
bc74: c3 5a f1     jp   $F15A
bc77: c3 61 f1     jp   $F161
bc7a: c3 68 f1     jp   $F168
bc7d: c3 6f f1     jp   $F16F
bc80: c3 76 f1     jp   $F176
bc83: c3 63 f0     jp   $F063
bc86: c3 63 f0     jp   $F063
bc89: c3 63 f0     jp   $F063
bc8c: c3 63 f0     jp   $F063
bc8f: c3 63 f0     jp   $F063
bc92: c3 63 f0     jp   $F063
bc95: c3 63 f0     jp   $F063
bc98: c3 63 f0     jp   $F063
bc9b: c3 63 f0     jp   $F063
bc9e: c3 63 f0     jp   $F063
bca1: c3 63 f0     jp   $F063
bca4: c3 63 f0     jp   $F063
bca7: c3 63 f0     jp   $F063
bcaa: c3 7d f1     jp   $F17D
bcad: dc f7 5e     call c,$5EF7
bcb0: 9c           sbc  a,h
bcb1: 0c           inc  c
bcb2: 9c           sbc  a,h
bcb3: c9           ret
bcb4: 00           nop
bcb5: 01 00 00     ld   bc,$0000
bcb8: 00           nop
bcb9: 00           nop
bcba: 00           nop
bcbb: 00           nop
bcbc: 00           nop
bcbd: 00           nop
bcbe: 00           nop
bcbf: 00           nop
bcc0: 00           nop
bcc1: 00           nop
bcc2: 00           nop
bcc3: 00           nop
bcc4: 00           nop
bcc5: 00           nop
bcc6: 00           nop
bcc7: 00           nop
bcc8: 00           nop
bcc9: 00           nop
bcca: 00           nop
bccb: 00           nop
bccc: 00           nop
bccd: 00           nop
bcce: 00           nop
bccf: 00           nop
bcd0: f3           di
bcd1: 32 29 f4     ld   ($F429),a
bcd4: 3e 00        ld   a,$00
bcd6: 18 76        jr   $BD4E
bcd8: f3           di
bcd9: 32 29 f4     ld   ($F429),a
bcdc: 3e 03        ld   a,$03
bcde: 18 6e        jr   $BD4E
bce0: f3           di
bce1: 32 29 f4     ld   ($F429),a
bce4: 3e 06        ld   a,$06
bce6: 18 66        jr   $BD4E
bce8: f3           di
bce9: 32 29 f4     ld   ($F429),a
bcec: 3e 09        ld   a,$09
bcee: 18 5e        jr   $BD4E
bcf0: f3           di
bcf1: 32 29 f4     ld   ($F429),a
bcf4: 3e 0c        ld   a,$0C
bcf6: 18 56        jr   $BD4E
bcf8: f3           di
bcf9: 32 29 f4     ld   ($F429),a
bcfc: 3e 0f        ld   a,$0F
bcfe: 18 4e        jr   $BD4E
bd00: f3           di
bd01: 32 29 f4     ld   ($F429),a
bd04: 3e 12        ld   a,$12
bd06: 18 46        jr   $BD4E
bd08: f3           di
bd09: 32 29 f4     ld   ($F429),a
bd0c: 3e 15        ld   a,$15
bd0e: 18 3e        jr   $BD4E
bd10: f3           di
bd11: 32 29 f4     ld   ($F429),a
bd14: 3e 18        ld   a,$18
bd16: 18 36        jr   $BD4E
bd18: f3           di
bd19: 32 29 f4     ld   ($F429),a
bd1c: 3e 1b        ld   a,$1B
bd1e: 18 2e        jr   $BD4E
bd20: f3           di
bd21: 32 29 f4     ld   ($F429),a
bd24: 3e 1e        ld   a,$1E
bd26: 18 26        jr   $BD4E
bd28: f3           di
bd29: 32 29 f4     ld   ($F429),a
bd2c: 3e 21        ld   a,$21
bd2e: 18 1e        jr   $BD4E
bd30: f3           di
bd31: 32 29 f4     ld   ($F429),a
bd34: 3e 24        ld   a,$24
bd36: 18 16        jr   $BD4E
bd38: f3           di
bd39: 32 29 f4     ld   ($F429),a
bd3c: 3e 27        ld   a,$27
bd3e: 18 0e        jr   $BD4E
bd40: f3           di
bd41: 32 29 f4     ld   ($F429),a
bd44: 3e 2a        ld   a,$2A
bd46: 18 06        jr   $BD4E
bd48: f3           di
bd49: 32 29 f4     ld   ($F429),a
bd4c: 3e 2d        ld   a,$2D
bd4e: c3 6e f2     jp   $F26E
bd51: d9           exx
bd52: 21 0c 9c     ld   hl,$9C0C
bd55: c3 91 f1     jp   $F191
bd58: d9           exx
bd59: 21 6e 00     ld   hl,$006E
bd5c: c3 91 f1     jp   $F191
bd5f: d9           exx
bd60: 3e ff        ld   a,$FF
bd62: 32 36 f4     ld   ($F436),a
bd65: 21 5b 12     ld   hl,$125B
bd68: c3 91 f1     jp   $F191
bd6b: d9           exx
bd6c: 21 69 12     ld   hl,$1269
bd6f: c3 91 f1     jp   $F191
bd72: d9           exx
bd73: 21 77 12     ld   hl,$1277
bd76: c3 91 f1     jp   $F191
bd79: d9           exx
bd7a: 21 a7 12     ld   hl,$12A7
bd7d: c3 91 f1     jp   $F191
bd80: d9           exx
bd81: 21 85 12     ld   hl,$1285
bd84: c3 91 f1     jp   $F191
bd87: d9           exx
bd88: 21 97 12     ld   hl,$1297
bd8b: c3 91 f1     jp   $F191
bd8e: d9           exx
bd8f: 21 39 90     ld   hl,$9039
bd92: c3 91 f1     jp   $F191
bd95: d9           exx
bd96: 21 fb 8f     ld   hl,$8FFB
bd99: c3 91 f1     jp   $F191
bd9c: d9           exx
bd9d: 21 51 90     ld   hl,$9051
bda0: c3 91 f1     jp   $F191
bda3: d9           exx
bda4: 21 56 90     ld   hl,$9056
bda7: c3 91 f1     jp   $F191
bdaa: d9           exx
bdab: 21 5e 90     ld   hl,$905E
bdae: c3 91 f1     jp   $F191
bdb1: d9           exx
bdb2: 21 63 90     ld   hl,$9063
bdb5: c3 91 f1     jp   $F191
bdb8: d9           exx
bdb9: 21 7d 90     ld   hl,$907D
bdbc: c3 91 f1     jp   $F191
bdbf: d9           exx
bdc0: 21 b7 12     ld   hl,$12B7
bdc3: c3 91 f1     jp   $F191
bdc6: d9           exx
bdc7: 21 5b 90     ld   hl,$905B
bdca: c3 91 f1     jp   $F191
bdcd: f5           push af
bdce: 79           ld   a,c
bdcf: fe 31        cp   $31
bdd1: ca b8 f4     jp   z,$F4B8
bdd4: fe 32        cp   $32
bdd6: ca 23 f5     jp   z,$F523
bdd9: f1           pop  af
bdda: d9           exx
bddb: 21 fb 00     ld   hl,$00FB
bdde: c3 91 f1     jp   $F191
bde1: f3           di
bde2: ed 73 90 f4  ld   ($F490),sp
bde6: 31 2c f9     ld   sp,$F92C
bde9: 11 d6 f1     ld   de,$F1D6
bdec: d5           push de
bded: e5           push hl
bdee: d9           exx
bdef: f5           push af
bdf0: 3a 03 00     ld   a,($0003)
bdf3: 32 64 f0     ld   ($F064),a
bdf6: 3a 6c f0     ld   a,($F06C)
bdf9: 32 65 f0     ld   ($F065),a
bdfc: af           xor  a
bdfd: 32 6c f0     ld   ($F06C),a
be00: 3e 12        ld   a,$12
be02: d3 18        out  ($18),a
be04: 3a 64 f0     ld   a,($F064)
be07: 32 2a 27     ld   ($272A),a
be0a: 3a 36 f4     ld   a,($F436)
be0d: b7           or   a
be0e: 20 0c        jr   nz,$BE1C
be10: 3a 57 12     ld   a,($1257)
be13: b7           or   a
be14: cc 7c 17     call z,$177C
be17: 3e 14        ld   a,$14
be19: 32 56 12     ld   ($1256),a
be1c: 3a 66 f0     ld   a,($F066)
be1f: b7           or   a
be20: c4 e9 f1     call nz,$F1E9
be23: f1           pop  af
be24: fb           ei
be25: c9           ret
be26: f3           di
be27: 08           ex   af,af'
be28: af           xor  a
be29: 32 36 f4     ld   ($F436),a
be2c: 3a 65 f0     ld   a,($F065)
be2f: cd 27 f3     call $F327
be32: ed 7b 90 f4  ld   sp,($F490)
be36: 08           ex   af,af'
be37: fb           ei
be38: c9           ret
be39: fb           ei
be3a: 3a 67 f0     ld   a,($F067)
be3d: b7           or   a
be3e: c0           ret  nz
be3f: 3a 66 f0     ld   a,($F066)
be42: cb 47        bit  0,a
be44: c4 1a 8c     call nz,$8C1A
be47: cb 4f        bit  1,a
be49: c4 4e 0b     call nz,$0B4E
be4c: 3a 66 f0     ld   a,($F066)
be4f: cb 5f        bit  3,a
be51: c4 48 f2     call nz,$F248
be54: cb 6f        bit  5,a
be56: c4 83 2a     call nz,$2A83
be59: 3a 66 f0     ld   a,($F066)
be5c: cb 7f        bit  7,a
be5e: c4 18 f2     call nz,$F218
be61: 3a 66 f0     ld   a,($F066)
be64: b7           or   a
be65: 20 d2        jr   nz,$BE39
be67: c9           ret
be68: c5           push bc
be69: d5           push de
be6a: e5           push hl
be6b: dd e5        push ix
be6d: fd e5        push iy
be6f: cb bf        res  7,a
be71: cb 77        bit  6,a
be73: 20 11        jr   nz,$BE86
be75: cb f7        set  6,a
be77: 32 66 f0     ld   ($F066),a
be7a: 21 39 f4     ld   hl,$F439
be7d: 3e 03        ld   a,$03
be7f: 0e 00        ld   c,$00
be81: cd ec 12     call $12EC
be84: 18 0a        jr   $BE90
be86: cb b7        res  6,a
be88: 32 66 f0     ld   ($F066),a
be8b: 3e 01        ld   a,$01
be8d: cd ef 12     call $12EF
be90: fd e1        pop  iy
be92: dd e1        pop  ix
be94: e1           pop  hl
be95: d1           pop  de
be96: c1           pop  bc
be97: c9           ret
be98: c5           push bc
be99: d5           push de
be9a: e5           push hl
be9b: dd e5        push ix
be9d: fd e5        push iy
be9f: cb 9f        res  3,a
bea1: 32 66 f0     ld   ($F066),a
bea4: 06 00        ld   b,$00
bea6: 2e 01        ld   l,$01
bea8: 3a 38 27     ld   a,($2738)
beab: 3c           inc  a
beac: e6 01        and  $01
beae: 67           ld   h,a
beaf: af           xor  a
beb0: cd 00 52     call $5200
beb3: 3a 66 f0     ld   a,($F066)
beb6: fd e1        pop  iy
beb8: dd e1        pop  ix
beba: e1           pop  hl
bebb: d1           pop  de
bebc: c1           pop  bc
bebd: c9           ret
bebe: ed 73 92 f4  ld   ($F492),sp
bec2: 31 ac f8     ld   sp,$F8AC
bec5: 32 2a f4     ld   ($F42A),a
bec8: 3a 29 f4     ld   a,($F429)
becb: f5           push af
becc: c5           push bc
becd: d5           push de
bece: e5           push hl
becf: dd e5        push ix
bed1: fd e5        push iy
bed3: 3a 6c f0     ld   a,($F06C)
bed6: 32 38 f4     ld   ($F438),a
bed9: 11 a1 f2     ld   de,$F2A1
bedc: d5           push de
bedd: 3a 2a f4     ld   a,($F42A)
bee0: 5f           ld   e,a
bee1: 16 00        ld   d,$00
bee3: 21 7c f5     ld   hl,$F57C
bee6: 19           add  hl,de
bee7: 5e           ld   e,(hl)
bee8: 23           inc  hl
bee9: 56           ld   d,(hl)
beea: 23           inc  hl
beeb: 7e           ld   a,(hl)
beec: eb           ex   de,hl
beed: cd 27 f3     call $F327
bef0: e9           jp   (hl)
bef1: 3a 38 f4     ld   a,($F438)
bef4: cd 27 f3     call $F327
bef7: fd e1        pop  iy
bef9: dd e1        pop  ix
befb: e1           pop  hl
befc: d1           pop  de
befd: c1           pop  bc
befe: f1           pop  af
beff: ed 7b 92 f4  ld   sp,($F492)
bf03: fb           ei
bf04: c9           ret
bf05: 22 31 f4     ld   ($F431),hl
bf08: 32 33 f4     ld   ($F433),a
bf0b: 3a 6c f0     ld   a,($F06C)
bf0e: f5           push af
bf0f: 3a 33 f4     ld   a,($F433)
bf12: cd 27 f3     call $F327
bf15: 21 cd f2     ld   hl,$F2CD
bf18: e5           push hl
bf19: 2a 31 f4     ld   hl,($F431)
bf1c: e9           jp   (hl)
bf1d: f1           pop  af
bf1e: cd 27 f3     call $F327
bf21: c9           ret
bf22: 22 2f f4     ld   ($F42F),hl
bf25: e1           pop  hl
bf26: ed 73 34 f4  ld   ($F434),sp
bf2a: ed 7b 94 f4  ld   sp,($F494)
bf2e: e5           push hl
bf2f: 32 2e f4     ld   ($F42E),a
bf32: 3a 6c f0     ld   a,($F06C)
bf35: f5           push af
bf36: 3a 2e f4     ld   a,($F42E)
bf39: cd 27 f3     call $F327
bf3c: ed 73 94 f4  ld   ($F494),sp
bf40: ed 7b 34 f4  ld   sp,($F434)
bf44: 21 fc f2     ld   hl,$F2FC
bf47: e5           push hl
bf48: 2a 2f f4     ld   hl,($F42F)
bf4b: e9           jp   (hl)
bf4c: ed 73 34 f4  ld   ($F434),sp
bf50: ed 7b 94 f4  ld   sp,($F494)
bf54: f1           pop  af
bf55: e1           pop  hl
bf56: ed 73 94 f4  ld   ($F494),sp
bf5a: ed 7b 34 f4  ld   sp,($F434)
bf5e: e5           push hl
bf5f: 32 2e f4     ld   ($F42E),a
bf62: 3a 6c f0     ld   a,($F06C)
bf65: f5           push af
bf66: 3a 2e f4     ld   a,($F42E)
bf69: cd 27 f3     call $F327
bf6c: 21 bf f4     ld   hl,$F4BF
bf6f: e9           jp   (hl)
bf70: 21 90 f4     ld   hl,$F490
bf73: 22 94 f4     ld   ($F494),hl
bf76: c9           ret
bf77: e5           push hl
bf78: e6 07        and  $07
bf7a: 32 6c f0     ld   ($F06C),a
bf7d: 21 3f f3     ld   hl,$F33F
bf80: 87           add  a,a
bf81: 85           add  a,l
bf82: 6f           ld   l,a
bf83: 30 01        jr   nc,$BF86
bf85: 23           inc  hl
bf86: 7e           ld   a,(hl)
bf87: d3 28        out  ($28),a
bf89: 23           inc  hl
bf8a: 7e           ld   a,(hl)
bf8b: d3 18        out  ($18),a
bf8d: e1           pop  hl
bf8e: c9           ret
bf8f: 00           nop
bf90: 12           ld   (de),a
bf91: 00           nop
bf92: 22 00 42     ld   ($4200),hl
bf95: 00           nop
bf96: 82           add  a,d
bf97: 01 12 01     ld   bc,$0112
bf9a: 22 01 42     ld   ($4201),hl
bf9d: 01 82 c5     ld   bc,$C582
bfa0: 3a 65 f0     ld   a,($F065)
bfa3: cd 27 f3     call $F327
bfa6: 3a 03 00     ld   a,($0003)
bfa9: 47           ld   b,a
bfaa: 3e 00        ld   a,$00
bfac: cd 27 f3     call $F327
bfaf: 78           ld   a,b
bfb0: c1           pop  bc
bfb1: c9           ret
bfb2: c5           push bc
bfb3: 47           ld   b,a
bfb4: 3a 65 f0     ld   a,($F065)
bfb7: cd 27 f3     call $F327
bfba: 78           ld   a,b
bfbb: 32 03 00     ld   ($0003),a
bfbe: 3e 00        ld   a,$00
bfc0: cd 27 f3     call $F327
bfc3: c1           pop  bc
bfc4: c9           ret
bfc5: c5           push bc
bfc6: 3a 65 f0     ld   a,($F065)
bfc9: cd 27 f3     call $F327
bfcc: 3a 04 00     ld   a,($0004)
bfcf: 47           ld   b,a
bfd0: 3e 00        ld   a,$00
bfd2: cd 27 f3     call $F327
bfd5: 78           ld   a,b
bfd6: c1           pop  bc
bfd7: c9           ret
bfd8: c5           push bc
bfd9: 47           ld   b,a
bfda: 3a 65 f0     ld   a,($F065)
bfdd: cd 27 f3     call $F327
bfe0: 78           ld   a,b
bfe1: 32 04 00     ld   ($0004),a
bfe4: 3e 00        ld   a,$00
bfe6: cd 27 f3     call $F327
bfe9: c1           pop  bc
bfea: c9           ret
bfeb: ed 43 2b f4  ld   ($F42B),bc
bfef: 3e ff        ld   a,$FF
bff1: 32 2d f4     ld   ($F42D),a
bff4: c9           ret
bff5: 78           ld   a,b
bff6: b1           or   c
bff7: c8           ret  z
bff8: 3a 2d f4     ld   a,($F42D)
bffb: b7           or   a
bffc: ca 26 f4     jp   z,$F426
bfff: af           xor  a
c000: 32 2d f4     ld   ($F42D),a
c003: 3a 6c f0     ld   a,($F06C)
c006: 32 6a f0     ld   ($F06A),a
c009: ed 43 74 f0  ld   ($F074),bc
c00d: 22 70 f0     ld   ($F070),hl
c010: ed 53 72 f0  ld   ($F072),de
c014: 2a 74 f0     ld   hl,($F074)
c017: 11 80 00     ld   de,$0080
c01a: b7           or   a
c01b: ed 52        sbc  hl,de
c01d: 38 10        jr   c,$C02F
c01f: 7d           ld   a,l
c020: b4           or   h
c021: 28 0c        jr   z,$C02F
c023: 22 74 f0     ld   ($F074),hl
c026: 01 80 00     ld   bc,$0080
c029: ed 43 68 f0  ld   ($F068),bc
c02d: 18 09        jr   $C038
c02f: 19           add  hl,de
c030: 22 68 f0     ld   ($F068),hl
c033: 3e ff        ld   a,$FF
c035: 32 6b f0     ld   ($F06B),a
c038: 3a 2b f4     ld   a,($F42B)
c03b: cd 27 f3     call $F327
c03e: ed 4b 68 f0  ld   bc,($F068)
c042: 2a 70 f0     ld   hl,($F070)
c045: 11 dc f7     ld   de,$F7DC
c048: ed b0        ldir
c04a: 22 70 f0     ld   ($F070),hl
c04d: 3a 2c f4     ld   a,($F42C)
c050: cd 27 f3     call $F327
c053: ed 5b 72 f0  ld   de,($F072)
c057: ed 4b 68 f0  ld   bc,($F068)
c05b: 21 dc f7     ld   hl,$F7DC
c05e: ed b0        ldir
c060: ed 53 72 f0  ld   ($F072),de
c064: 3a 6b f0     ld   a,($F06B)
c067: b7           or   a
c068: ca c4 f3     jp   z,$F3C4
c06b: af           xor  a
c06c: 32 6b f0     ld   ($F06B),a
c06f: 3a 6a f0     ld   a,($F06A)
c072: cd 27 f3     call $F327
c075: c9           ret
c076: ed b0        ldir
c078: c9           ret
c079: 00           nop
c07a: 00           nop
c07b: 00           nop
c07c: 00           nop
c07d: 00           nop
c07e: 00           nop
c07f: 00           nop
c080: 00           nop
c081: 00           nop
c082: 00           nop
c083: 00           nop
c084: 00           nop
c085: 00           nop
c086: 00           nop
c087: 00           nop
c088: 00           nop
c089: 20 53        jr   nz,$C0DE
c08b: 59           ld   e,c
c08c: 53           ld   d,e
c08d: 54           ld   d,h
c08e: 45           ld   b,l
c08f: 4d           ld   c,l
c090: 20 49        jr   nz,$C0DB
c092: 53           ld   d,e
c093: 20 50        jr   nz,$C0E5
c095: 41           ld   b,c
c096: 55           ld   d,l
c097: 53           ld   d,e
c098: 45           ld   b,l
c099: 44           ld   b,h
c09a: 21 20 50     ld   hl,$5020
c09d: 52           ld   d,d
c09e: 45           ld   b,l
c09f: 53           ld   d,e
c0a0: 53           ld   d,e
c0a1: 20 43        jr   nz,$C0E6
c0a3: 54           ld   d,h
c0a4: 52           ld   d,d
c0a5: 4c           ld   c,h
c0a6: 2d           dec  l
c0a7: 53           ld   d,e
c0a8: 54           ld   d,h
c0a9: 4f           ld   c,a
c0aa: 50           ld   d,b
c0ab: 20 54        jr   nz,$C101
c0ad: 4f           ld   c,a
c0ae: 20 43        jr   nz,$C0F3
c0b0: 4f           ld   c,a
c0b1: 4e           ld   c,(hl)
c0b2: 54           ld   d,h
c0b3: 49           ld   c,c
c0b4: 4e           ld   c,(hl)
c0b5: 55           ld   d,l
c0b6: 45           ld   b,l
c0b7: 00           nop
c0b8: 00           nop
c0b9: 00           nop
c0ba: 00           nop
c0bb: 00           nop
c0bc: 00           nop
c0bd: 00           nop
c0be: 00           nop
c0bf: 00           nop
c0c0: 00           nop
c0c1: 00           nop
c0c2: 00           nop
c0c3: 00           nop
c0c4: 00           nop
c0c5: 00           nop
c0c6: 00           nop
c0c7: 00           nop
c0c8: 00           nop
c0c9: 00           nop
c0ca: 00           nop
c0cb: 00           nop
c0cc: 00           nop
c0cd: 00           nop
c0ce: 00           nop
c0cf: 00           nop
c0d0: 00           nop
c0d1: 00           nop
c0d2: 00           nop
c0d3: 00           nop
c0d4: 00           nop
c0d5: 00           nop
c0d6: 00           nop
c0d7: 00           nop
c0d8: 00           nop
c0d9: 00           nop
c0da: 00           nop
c0db: 00           nop
c0dc: 00           nop
c0dd: 00           nop
c0de: 00           nop
c0df: 00           nop
c0e0: 00           nop
c0e1: 00           nop
c0e2: 00           nop
c0e3: 00           nop
c0e4: 90           sub  b
c0e5: f4 3e 01     call p,$013E
c0e8: cd 27 f3     call $F327
c0eb: 3e c3        ld   a,$C3
c0ed: 32 00 00     ld   ($0000),a
c0f0: 32 05 00     ld   ($0005),a
c0f3: 21 03 f0     ld   hl,$F003
c0f6: 22 01 00     ld   ($0001),hl
c0f9: 21 06 e2     ld   hl,$E206
c0fc: 22 06 00     ld   ($0006),hl
c0ff: 3a 04 00     ld   a,($0004)
c102: 4f           ld   c,a
c103: c3 00 da     jp   $DA00
c106: ff           rst  $38
c107: ff           rst  $38
c108: f1           pop  af
c109: cd d5 f4     call $F4D5
c10c: c3 d2 f2     jp   $F2D2
c10f: f1           pop  af
c110: 4f           ld   c,a
c111: 3a 6c f0     ld   a,($F06C)
c114: 47           ld   b,a
c115: cd 9b f3     call $F39B
c118: 11 00 00     ld   de,$0000
c11b: 21 00 00     ld   hl,$0000
c11e: 01 08 00     ld   bc,$0008
c121: cd a5 f3     call $F3A5
c124: c9           ret
c125: 47           ld   b,a
c126: 21 ff ef     ld   hl,$EFFF
c129: b7           or   a
c12a: ed 52        sbc  hl,de
c12c: da f0 f4     jp   c,$F4F0
c12f: 3a b6 f4     ld   a,($F4B6)
c132: b8           cp   b
c133: 28 26        jr   z,$C15B
c135: 3a b7 f4     ld   a,($F4B7)
c138: b8           cp   b
c139: 28 20        jr   z,$C15B
c13b: 3e 01        ld   a,$01
c13d: b8           cp   b
c13e: 28 1b        jr   z,$C15B
c140: af           xor  a
c141: cd 27 f3     call $F327
c144: 21 e1 0a     ld   hl,$0AE1
c147: 3e 0a        ld   a,$0A
c149: 0e 00        ld   c,$00
c14b: cd ec 12     call $12EC
c14e: cd 6a 16     call $166A
c151: cd 69 12     call $1269
c154: af           xor  a
c155: cd ef 12     call $12EF
c158: c3 62 00     jp   $0062
c15b: c5           push bc
c15c: d5           push de
c15d: 3a 6c f0     ld   a,($F06C)
c160: 4f           ld   c,a
c161: cd 9b f3     call $F39B
c164: 11 00 00     ld   de,$0000
c167: 21 00 00     ld   hl,$0000
c16a: 01 08 00     ld   bc,$0008
c16d: cd a5 f3     call $F3A5
c170: e1           pop  hl
c171: f1           pop  af
c172: c9           ret
c173: f1           pop  af
c174: cd d5 f4     call $F4D5
c177: cd 27 f3     call $F327
c17a: e9           jp   (hl)
c17b: 3a 7b f5     ld   a,($F57B)
c17e: b7           or   a
c17f: 28 02        jr   z,$C183
c181: 3e ff        ld   a,$FF
c183: c9           ret
c184: 20 50        jr   nz,$C1D6
c186: 52           ld   d,d
c187: 45           ld   b,l
c188: 53           ld   d,e
c189: 53           ld   d,e
c18a: 20 52        jr   nz,$C1DE
c18c: 45           ld   b,l
c18d: 53           ld   d,e
c18e: 45           ld   b,l
c18f: 54           ld   d,h
c190: 20 42        jr   nz,$C1D4
c192: 55           ld   d,l
c193: 54           ld   d,h
c194: 54           ld   d,h
c195: 4f           ld   c,a
c196: 4e           ld   c,(hl)
c197: 00           nop
c198: 3a 14 98     ld   a,($9814)
c19b: b7           or   a
c19c: 28 12        jr   z,$C1B0
c19e: 3a 40 98     ld   a,($9840)
c1a1: b7           or   a
c1a2: 28 0c        jr   z,$C1B0
c1a4: 21 34 f5     ld   hl,$F534
c1a7: 3e 03        ld   a,$03
c1a9: 0e 00        ld   c,$00
c1ab: cd ec 12     call $12EC
c1ae: f3           di
c1af: 76           halt
c1b0: 3e e0        ld   a,$E0
c1b2: cd ea 18     call $18EA
c1b5: af           xor  a
c1b6: cd ea 18     call $18EA
c1b9: cd ea 18     call $18EA
c1bc: 3e 03        ld   a,$03
c1be: d3 17        out  ($17),a
c1c0: af           xor  a
c1c1: d3 20        out  ($20),a
c1c3: d3 4d        out  ($4D),a
c1c5: af           xor  a
c1c6: d3 1c        out  ($1C),a
c1c8: c3 00 00     jp   $0000
c1cb: 00           nop
c1cc: e3           ex   (sp),hl
c1cd: 26 00        ld   h,$00
c1cf: e3           ex   (sp),hl
c1d0: 26 00        ld   h,$00
c1d2: e3           ex   (sp),hl
c1d3: 26 00        ld   h,$00
c1d5: e3           ex   (sp),hl
c1d6: 26 00        ld   h,$00
c1d8: c9           ret
c1d9: 25           dec  h
c1da: 00           nop
c1db: e3           ex   (sp),hl
c1dc: 26 00        ld   h,$00
c1de: e3           ex   (sp),hl
c1df: 26 00        ld   h,$00
c1e1: e3           ex   (sp),hl
c1e2: 26 00        ld   h,$00
c1e4: e3           ex   (sp),hl
c1e5: 26 00        ld   h,$00
c1e7: e3           ex   (sp),hl
c1e8: 26 00        ld   h,$00
c1ea: 10 11        djnz $C1FD
c1ec: 00           nop
c1ed: e3           ex   (sp),hl
c1ee: 26 00        ld   h,$00
c1f0: e3           ex   (sp),hl
c1f1: 26 00        ld   h,$00
c1f3: f0           ret  p
c1f4: 4a           ld   c,d
c1f5: 00           nop
c1f6: e3           ex   (sp),hl
c1f7: 26 00        ld   h,$00
c1f9: e3           ex   (sp),hl
c1fa: 26 00        ld   h,$00
c1fc: 0f           rrca
c1fd: 26 00        ld   h,$00
c1ff: 46           ld   b,(hl)
c200: 26 00        ld   h,$00
c202: c9           ret
c203: c9           ret
c204: 2a 07 e2     ld   hl,($E207)
c207: 22 c1 f5     ld   ($F5C1),hl
c20a: 21 c5 f5     ld   hl,$F5C5
c20d: 22 07 e2     ld   ($E207),hl
c210: c9           ret
c211: 00           nop
c212: 00           nop
c213: 00           nop
c214: 00           nop
c215: f3           di
c216: ed 73 c3 f5  ld   ($F5C3),sp
c21a: 31 00 00     ld   sp,$0000
c21d: f5           push af
c21e: c5           push bc
c21f: d5           push de
c220: e5           push hl
c221: 3a 6c f0     ld   a,($F06C)
c224: 32 65 f0     ld   ($F065),a
c227: af           xor  a
c228: 32 6c f0     ld   ($F06C),a
c22b: 3e 12        ld   a,$12
c22d: d3 18        out  ($18),a
c22f: fb           ei
c230: c3 0a 28     jp   $280A
c233: f3           di
c234: 3a 65 f0     ld   a,($F065)
c237: cd 27 f3     call $F327
c23a: e1           pop  hl
c23b: d1           pop  de
c23c: c1           pop  bc
c23d: f1           pop  af
c23e: ed 7b c3 f5  ld   sp,($F5C3)
c242: fb           ei
c243: 2a c1 f5     ld   hl,($F5C1)
c246: e9           jp   (hl)
c247: 00           nop
c248: 00           nop
c249: 00           nop
c24a: 00           nop
c24b: 00           nop
c24c: 00           nop
c24d: 00           nop
c24e: 00           nop
c24f: 00           nop
c250: 00           nop
c251: 00           nop
c252: 00           nop
c253: 00           nop
c254: 00           nop
c255: 00           nop
c256: 00           nop
c257: 00           nop
c258: 00           nop
c259: 00           nop
c25a: 00           nop
c25b: 00           nop
c25c: 00           nop
c25d: 00           nop
c25e: 00           nop
c25f: 00           nop
c260: 00           nop
c261: 00           nop
c262: 00           nop
c263: 00           nop
c264: 00           nop
c265: 00           nop
c266: 00           nop
c267: 00           nop
c268: 00           nop
c269: 80           add  a,b
c26a: 00           nop
c26b: 00           nop
c26c: 00           nop
c26d: 00           nop
c26e: 00           nop
c26f: 00           nop
c270: 00           nop
c271: 00           nop
c272: 00           nop
c273: 00           nop
c274: 00           nop
c275: 00           nop
c276: 00           nop
c277: 00           nop
c278: 00           nop
c279: 00           nop
c27a: 00           nop
c27b: 00           nop
c27c: 00           nop
c27d: 00           nop
c27e: 00           nop
c27f: 00           nop
c280: 00           nop
c281: 00           nop
c282: 00           nop
c283: 00           nop
c284: 00           nop
c285: 00           nop
c286: 00           nop
c287: 00           nop
c288: 00           nop
c289: 00           nop
c28a: 00           nop
c28b: 00           nop
c28c: 00           nop
c28d: 00           nop
c28e: 00           nop
c28f: 34           inc  (hl)
c290: 92           sub  d
c291: 58           ld   e,b
c292: 93           sub  e
c293: 28 93        jr   z,$C228
c295: dd           db   $dd
c296: 91           sub  c
c297: 00           nop
c298: 00           nop
c299: 00           nop
c29a: 00           nop
c29b: 00           nop
c29c: 00           nop
c29d: 00           nop
c29e: 00           nop
c29f: 00           nop
c2a0: 00           nop
c2a1: 00           nop
c2a2: 00           nop
c2a3: 70           ld   (hl),b
c2a4: ff           rst  $38
c2a5: 77           ld   (hl),a
c2a6: f6 f0        or   $F0
c2a8: fc 8e fc     call m,$FC8E
c2ab: 34           inc  (hl)
c2ac: 92           sub  d
c2ad: 58           ld   e,b
c2ae: 93           sub  e
c2af: 28 93        jr   z,$C244
c2b1: dd           db   $dd
c2b2: 91           sub  c
c2b3: 00           nop
c2b4: 00           nop
c2b5: 00           nop
c2b6: 01 00 00     ld   bc,$0000
c2b9: 00           nop
c2ba: 00           nop
c2bb: 00           nop
c2bc: 00           nop
c2bd: 00           nop
c2be: 00           nop
c2bf: 70           ld   (hl),b
c2c0: ff           rst  $38
c2c1: 95           sub  l
c2c2: f6 30        or   $30
c2c4: fd           db   $fd
c2c5: bf           cp   a
c2c6: fc 50 00     call m,$0050
c2c9: 04           inc  b
c2ca: 0f           rrca
c2cb: 01 bd 00     ld   bc,$00BD
c2ce: 7f           ld   a,a
c2cf: 00           nop
c2d0: c0           ret  nz
c2d1: 00           nop
c2d2: 20 00        jr   nz,$C2D4
c2d4: 02           ld   (bc),a
c2d5: 00           nop
c2d6: 50           ld   d,b
c2d7: 00           nop
c2d8: 04           inc  b
c2d9: 0f           rrca
c2da: 00           nop
c2db: 85           add  a,l
c2dc: 01 ff 00     ld   bc,$00FF
c2df: f0           ret  p
c2e0: 00           nop
c2e1: 40           ld   b,b
c2e2: 00           nop
c2e3: 02           ld   (bc),a
c2e4: 00           nop
c2e5: 50           ld   d,b
c2e6: 00           nop
c2e7: 04           inc  b
c2e8: 0f           rrca
c2e9: 01 bd 00     ld   bc,$00BD
c2ec: 7f           ld   a,a
c2ed: 00           nop
c2ee: c0           ret  nz
c2ef: 00           nop
c2f0: 20 00        jr   nz,$C2F2
c2f2: 02           ld   (bc),a
c2f3: 00           nop
c2f4: 10 50        djnz $C346
c2f6: 02           ld   (bc),a
c2f7: 03           inc  bc
c2f8: 0a           ld   a,(bc)
c2f9: 0f           rrca
c2fa: 02           ld   (bc),a
c2fb: ff           rst  $38
c2fc: 01 04 00     ld   bc,$0004
c2ff: 28 50        jr   z,$C351
c301: 00           nop
c302: 04           inc  b
c303: 0f           rrca
c304: 00           nop
c305: 85           add  a,l
c306: 01 ff 00     ld   bc,$00FF
c309: f0           ret  p
c30a: 00           nop
c30b: 40           ld   b,b
c30c: 00           nop
c30d: 02           ld   (bc),a
c30e: 00           nop
c30f: 10 50        djnz $C361
c311: 02           ld   (bc),a
c312: 03           inc  bc
c313: 0a           ld   a,(bc)
c314: 0f           rrca
c315: 02           ld   (bc),a
c316: ff           rst  $38
c317: 01 04 00     ld   bc,$0004
c31a: 50           ld   d,b
c31b: 6a           ld   l,d
c31c: 98           sbc  a,b
c31d: 8d           adc  a,l
c31e: 98           sbc  a,b
c31f: 7b           ld   a,e
c320: 98           sbc  a,b
c321: 41           ld   b,c
c322: 98           sbc  a,b
c323: 2b           dec  hl
c324: 9f           sbc  a,a
c325: 00           nop
c326: 00           nop
c327: 00           nop
c328: 00           nop
c329: 00           nop
c32a: 00           nop
c32b: 00           nop
c32c: 00           nop
c32d: 00           nop
c32e: 00           nop
c32f: 8e           adc  a,(hl)
c330: fb           ei
c331: 03           inc  bc
c332: f7           rst  $30
c333: 12           ld   (de),a
c334: f7           rst  $30
c335: 2c           inc  l
c336: f9           ld   sp,hl
c337: 6a           ld   l,d
c338: 98           sbc  a,b
c339: 8d           adc  a,l
c33a: 98           sbc  a,b
c33b: 7b           ld   a,e
c33c: 98           sbc  a,b
c33d: 41           ld   b,c
c33e: 98           sbc  a,b
c33f: 00           nop
c340: 00           nop
c341: 00           nop
c342: 01 00 00     ld   bc,$0000
c345: 00           nop
c346: 00           nop
c347: 00           nop
c348: 00           nop
c349: 00           nop
c34a: 00           nop
c34b: 8e           adc  a,(hl)
c34c: fb           ei
c34d: 03           inc  bc
c34e: f7           rst  $30
c34f: 12           ld   (de),a
c350: f7           rst  $30
c351: 5d           ld   e,l
c352: fa 40 00     jp   m,$0040
c355: 04           inc  b
c356: 0f           rrca
c357: 00           nop
c358: 87           add  a,a
c359: 09           add  hl,bc
c35a: ff           rst  $38
c35b: 03           inc  bc
c35c: ff           rst  $38
c35d: ff           rst  $38
c35e: 00           nop
c35f: 00           nop
c360: 02           ld   (bc),a
c361: 00           nop
c362: 3a 35 27     ld   a,($2735)
c365: b7           or   a
c366: c8           ret  z
c367: af           xor  a
c368: 32 65 9b     ld   ($9B65),a
c36b: 3e 02        ld   a,$02
c36d: cd 27 f3     call $F327
c370: 01 00 08     ld   bc,$0800
c373: 21 00 00     ld   hl,$0000
c376: 3e e5        ld   a,$E5
c378: 77           ld   (hl),a
c379: 23           inc  hl
c37a: 0b           dec  bc
c37b: 79           ld   a,c
c37c: b0           or   b
c37d: c2 26 f7     jp   nz,$F726
c380: 3e 00        ld   a,$00
c382: cd 27 f3     call $F327
c385: c9           ret
c386: e4 9a f2     call po,$F29A
c389: 9a           sbc  a,d
c38a: ec 9a e3     call pe,$E39A
c38d: 9a           sbc  a,d
c38e: 12           ld   (de),a
c38f: f7           rst  $30
c390: 00           nop
c391: 00           nop
c392: 00           nop
c393: 00           nop
c394: 00           nop
c395: 00           nop
c396: 00           nop
c397: 00           nop
c398: 00           nop
c399: 00           nop
c39a: 0e fc        ld   c,$FC
c39c: 52           ld   d,d
c39d: f7           rst  $30
c39e: 00           nop
c39f: 00           nop
c3a0: 61           ld   h,c
c3a1: f7           rst  $30
c3a2: 40           ld   b,b
c3a3: 00           nop
c3a4: 03           inc  bc
c3a5: 07           rlca
c3a6: 00           nop
c3a7: 67           ld   h,a
c3a8: 00           nop
c3a9: 1f           rra
c3aa: 00           nop
c3ab: 80           add  a,b
c3ac: 00           nop
c3ad: 00           nop
c3ae: 00           nop
c3af: 00           nop
c3b0: 00           nop
c3b1: 00           nop
c3b2: 00           nop
c3b3: 00           nop
c3b4: 00           nop
c3b5: 00           nop
c3b6: 00           nop
c3b7: 00           nop
c3b8: 00           nop
c3b9: 00           nop
c3ba: 00           nop
c3bb: 00           nop
c3bc: 00           nop
c3bd: 00           nop
c3be: 00           nop
c3bf: 00           nop
c3c0: 00           nop
c3c1: 00           nop
c3c2: 00           nop
c3c3: 00           nop
c3c4: 00           nop
c3c5: 00           nop
c3c6: 00           nop
c3c7: 00           nop
c3c8: 00           nop
c3c9: 00           nop
c3ca: 00           nop
c3cb: 00           nop
c3cc: 00           nop
c3cd: 00           nop
c3ce: 00           nop
c3cf: 00           nop
c3d0: 00           nop
c3d1: 00           nop
c3d2: 00           nop
c3d3: 00           nop
c3d4: 00           nop
c3d5: 3a 0e e5     ld   a,($E50E)
c3d8: b7           or   a
c3d9: f5           push af
c3da: af           xor  a
c3db: 32 0e e5     ld   ($E50E),a
c3de: f1           pop  af
c3df: ca e0 e4     jp   z,$E4E0
c3e2: c3 01 e5     jp   $E501
c3e5: 3a 0e e5     ld   a,($E50E)
c3e8: b7           or   a
c3e9: 28 03        jr   z,$C3EE
c3eb: 3e 01        ld   a,$01
c3ed: c9           ret
c3ee: cd 5b 12     call $125B
c3f1: e6 01        and  $01
c3f3: c9           ret
c3f4: 3e 0d        ld   a,$0D
c3f6: b9           cp   c
c3f7: 20 1d        jr   nz,$C416
c3f9: ed 73 c9 f7  ld   ($F7C9),sp
c3fd: 31 d3 f7     ld   sp,$F7D3
c400: c5           push bc
c401: d5           push de
c402: 0e 51        ld   c,$51
c404: 1e 00        ld   e,$00
c406: cd 5a f0     call $F05A
c409: 0e 51        ld   c,$51
c40b: 1e 01        ld   e,$01
c40d: cd 5a f0     call $F05A
c410: d1           pop  de
c411: c1           pop  bc
c412: ed 7b c9 f7  ld   sp,($F7C9)
c416: c3 00 00     jp   $0000
c419: 00           nop
c41a: 00           nop
c41b: 00           nop
c41c: 00           nop
c41d: 00           nop
c41e: 00           nop
c41f: 00           nop
c420: 00           nop
c421: 00           nop
c422: 00           nop
c423: 00           nop
c424: 00           nop
c425: 00           nop
c426: 00           nop
c427: 00           nop
c428: 00           nop
c429: 00           nop
c42a: 00           nop
c42b: 00           nop
c42c: 00           nop
c42d: 00           nop
c42e: 00           nop
c42f: 00           nop
c430: 00           nop
c431: 00           nop
c432: 00           nop
c433: 00           nop
c434: 00           nop
c435: 00           nop
c436: 00           nop
c437: 00           nop
c438: 00           nop
c439: 00           nop
c43a: 00           nop
c43b: 00           nop
c43c: 00           nop
c43d: 00           nop
c43e: 00           nop
c43f: 00           nop
c440: 00           nop
c441: 00           nop
c442: 00           nop
c443: 00           nop
c444: 00           nop
c445: 00           nop
c446: 00           nop
c447: 00           nop
c448: 00           nop
c449: 00           nop
c44a: 00           nop
c44b: 00           nop
c44c: 00           nop
c44d: 00           nop
c44e: 00           nop
c44f: 00           nop
c450: 38 19        jr   c,$C46B
c452: 22 aa 38     ld   ($38AA),hl
c455: ed 5b c9 38  ld   de,($38C9)
c459: ed 53 ae 38  ld   ($38AE),de
c45d: ed 52        sbc  hl,de
c45f: 22 cf 38     ld   ($38CF),hl
c462: 3a ad 38     ld   a,($38AD)
c465: 3d           dec  a
c466: cc 10 2d     call z,$2D10
c469: 28 0a        jr   z,$C475
c46b: 32 ad 38     ld   ($38AD),a
c46e: 3a b1 38     ld   a,($38B1)
c471: 3c           inc  a
c472: 32 b1 38     ld   ($38B1),a
c475: db 38        in   a,($38)
c477: e6 20        and  $20
c479: 28 fa        jr   z,$C475
c47b: 21 a8 38     ld   hl,$38A8
c47e: c3 da 00     jp   $00DA
